
BART_GCU.elf:     file format elf32-littlearm

Sections:
Idx Name          Size      VMA       LMA       File off  Algn
  0 .isr_vector   00000298  08020000  08020000  00010000  2**0
                  CONTENTS, ALLOC, LOAD, READONLY, DATA
  1 .text         0000acc4  080202a0  080202a0  000102a0  2**4
                  CONTENTS, ALLOC, LOAD, READONLY, CODE
  2 .rodata       0000101c  0802af68  0802af68  0001af68  2**3
                  CONTENTS, ALLOC, LOAD, READONLY, DATA
  3 .ARM          00000008  0802bf84  0802bf84  0001bf84  2**2
                  CONTENTS, ALLOC, LOAD, READONLY, DATA
  4 .init_array   00000004  0802bf8c  0802bf8c  0001bf8c  2**2
                  CONTENTS, ALLOC, LOAD, DATA
  5 .fini_array   00000004  0802bf90  0802bf90  0001bf90  2**2
                  CONTENTS, ALLOC, LOAD, DATA
  6 .data         000000a4  24000000  0802bf94  00020000  2**2
                  CONTENTS, ALLOC, LOAD, DATA
  7 .bss          00001eb4  240000a8  0802c038  000200a8  2**3
                  ALLOC
  8 ._user_heap_stack 00000c04  24001f5c  0802c038  00021f5c  2**0
                  ALLOC
  9 .ARM.attributes 0000002e  00000000  00000000  000200a4  2**0
                  CONTENTS, READONLY
 10 .comment      00000050  00000000  00000000  000200d2  2**0
                  CONTENTS, READONLY
 11 .debug_frame  00000934  00000000  00000000  00020124  2**2
                  CONTENTS, READONLY, DEBUGGING, OCTETS

Disassembly of section .text:

080202a0 <__do_global_dtors_aux>:
 80202a0:	b510      	push	{r4, lr}
 80202a2:	4c05      	ldr	r4, [pc, #20]	; (80202b8 <__do_global_dtors_aux+0x18>)
 80202a4:	7823      	ldrb	r3, [r4, #0]
 80202a6:	b933      	cbnz	r3, 80202b6 <__do_global_dtors_aux+0x16>
 80202a8:	4b04      	ldr	r3, [pc, #16]	; (80202bc <__do_global_dtors_aux+0x1c>)
 80202aa:	b113      	cbz	r3, 80202b2 <__do_global_dtors_aux+0x12>
 80202ac:	4804      	ldr	r0, [pc, #16]	; (80202c0 <__do_global_dtors_aux+0x20>)
 80202ae:	f3af 8000 	nop.w
 80202b2:	2301      	movs	r3, #1
 80202b4:	7023      	strb	r3, [r4, #0]
 80202b6:	bd10      	pop	{r4, pc}
 80202b8:	240000a8 	.word	0x240000a8
 80202bc:	00000000 	.word	0x00000000
 80202c0:	0802af4c 	.word	0x0802af4c

080202c4 <frame_dummy>:
 80202c4:	b508      	push	{r3, lr}
 80202c6:	4b03      	ldr	r3, [pc, #12]	; (80202d4 <frame_dummy+0x10>)
 80202c8:	b11b      	cbz	r3, 80202d2 <frame_dummy+0xe>
 80202ca:	4903      	ldr	r1, [pc, #12]	; (80202d8 <frame_dummy+0x14>)
 80202cc:	4803      	ldr	r0, [pc, #12]	; (80202dc <frame_dummy+0x18>)
 80202ce:	f3af 8000 	nop.w
 80202d2:	bd08      	pop	{r3, pc}
 80202d4:	00000000 	.word	0x00000000
 80202d8:	240000ac 	.word	0x240000ac
 80202dc:	0802af4c 	.word	0x0802af4c

080202e0 <memchr>:
 80202e0:	f001 01ff 	and.w	r1, r1, #255	; 0xff
 80202e4:	2a10      	cmp	r2, #16
 80202e6:	db2b      	blt.n	8020340 <memchr+0x60>
 80202e8:	f010 0f07 	tst.w	r0, #7
 80202ec:	d008      	beq.n	8020300 <memchr+0x20>
 80202ee:	f810 3b01 	ldrb.w	r3, [r0], #1
 80202f2:	3a01      	subs	r2, #1
 80202f4:	428b      	cmp	r3, r1
 80202f6:	d02d      	beq.n	8020354 <memchr+0x74>
 80202f8:	f010 0f07 	tst.w	r0, #7
 80202fc:	b342      	cbz	r2, 8020350 <memchr+0x70>
 80202fe:	d1f6      	bne.n	80202ee <memchr+0xe>
 8020300:	b4f0      	push	{r4, r5, r6, r7}
 8020302:	ea41 2101 	orr.w	r1, r1, r1, lsl #8
 8020306:	ea41 4101 	orr.w	r1, r1, r1, lsl #16
 802030a:	f022 0407 	bic.w	r4, r2, #7
 802030e:	f07f 0700 	mvns.w	r7, #0
 8020312:	2300      	movs	r3, #0
 8020314:	e8f0 5602 	ldrd	r5, r6, [r0], #8
 8020318:	3c08      	subs	r4, #8
 802031a:	ea85 0501 	eor.w	r5, r5, r1
 802031e:	ea86 0601 	eor.w	r6, r6, r1
 8020322:	fa85 f547 	uadd8	r5, r5, r7
 8020326:	faa3 f587 	sel	r5, r3, r7
 802032a:	fa86 f647 	uadd8	r6, r6, r7
 802032e:	faa5 f687 	sel	r6, r5, r7
 8020332:	b98e      	cbnz	r6, 8020358 <memchr+0x78>
 8020334:	d1ee      	bne.n	8020314 <memchr+0x34>
 8020336:	bcf0      	pop	{r4, r5, r6, r7}
 8020338:	f001 01ff 	and.w	r1, r1, #255	; 0xff
 802033c:	f002 0207 	and.w	r2, r2, #7
 8020340:	b132      	cbz	r2, 8020350 <memchr+0x70>
 8020342:	f810 3b01 	ldrb.w	r3, [r0], #1
 8020346:	3a01      	subs	r2, #1
 8020348:	ea83 0301 	eor.w	r3, r3, r1
 802034c:	b113      	cbz	r3, 8020354 <memchr+0x74>
 802034e:	d1f8      	bne.n	8020342 <memchr+0x62>
 8020350:	2000      	movs	r0, #0
 8020352:	4770      	bx	lr
 8020354:	3801      	subs	r0, #1
 8020356:	4770      	bx	lr
 8020358:	2d00      	cmp	r5, #0
 802035a:	bf06      	itte	eq
 802035c:	4635      	moveq	r5, r6
 802035e:	3803      	subeq	r0, #3
 8020360:	3807      	subne	r0, #7
 8020362:	f015 0f01 	tst.w	r5, #1
 8020366:	d107      	bne.n	8020378 <memchr+0x98>
 8020368:	3001      	adds	r0, #1
 802036a:	f415 7f80 	tst.w	r5, #256	; 0x100
 802036e:	bf02      	ittt	eq
 8020370:	3001      	addeq	r0, #1
 8020372:	f415 3fc0 	tsteq.w	r5, #98304	; 0x18000
 8020376:	3001      	addeq	r0, #1
 8020378:	bcf0      	pop	{r4, r5, r6, r7}
 802037a:	3801      	subs	r0, #1
 802037c:	4770      	bx	lr
 802037e:	bf00      	nop

08020380 <__aeabi_uldivmod>:
 8020380:	b953      	cbnz	r3, 8020398 <__aeabi_uldivmod+0x18>
 8020382:	b94a      	cbnz	r2, 8020398 <__aeabi_uldivmod+0x18>
 8020384:	2900      	cmp	r1, #0
 8020386:	bf08      	it	eq
 8020388:	2800      	cmpeq	r0, #0
 802038a:	bf1c      	itt	ne
 802038c:	f04f 31ff 	movne.w	r1, #4294967295
 8020390:	f04f 30ff 	movne.w	r0, #4294967295
 8020394:	f000 b974 	b.w	8020680 <__aeabi_idiv0>
 8020398:	f1ad 0c08 	sub.w	ip, sp, #8
 802039c:	e96d ce04 	strd	ip, lr, [sp, #-16]!
 80203a0:	f000 f806 	bl	80203b0 <__udivmoddi4>
 80203a4:	f8dd e004 	ldr.w	lr, [sp, #4]
 80203a8:	e9dd 2302 	ldrd	r2, r3, [sp, #8]
 80203ac:	b004      	add	sp, #16
 80203ae:	4770      	bx	lr

080203b0 <__udivmoddi4>:
 80203b0:	e92d 47f0 	stmdb	sp!, {r4, r5, r6, r7, r8, r9, sl, lr}
 80203b4:	9d08      	ldr	r5, [sp, #32]
 80203b6:	4604      	mov	r4, r0
 80203b8:	468e      	mov	lr, r1
 80203ba:	2b00      	cmp	r3, #0
 80203bc:	d14d      	bne.n	802045a <__udivmoddi4+0xaa>
 80203be:	428a      	cmp	r2, r1
 80203c0:	4694      	mov	ip, r2
 80203c2:	d969      	bls.n	8020498 <__udivmoddi4+0xe8>
 80203c4:	fab2 f282 	clz	r2, r2
 80203c8:	b152      	cbz	r2, 80203e0 <__udivmoddi4+0x30>
 80203ca:	fa01 f302 	lsl.w	r3, r1, r2
 80203ce:	f1c2 0120 	rsb	r1, r2, #32
 80203d2:	fa20 f101 	lsr.w	r1, r0, r1
 80203d6:	fa0c fc02 	lsl.w	ip, ip, r2
 80203da:	ea41 0e03 	orr.w	lr, r1, r3
 80203de:	4094      	lsls	r4, r2
 80203e0:	ea4f 481c 	mov.w	r8, ip, lsr #16
 80203e4:	0c21      	lsrs	r1, r4, #16
 80203e6:	fbbe f6f8 	udiv	r6, lr, r8
 80203ea:	fa1f f78c 	uxth.w	r7, ip
 80203ee:	fb08 e316 	mls	r3, r8, r6, lr
 80203f2:	ea41 4303 	orr.w	r3, r1, r3, lsl #16
 80203f6:	fb06 f107 	mul.w	r1, r6, r7
 80203fa:	4299      	cmp	r1, r3
 80203fc:	d90a      	bls.n	8020414 <__udivmoddi4+0x64>
 80203fe:	eb1c 0303 	adds.w	r3, ip, r3
 8020402:	f106 30ff 	add.w	r0, r6, #4294967295
 8020406:	f080 811f 	bcs.w	8020648 <__udivmoddi4+0x298>
 802040a:	4299      	cmp	r1, r3
 802040c:	f240 811c 	bls.w	8020648 <__udivmoddi4+0x298>
 8020410:	3e02      	subs	r6, #2
 8020412:	4463      	add	r3, ip
 8020414:	1a5b      	subs	r3, r3, r1
 8020416:	b2a4      	uxth	r4, r4
 8020418:	fbb3 f0f8 	udiv	r0, r3, r8
 802041c:	fb08 3310 	mls	r3, r8, r0, r3
 8020420:	ea44 4403 	orr.w	r4, r4, r3, lsl #16
 8020424:	fb00 f707 	mul.w	r7, r0, r7
 8020428:	42a7      	cmp	r7, r4
 802042a:	d90a      	bls.n	8020442 <__udivmoddi4+0x92>
 802042c:	eb1c 0404 	adds.w	r4, ip, r4
 8020430:	f100 33ff 	add.w	r3, r0, #4294967295
 8020434:	f080 810a 	bcs.w	802064c <__udivmoddi4+0x29c>
 8020438:	42a7      	cmp	r7, r4
 802043a:	f240 8107 	bls.w	802064c <__udivmoddi4+0x29c>
 802043e:	4464      	add	r4, ip
 8020440:	3802      	subs	r0, #2
 8020442:	ea40 4006 	orr.w	r0, r0, r6, lsl #16
 8020446:	1be4      	subs	r4, r4, r7
 8020448:	2600      	movs	r6, #0
 802044a:	b11d      	cbz	r5, 8020454 <__udivmoddi4+0xa4>
 802044c:	40d4      	lsrs	r4, r2
 802044e:	2300      	movs	r3, #0
 8020450:	e9c5 4300 	strd	r4, r3, [r5]
 8020454:	4631      	mov	r1, r6
 8020456:	e8bd 87f0 	ldmia.w	sp!, {r4, r5, r6, r7, r8, r9, sl, pc}
 802045a:	428b      	cmp	r3, r1
 802045c:	d909      	bls.n	8020472 <__udivmoddi4+0xc2>
 802045e:	2d00      	cmp	r5, #0
 8020460:	f000 80ef 	beq.w	8020642 <__udivmoddi4+0x292>
 8020464:	2600      	movs	r6, #0
 8020466:	e9c5 0100 	strd	r0, r1, [r5]
 802046a:	4630      	mov	r0, r6
 802046c:	4631      	mov	r1, r6
 802046e:	e8bd 87f0 	ldmia.w	sp!, {r4, r5, r6, r7, r8, r9, sl, pc}
 8020472:	fab3 f683 	clz	r6, r3
 8020476:	2e00      	cmp	r6, #0
 8020478:	d14a      	bne.n	8020510 <__udivmoddi4+0x160>
 802047a:	428b      	cmp	r3, r1
 802047c:	d302      	bcc.n	8020484 <__udivmoddi4+0xd4>
 802047e:	4282      	cmp	r2, r0
 8020480:	f200 80f9 	bhi.w	8020676 <__udivmoddi4+0x2c6>
 8020484:	1a84      	subs	r4, r0, r2
 8020486:	eb61 0303 	sbc.w	r3, r1, r3
 802048a:	2001      	movs	r0, #1
 802048c:	469e      	mov	lr, r3
 802048e:	2d00      	cmp	r5, #0
 8020490:	d0e0      	beq.n	8020454 <__udivmoddi4+0xa4>
 8020492:	e9c5 4e00 	strd	r4, lr, [r5]
 8020496:	e7dd      	b.n	8020454 <__udivmoddi4+0xa4>
 8020498:	b902      	cbnz	r2, 802049c <__udivmoddi4+0xec>
 802049a:	deff      	udf	#255	; 0xff
 802049c:	fab2 f282 	clz	r2, r2
 80204a0:	2a00      	cmp	r2, #0
 80204a2:	f040 8092 	bne.w	80205ca <__udivmoddi4+0x21a>
 80204a6:	eba1 010c 	sub.w	r1, r1, ip
 80204aa:	ea4f 471c 	mov.w	r7, ip, lsr #16
 80204ae:	fa1f fe8c 	uxth.w	lr, ip
 80204b2:	2601      	movs	r6, #1
 80204b4:	0c20      	lsrs	r0, r4, #16
 80204b6:	fbb1 f3f7 	udiv	r3, r1, r7
 80204ba:	fb07 1113 	mls	r1, r7, r3, r1
 80204be:	ea40 4101 	orr.w	r1, r0, r1, lsl #16
 80204c2:	fb0e f003 	mul.w	r0, lr, r3
 80204c6:	4288      	cmp	r0, r1
 80204c8:	d908      	bls.n	80204dc <__udivmoddi4+0x12c>
 80204ca:	eb1c 0101 	adds.w	r1, ip, r1
 80204ce:	f103 38ff 	add.w	r8, r3, #4294967295
 80204d2:	d202      	bcs.n	80204da <__udivmoddi4+0x12a>
 80204d4:	4288      	cmp	r0, r1
 80204d6:	f200 80cb 	bhi.w	8020670 <__udivmoddi4+0x2c0>
 80204da:	4643      	mov	r3, r8
 80204dc:	1a09      	subs	r1, r1, r0
 80204de:	b2a4      	uxth	r4, r4
 80204e0:	fbb1 f0f7 	udiv	r0, r1, r7
 80204e4:	fb07 1110 	mls	r1, r7, r0, r1
 80204e8:	ea44 4401 	orr.w	r4, r4, r1, lsl #16
 80204ec:	fb0e fe00 	mul.w	lr, lr, r0
 80204f0:	45a6      	cmp	lr, r4
 80204f2:	d908      	bls.n	8020506 <__udivmoddi4+0x156>
 80204f4:	eb1c 0404 	adds.w	r4, ip, r4
 80204f8:	f100 31ff 	add.w	r1, r0, #4294967295
 80204fc:	d202      	bcs.n	8020504 <__udivmoddi4+0x154>
 80204fe:	45a6      	cmp	lr, r4
 8020500:	f200 80bb 	bhi.w	802067a <__udivmoddi4+0x2ca>
 8020504:	4608      	mov	r0, r1
 8020506:	eba4 040e 	sub.w	r4, r4, lr
 802050a:	ea40 4003 	orr.w	r0, r0, r3, lsl #16
 802050e:	e79c      	b.n	802044a <__udivmoddi4+0x9a>
 8020510:	f1c6 0720 	rsb	r7, r6, #32
 8020514:	40b3      	lsls	r3, r6
 8020516:	fa22 fc07 	lsr.w	ip, r2, r7
 802051a:	ea4c 0c03 	orr.w	ip, ip, r3
 802051e:	fa20 f407 	lsr.w	r4, r0, r7
 8020522:	fa01 f306 	lsl.w	r3, r1, r6
 8020526:	431c      	orrs	r4, r3
 8020528:	40f9      	lsrs	r1, r7
 802052a:	ea4f 491c 	mov.w	r9, ip, lsr #16
 802052e:	fa00 f306 	lsl.w	r3, r0, r6
 8020532:	fbb1 f8f9 	udiv	r8, r1, r9
 8020536:	0c20      	lsrs	r0, r4, #16
 8020538:	fa1f fe8c 	uxth.w	lr, ip
 802053c:	fb09 1118 	mls	r1, r9, r8, r1
 8020540:	ea40 4101 	orr.w	r1, r0, r1, lsl #16
 8020544:	fb08 f00e 	mul.w	r0, r8, lr
 8020548:	4288      	cmp	r0, r1
 802054a:	fa02 f206 	lsl.w	r2, r2, r6
 802054e:	d90b      	bls.n	8020568 <__udivmoddi4+0x1b8>
 8020550:	eb1c 0101 	adds.w	r1, ip, r1
 8020554:	f108 3aff 	add.w	sl, r8, #4294967295
 8020558:	f080 8088 	bcs.w	802066c <__udivmoddi4+0x2bc>
 802055c:	4288      	cmp	r0, r1
 802055e:	f240 8085 	bls.w	802066c <__udivmoddi4+0x2bc>
 8020562:	f1a8 0802 	sub.w	r8, r8, #2
 8020566:	4461      	add	r1, ip
 8020568:	1a09      	subs	r1, r1, r0
 802056a:	b2a4      	uxth	r4, r4
 802056c:	fbb1 f0f9 	udiv	r0, r1, r9
 8020570:	fb09 1110 	mls	r1, r9, r0, r1
 8020574:	ea44 4101 	orr.w	r1, r4, r1, lsl #16
 8020578:	fb00 fe0e 	mul.w	lr, r0, lr
 802057c:	458e      	cmp	lr, r1
 802057e:	d908      	bls.n	8020592 <__udivmoddi4+0x1e2>
 8020580:	eb1c 0101 	adds.w	r1, ip, r1
 8020584:	f100 34ff 	add.w	r4, r0, #4294967295
 8020588:	d26c      	bcs.n	8020664 <__udivmoddi4+0x2b4>
 802058a:	458e      	cmp	lr, r1
 802058c:	d96a      	bls.n	8020664 <__udivmoddi4+0x2b4>
 802058e:	3802      	subs	r0, #2
 8020590:	4461      	add	r1, ip
 8020592:	ea40 4008 	orr.w	r0, r0, r8, lsl #16
 8020596:	fba0 9402 	umull	r9, r4, r0, r2
 802059a:	eba1 010e 	sub.w	r1, r1, lr
 802059e:	42a1      	cmp	r1, r4
 80205a0:	46c8      	mov	r8, r9
 80205a2:	46a6      	mov	lr, r4
 80205a4:	d356      	bcc.n	8020654 <__udivmoddi4+0x2a4>
 80205a6:	d053      	beq.n	8020650 <__udivmoddi4+0x2a0>
 80205a8:	b15d      	cbz	r5, 80205c2 <__udivmoddi4+0x212>
 80205aa:	ebb3 0208 	subs.w	r2, r3, r8
 80205ae:	eb61 010e 	sbc.w	r1, r1, lr
 80205b2:	fa01 f707 	lsl.w	r7, r1, r7
 80205b6:	fa22 f306 	lsr.w	r3, r2, r6
 80205ba:	40f1      	lsrs	r1, r6
 80205bc:	431f      	orrs	r7, r3
 80205be:	e9c5 7100 	strd	r7, r1, [r5]
 80205c2:	2600      	movs	r6, #0
 80205c4:	4631      	mov	r1, r6
 80205c6:	e8bd 87f0 	ldmia.w	sp!, {r4, r5, r6, r7, r8, r9, sl, pc}
 80205ca:	f1c2 0320 	rsb	r3, r2, #32
 80205ce:	40d8      	lsrs	r0, r3
 80205d0:	fa0c fc02 	lsl.w	ip, ip, r2
 80205d4:	fa21 f303 	lsr.w	r3, r1, r3
 80205d8:	4091      	lsls	r1, r2
 80205da:	4301      	orrs	r1, r0
 80205dc:	ea4f 471c 	mov.w	r7, ip, lsr #16
 80205e0:	fa1f fe8c 	uxth.w	lr, ip
 80205e4:	fbb3 f0f7 	udiv	r0, r3, r7
 80205e8:	fb07 3610 	mls	r6, r7, r0, r3
 80205ec:	0c0b      	lsrs	r3, r1, #16
 80205ee:	ea43 4306 	orr.w	r3, r3, r6, lsl #16
 80205f2:	fb00 f60e 	mul.w	r6, r0, lr
 80205f6:	429e      	cmp	r6, r3
 80205f8:	fa04 f402 	lsl.w	r4, r4, r2
 80205fc:	d908      	bls.n	8020610 <__udivmoddi4+0x260>
 80205fe:	eb1c 0303 	adds.w	r3, ip, r3
 8020602:	f100 38ff 	add.w	r8, r0, #4294967295
 8020606:	d22f      	bcs.n	8020668 <__udivmoddi4+0x2b8>
 8020608:	429e      	cmp	r6, r3
 802060a:	d92d      	bls.n	8020668 <__udivmoddi4+0x2b8>
 802060c:	3802      	subs	r0, #2
 802060e:	4463      	add	r3, ip
 8020610:	1b9b      	subs	r3, r3, r6
 8020612:	b289      	uxth	r1, r1
 8020614:	fbb3 f6f7 	udiv	r6, r3, r7
 8020618:	fb07 3316 	mls	r3, r7, r6, r3
 802061c:	ea41 4103 	orr.w	r1, r1, r3, lsl #16
 8020620:	fb06 f30e 	mul.w	r3, r6, lr
 8020624:	428b      	cmp	r3, r1
 8020626:	d908      	bls.n	802063a <__udivmoddi4+0x28a>
 8020628:	eb1c 0101 	adds.w	r1, ip, r1
 802062c:	f106 38ff 	add.w	r8, r6, #4294967295
 8020630:	d216      	bcs.n	8020660 <__udivmoddi4+0x2b0>
 8020632:	428b      	cmp	r3, r1
 8020634:	d914      	bls.n	8020660 <__udivmoddi4+0x2b0>
 8020636:	3e02      	subs	r6, #2
 8020638:	4461      	add	r1, ip
 802063a:	1ac9      	subs	r1, r1, r3
 802063c:	ea46 4600 	orr.w	r6, r6, r0, lsl #16
 8020640:	e738      	b.n	80204b4 <__udivmoddi4+0x104>
 8020642:	462e      	mov	r6, r5
 8020644:	4628      	mov	r0, r5
 8020646:	e705      	b.n	8020454 <__udivmoddi4+0xa4>
 8020648:	4606      	mov	r6, r0
 802064a:	e6e3      	b.n	8020414 <__udivmoddi4+0x64>
 802064c:	4618      	mov	r0, r3
 802064e:	e6f8      	b.n	8020442 <__udivmoddi4+0x92>
 8020650:	454b      	cmp	r3, r9
 8020652:	d2a9      	bcs.n	80205a8 <__udivmoddi4+0x1f8>
 8020654:	ebb9 0802 	subs.w	r8, r9, r2
 8020658:	eb64 0e0c 	sbc.w	lr, r4, ip
 802065c:	3801      	subs	r0, #1
 802065e:	e7a3      	b.n	80205a8 <__udivmoddi4+0x1f8>
 8020660:	4646      	mov	r6, r8
 8020662:	e7ea      	b.n	802063a <__udivmoddi4+0x28a>
 8020664:	4620      	mov	r0, r4
 8020666:	e794      	b.n	8020592 <__udivmoddi4+0x1e2>
 8020668:	4640      	mov	r0, r8
 802066a:	e7d1      	b.n	8020610 <__udivmoddi4+0x260>
 802066c:	46d0      	mov	r8, sl
 802066e:	e77b      	b.n	8020568 <__udivmoddi4+0x1b8>
 8020670:	3b02      	subs	r3, #2
 8020672:	4461      	add	r1, ip
 8020674:	e732      	b.n	80204dc <__udivmoddi4+0x12c>
 8020676:	4630      	mov	r0, r6
 8020678:	e709      	b.n	802048e <__udivmoddi4+0xde>
 802067a:	4464      	add	r4, ip
 802067c:	3802      	subs	r0, #2
 802067e:	e742      	b.n	8020506 <__udivmoddi4+0x156>

08020680 <__aeabi_idiv0>:
 8020680:	4770      	bx	lr
 8020682:	bf00      	nop

08020684 <Brr_SetEmergency>:
 8020684:	b513      	push	{r0, r1, r4, lr}
 8020686:	1e04      	subs	r4, r0, #0
 8020688:	4b0a      	ldr	r3, [pc, #40]	; (80206b4 <Brr_SetEmergency+0x30>)
 802068a:	bf14      	ite	ne
 802068c:	2178      	movne	r1, #120	; 0x78
 802068e:	2179      	moveq	r1, #121	; 0x79
 8020690:	701c      	strb	r4, [r3, #0]
 8020692:	9101      	str	r1, [sp, #4]
 8020694:	f003 faee 	bl	8023c74 <Brr_SetEmergency_P>
 8020698:	4620      	mov	r0, r4
 802069a:	f003 fafb 	bl	8023c94 <Brr_SetEmergency_S>
 802069e:	9901      	ldr	r1, [sp, #4]
 80206a0:	4805      	ldr	r0, [pc, #20]	; (80206b8 <Brr_SetEmergency+0x34>)
 80206a2:	f005 fc61 	bl	8025f68 <printf_>
 80206a6:	2164      	movs	r1, #100	; 0x64
 80206a8:	4804      	ldr	r0, [pc, #16]	; (80206bc <Brr_SetEmergency+0x38>)
 80206aa:	b002      	add	sp, #8
 80206ac:	e8bd 4010 	ldmia.w	sp!, {r4, lr}
 80206b0:	f005 bfd0 	b.w	8026654 <mstimeout>
 80206b4:	24000152 	.word	0x24000152
 80206b8:	0802af68 	.word	0x0802af68
 80206bc:	240000dc 	.word	0x240000dc

080206c0 <Brr_OpenBarrier>:
 80206c0:	2801      	cmp	r0, #1
 80206c2:	b538      	push	{r3, r4, r5, lr}
 80206c4:	d013      	beq.n	80206ee <Brr_OpenBarrier+0x2e>
 80206c6:	2802      	cmp	r0, #2
 80206c8:	d105      	bne.n	80206d6 <Brr_OpenBarrier+0x16>
 80206ca:	2000      	movs	r0, #0
 80206cc:	f003 fb12 	bl	8023cf4 <Brr_ControlBarrier_P>
 80206d0:	2000      	movs	r0, #0
 80206d2:	f003 fb31 	bl	8023d38 <Brr_ControlBarrier_S>
 80206d6:	4d08      	ldr	r5, [pc, #32]	; (80206f8 <Brr_OpenBarrier+0x38>)
 80206d8:	682c      	ldr	r4, [r5, #0]
 80206da:	b93c      	cbnz	r4, 80206ec <Brr_OpenBarrier+0x2c>
 80206dc:	217c      	movs	r1, #124	; 0x7c
 80206de:	4807      	ldr	r0, [pc, #28]	; (80206fc <Brr_OpenBarrier+0x3c>)
 80206e0:	f005 fc42 	bl	8025f68 <printf_>
 80206e4:	2301      	movs	r3, #1
 80206e6:	602b      	str	r3, [r5, #0]
 80206e8:	4b05      	ldr	r3, [pc, #20]	; (8020700 <Brr_OpenBarrier+0x40>)
 80206ea:	601c      	str	r4, [r3, #0]
 80206ec:	bd38      	pop	{r3, r4, r5, pc}
 80206ee:	2002      	movs	r0, #2
 80206f0:	f003 fb00 	bl	8023cf4 <Brr_ControlBarrier_P>
 80206f4:	2002      	movs	r0, #2
 80206f6:	e7ec      	b.n	80206d2 <Brr_OpenBarrier+0x12>
 80206f8:	240000cc 	.word	0x240000cc
 80206fc:	0802af68 	.word	0x0802af68
 8020700:	240000c8 	.word	0x240000c8

08020704 <Brr_CloseBarrier>:
 8020704:	b538      	push	{r3, r4, r5, lr}
 8020706:	2001      	movs	r0, #1
 8020708:	4c08      	ldr	r4, [pc, #32]	; (802072c <Brr_CloseBarrier+0x28>)
 802070a:	f003 faf3 	bl	8023cf4 <Brr_ControlBarrier_P>
 802070e:	2001      	movs	r0, #1
 8020710:	f003 fb12 	bl	8023d38 <Brr_ControlBarrier_S>
 8020714:	6825      	ldr	r5, [r4, #0]
 8020716:	b93d      	cbnz	r5, 8020728 <Brr_CloseBarrier+0x24>
 8020718:	217d      	movs	r1, #125	; 0x7d
 802071a:	4805      	ldr	r0, [pc, #20]	; (8020730 <Brr_CloseBarrier+0x2c>)
 802071c:	f005 fc24 	bl	8025f68 <printf_>
 8020720:	4b04      	ldr	r3, [pc, #16]	; (8020734 <Brr_CloseBarrier+0x30>)
 8020722:	601d      	str	r5, [r3, #0]
 8020724:	2301      	movs	r3, #1
 8020726:	6023      	str	r3, [r4, #0]
 8020728:	bd38      	pop	{r3, r4, r5, pc}
 802072a:	bf00      	nop
 802072c:	240000c8 	.word	0x240000c8
 8020730:	0802af68 	.word	0x0802af68
 8020734:	240000cc 	.word	0x240000cc

08020738 <Brr_StopBarrier>:
 8020738:	b513      	push	{r0, r1, r4, lr}
 802073a:	1e04      	subs	r4, r0, #0
 802073c:	bf14      	ite	ne
 802073e:	217e      	movne	r1, #126	; 0x7e
 8020740:	217f      	moveq	r1, #127	; 0x7f
 8020742:	9101      	str	r1, [sp, #4]
 8020744:	f003 fab6 	bl	8023cb4 <Brr_SetBreak_P>
 8020748:	4620      	mov	r0, r4
 802074a:	f003 fac3 	bl	8023cd4 <Brr_SetBreak_S>
 802074e:	9901      	ldr	r1, [sp, #4]
 8020750:	4802      	ldr	r0, [pc, #8]	; (802075c <Brr_StopBarrier+0x24>)
 8020752:	b002      	add	sp, #8
 8020754:	e8bd 4010 	ldmia.w	sp!, {r4, lr}
 8020758:	f005 bc06 	b.w	8025f68 <printf_>
 802075c:	0802af68 	.word	0x0802af68

08020760 <Brr_Res_Status>:
 8020760:	b138      	cbz	r0, 8020772 <Brr_Res_Status+0x12>
 8020762:	4a05      	ldr	r2, [pc, #20]	; (8020778 <Brr_Res_Status+0x18>)
 8020764:	4b05      	ldr	r3, [pc, #20]	; (802077c <Brr_Res_Status+0x1c>)
 8020766:	f8d2 0003 	ldr.w	r0, [r2, #3]
 802076a:	f8d2 1007 	ldr.w	r1, [r2, #7]
 802076e:	c303      	stmia	r3!, {r0, r1}
 8020770:	4770      	bx	lr
 8020772:	4a03      	ldr	r2, [pc, #12]	; (8020780 <Brr_Res_Status+0x20>)
 8020774:	4b03      	ldr	r3, [pc, #12]	; (8020784 <Brr_Res_Status+0x24>)
 8020776:	e7f6      	b.n	8020766 <Brr_Res_Status+0x6>
 8020778:	240000fd 	.word	0x240000fd
 802077c:	24000434 	.word	0x24000434
 8020780:	24000110 	.word	0x24000110
 8020784:	24000440 	.word	0x24000440

08020788 <CheckProtocol_UART4>:
 8020788:	b573      	push	{r0, r1, r4, r5, r6, lr}
 802078a:	4c32      	ldr	r4, [pc, #200]	; (8020854 <CheckProtocol_UART4+0xcc>)
 802078c:	4d32      	ldr	r5, [pc, #200]	; (8020858 <CheckProtocol_UART4+0xd0>)
 802078e:	4e33      	ldr	r6, [pc, #204]	; (802085c <CheckProtocol_UART4+0xd4>)
 8020790:	f10d 0107 	add.w	r1, sp, #7
 8020794:	2003      	movs	r0, #3
 8020796:	f003 fc7b 	bl	8024090 <IUart_RecvByte_check>
 802079a:	b910      	cbnz	r0, 80207a2 <CheckProtocol_UART4+0x1a>
 802079c:	f04f 30ff 	mov.w	r0, #4294967295
 80207a0:	e025      	b.n	80207ee <CheckProtocol_UART4+0x66>
 80207a2:	f89d 3007 	ldrb.w	r3, [sp, #7]
 80207a6:	2baa      	cmp	r3, #170	; 0xaa
 80207a8:	d108      	bne.n	80207bc <CheckProtocol_UART4+0x34>
 80207aa:	2300      	movs	r3, #0
 80207ac:	4a2c      	ldr	r2, [pc, #176]	; (8020860 <CheckProtocol_UART4+0xd8>)
 80207ae:	6013      	str	r3, [r2, #0]
 80207b0:	4a2c      	ldr	r2, [pc, #176]	; (8020864 <CheckProtocol_UART4+0xdc>)
 80207b2:	602b      	str	r3, [r5, #0]
 80207b4:	7013      	strb	r3, [r2, #0]
 80207b6:	2305      	movs	r3, #5
 80207b8:	7023      	strb	r3, [r4, #0]
 80207ba:	e7e9      	b.n	8020790 <CheckProtocol_UART4+0x8>
 80207bc:	7822      	ldrb	r2, [r4, #0]
 80207be:	2a05      	cmp	r2, #5
 80207c0:	d017      	beq.n	80207f2 <CheckProtocol_UART4+0x6a>
 80207c2:	2a06      	cmp	r2, #6
 80207c4:	d027      	beq.n	8020816 <CheckProtocol_UART4+0x8e>
 80207c6:	2a02      	cmp	r2, #2
 80207c8:	d1e2      	bne.n	8020790 <CheckProtocol_UART4+0x8>
 80207ca:	4a26      	ldr	r2, [pc, #152]	; (8020864 <CheckProtocol_UART4+0xdc>)
 80207cc:	2000      	movs	r0, #0
 80207ce:	7812      	ldrb	r2, [r2, #0]
 80207d0:	7020      	strb	r0, [r4, #0]
 80207d2:	4293      	cmp	r3, r2
 80207d4:	4c21      	ldr	r4, [pc, #132]	; (802085c <CheckProtocol_UART4+0xd4>)
 80207d6:	d12d      	bne.n	8020834 <CheckProtocol_UART4+0xac>
 80207d8:	4b1f      	ldr	r3, [pc, #124]	; (8020858 <CheckProtocol_UART4+0xd0>)
 80207da:	78a1      	ldrb	r1, [r4, #2]
 80207dc:	681a      	ldr	r2, [r3, #0]
 80207de:	3a03      	subs	r2, #3
 80207e0:	b2d3      	uxtb	r3, r2
 80207e2:	4299      	cmp	r1, r3
 80207e4:	d003      	beq.n	80207ee <CheckProtocol_UART4+0x66>
 80207e6:	4820      	ldr	r0, [pc, #128]	; (8020868 <CheckProtocol_UART4+0xe0>)
 80207e8:	f005 fbbe 	bl	8025f68 <printf_>
 80207ec:	200a      	movs	r0, #10
 80207ee:	b002      	add	sp, #8
 80207f0:	bd70      	pop	{r4, r5, r6, pc}
 80207f2:	682a      	ldr	r2, [r5, #0]
 80207f4:	481b      	ldr	r0, [pc, #108]	; (8020864 <CheckProtocol_UART4+0xdc>)
 80207f6:	1c51      	adds	r1, r2, #1
 80207f8:	54b3      	strb	r3, [r6, r2]
 80207fa:	7802      	ldrb	r2, [r0, #0]
 80207fc:	2903      	cmp	r1, #3
 80207fe:	6029      	str	r1, [r5, #0]
 8020800:	ea82 0203 	eor.w	r2, r2, r3
 8020804:	7002      	strb	r2, [r0, #0]
 8020806:	d1c3      	bne.n	8020790 <CheckProtocol_UART4+0x8>
 8020808:	4a15      	ldr	r2, [pc, #84]	; (8020860 <CheckProtocol_UART4+0xd8>)
 802080a:	6013      	str	r3, [r2, #0]
 802080c:	b90b      	cbnz	r3, 8020812 <CheckProtocol_UART4+0x8a>
 802080e:	2302      	movs	r3, #2
 8020810:	e7d2      	b.n	80207b8 <CheckProtocol_UART4+0x30>
 8020812:	2306      	movs	r3, #6
 8020814:	e7d0      	b.n	80207b8 <CheckProtocol_UART4+0x30>
 8020816:	682a      	ldr	r2, [r5, #0]
 8020818:	1c51      	adds	r1, r2, #1
 802081a:	54b3      	strb	r3, [r6, r2]
 802081c:	6029      	str	r1, [r5, #0]
 802081e:	4911      	ldr	r1, [pc, #68]	; (8020864 <CheckProtocol_UART4+0xdc>)
 8020820:	780a      	ldrb	r2, [r1, #0]
 8020822:	4053      	eors	r3, r2
 8020824:	4a0e      	ldr	r2, [pc, #56]	; (8020860 <CheckProtocol_UART4+0xd8>)
 8020826:	700b      	strb	r3, [r1, #0]
 8020828:	6813      	ldr	r3, [r2, #0]
 802082a:	3b01      	subs	r3, #1
 802082c:	6013      	str	r3, [r2, #0]
 802082e:	2b00      	cmp	r3, #0
 8020830:	d0ed      	beq.n	802080e <CheckProtocol_UART4+0x86>
 8020832:	e7ad      	b.n	8020790 <CheckProtocol_UART4+0x8>
 8020834:	7823      	ldrb	r3, [r4, #0]
 8020836:	2b06      	cmp	r3, #6
 8020838:	d009      	beq.n	802084e <CheckProtocol_UART4+0xc6>
 802083a:	78a1      	ldrb	r1, [r4, #2]
 802083c:	480b      	ldr	r0, [pc, #44]	; (802086c <CheckProtocol_UART4+0xe4>)
 802083e:	f005 fb93 	bl	8025f68 <printf_>
 8020842:	4b05      	ldr	r3, [pc, #20]	; (8020858 <CheckProtocol_UART4+0xd0>)
 8020844:	4621      	mov	r1, r4
 8020846:	480a      	ldr	r0, [pc, #40]	; (8020870 <CheckProtocol_UART4+0xe8>)
 8020848:	681a      	ldr	r2, [r3, #0]
 802084a:	f009 facd 	bl	8029de8 <Print2Hex>
 802084e:	2005      	movs	r0, #5
 8020850:	e7cd      	b.n	80207ee <CheckProtocol_UART4+0x66>
 8020852:	bf00      	nop
 8020854:	240000e8 	.word	0x240000e8
 8020858:	240000e0 	.word	0x240000e0
 802085c:	240000fd 	.word	0x240000fd
 8020860:	240000d4 	.word	0x240000d4
 8020864:	240000c4 	.word	0x240000c4
 8020868:	0802af79 	.word	0x0802af79
 802086c:	0802af93 	.word	0x0802af93
 8020870:	0802be09 	.word	0x0802be09

08020874 <CheckProtocol_UART5>:
 8020874:	b573      	push	{r0, r1, r4, r5, r6, lr}
 8020876:	4c32      	ldr	r4, [pc, #200]	; (8020940 <CheckProtocol_UART5+0xcc>)
 8020878:	4d32      	ldr	r5, [pc, #200]	; (8020944 <CheckProtocol_UART5+0xd0>)
 802087a:	4e33      	ldr	r6, [pc, #204]	; (8020948 <CheckProtocol_UART5+0xd4>)
 802087c:	f10d 0107 	add.w	r1, sp, #7
 8020880:	2004      	movs	r0, #4
 8020882:	f003 fc05 	bl	8024090 <IUart_RecvByte_check>
 8020886:	b910      	cbnz	r0, 802088e <CheckProtocol_UART5+0x1a>
 8020888:	f04f 30ff 	mov.w	r0, #4294967295
 802088c:	e025      	b.n	80208da <CheckProtocol_UART5+0x66>
 802088e:	f89d 3007 	ldrb.w	r3, [sp, #7]
 8020892:	2baa      	cmp	r3, #170	; 0xaa
 8020894:	d108      	bne.n	80208a8 <CheckProtocol_UART5+0x34>
 8020896:	2300      	movs	r3, #0
 8020898:	4a2c      	ldr	r2, [pc, #176]	; (802094c <CheckProtocol_UART5+0xd8>)
 802089a:	6013      	str	r3, [r2, #0]
 802089c:	4a2c      	ldr	r2, [pc, #176]	; (8020950 <CheckProtocol_UART5+0xdc>)
 802089e:	602b      	str	r3, [r5, #0]
 80208a0:	7013      	strb	r3, [r2, #0]
 80208a2:	2305      	movs	r3, #5
 80208a4:	7023      	strb	r3, [r4, #0]
 80208a6:	e7e9      	b.n	802087c <CheckProtocol_UART5+0x8>
 80208a8:	7822      	ldrb	r2, [r4, #0]
 80208aa:	2a05      	cmp	r2, #5
 80208ac:	d017      	beq.n	80208de <CheckProtocol_UART5+0x6a>
 80208ae:	2a06      	cmp	r2, #6
 80208b0:	d027      	beq.n	8020902 <CheckProtocol_UART5+0x8e>
 80208b2:	2a02      	cmp	r2, #2
 80208b4:	d1e2      	bne.n	802087c <CheckProtocol_UART5+0x8>
 80208b6:	4a26      	ldr	r2, [pc, #152]	; (8020950 <CheckProtocol_UART5+0xdc>)
 80208b8:	2000      	movs	r0, #0
 80208ba:	7812      	ldrb	r2, [r2, #0]
 80208bc:	7020      	strb	r0, [r4, #0]
 80208be:	4293      	cmp	r3, r2
 80208c0:	4c21      	ldr	r4, [pc, #132]	; (8020948 <CheckProtocol_UART5+0xd4>)
 80208c2:	d12d      	bne.n	8020920 <CheckProtocol_UART5+0xac>
 80208c4:	4b1f      	ldr	r3, [pc, #124]	; (8020944 <CheckProtocol_UART5+0xd0>)
 80208c6:	78a1      	ldrb	r1, [r4, #2]
 80208c8:	681a      	ldr	r2, [r3, #0]
 80208ca:	3a03      	subs	r2, #3
 80208cc:	b2d3      	uxtb	r3, r2
 80208ce:	4299      	cmp	r1, r3
 80208d0:	d003      	beq.n	80208da <CheckProtocol_UART5+0x66>
 80208d2:	4820      	ldr	r0, [pc, #128]	; (8020954 <CheckProtocol_UART5+0xe0>)
 80208d4:	f005 fb48 	bl	8025f68 <printf_>
 80208d8:	200a      	movs	r0, #10
 80208da:	b002      	add	sp, #8
 80208dc:	bd70      	pop	{r4, r5, r6, pc}
 80208de:	682a      	ldr	r2, [r5, #0]
 80208e0:	481b      	ldr	r0, [pc, #108]	; (8020950 <CheckProtocol_UART5+0xdc>)
 80208e2:	1c51      	adds	r1, r2, #1
 80208e4:	54b3      	strb	r3, [r6, r2]
 80208e6:	7802      	ldrb	r2, [r0, #0]
 80208e8:	2903      	cmp	r1, #3
 80208ea:	6029      	str	r1, [r5, #0]
 80208ec:	ea82 0203 	eor.w	r2, r2, r3
 80208f0:	7002      	strb	r2, [r0, #0]
 80208f2:	d1c3      	bne.n	802087c <CheckProtocol_UART5+0x8>
 80208f4:	4a15      	ldr	r2, [pc, #84]	; (802094c <CheckProtocol_UART5+0xd8>)
 80208f6:	6013      	str	r3, [r2, #0]
 80208f8:	b90b      	cbnz	r3, 80208fe <CheckProtocol_UART5+0x8a>
 80208fa:	2302      	movs	r3, #2
 80208fc:	e7d2      	b.n	80208a4 <CheckProtocol_UART5+0x30>
 80208fe:	2306      	movs	r3, #6
 8020900:	e7d0      	b.n	80208a4 <CheckProtocol_UART5+0x30>
 8020902:	682a      	ldr	r2, [r5, #0]
 8020904:	1c51      	adds	r1, r2, #1
 8020906:	54b3      	strb	r3, [r6, r2]
 8020908:	6029      	str	r1, [r5, #0]
 802090a:	4911      	ldr	r1, [pc, #68]	; (8020950 <CheckProtocol_UART5+0xdc>)
 802090c:	780a      	ldrb	r2, [r1, #0]
 802090e:	4053      	eors	r3, r2
 8020910:	4a0e      	ldr	r2, [pc, #56]	; (802094c <CheckProtocol_UART5+0xd8>)
 8020912:	700b      	strb	r3, [r1, #0]
 8020914:	6813      	ldr	r3, [r2, #0]
 8020916:	3b01      	subs	r3, #1
 8020918:	6013      	str	r3, [r2, #0]
 802091a:	2b00      	cmp	r3, #0
 802091c:	d0ed      	beq.n	80208fa <CheckProtocol_UART5+0x86>
 802091e:	e7ad      	b.n	802087c <CheckProtocol_UART5+0x8>
 8020920:	7823      	ldrb	r3, [r4, #0]
 8020922:	2b06      	cmp	r3, #6
 8020924:	d009      	beq.n	802093a <CheckProtocol_UART5+0xc6>
 8020926:	78a1      	ldrb	r1, [r4, #2]
 8020928:	480b      	ldr	r0, [pc, #44]	; (8020958 <CheckProtocol_UART5+0xe4>)
 802092a:	f005 fb1d 	bl	8025f68 <printf_>
 802092e:	4b05      	ldr	r3, [pc, #20]	; (8020944 <CheckProtocol_UART5+0xd0>)
 8020930:	4621      	mov	r1, r4
 8020932:	480a      	ldr	r0, [pc, #40]	; (802095c <CheckProtocol_UART5+0xe8>)
 8020934:	681a      	ldr	r2, [r3, #0]
 8020936:	f009 fa57 	bl	8029de8 <Print2Hex>
 802093a:	2005      	movs	r0, #5
 802093c:	e7cd      	b.n	80208da <CheckProtocol_UART5+0x66>
 802093e:	bf00      	nop
 8020940:	240000e9 	.word	0x240000e9
 8020944:	240000e4 	.word	0x240000e4
 8020948:	24000110 	.word	0x24000110
 802094c:	240000d8 	.word	0x240000d8
 8020950:	240000c5 	.word	0x240000c5
 8020954:	0802afc2 	.word	0x0802afc2
 8020958:	0802afdc 	.word	0x0802afdc
 802095c:	0802be09 	.word	0x0802be09

08020960 <ProcessCommand_Barrier>:
 8020960:	b508      	push	{r3, lr}
 8020962:	b138      	cbz	r0, 8020974 <ProcessCommand_Barrier+0x14>
 8020964:	4b04      	ldr	r3, [pc, #16]	; (8020978 <ProcessCommand_Barrier+0x18>)
 8020966:	781b      	ldrb	r3, [r3, #0]
 8020968:	2b92      	cmp	r3, #146	; 0x92
 802096a:	d101      	bne.n	8020970 <ProcessCommand_Barrier+0x10>
 802096c:	f7ff fef8 	bl	8020760 <Brr_Res_Status>
 8020970:	2000      	movs	r0, #0
 8020972:	bd08      	pop	{r3, pc}
 8020974:	4b01      	ldr	r3, [pc, #4]	; (802097c <ProcessCommand_Barrier+0x1c>)
 8020976:	e7f6      	b.n	8020966 <ProcessCommand_Barrier+0x6>
 8020978:	240000fd 	.word	0x240000fd
 802097c:	24000110 	.word	0x24000110

08020980 <ProcessComm_Barrier>:
 8020980:	b508      	push	{r3, lr}
 8020982:	f7ff ff77 	bl	8020874 <CheckProtocol_UART5>
 8020986:	b928      	cbnz	r0, 8020994 <ProcessComm_Barrier+0x14>
 8020988:	f7ff ffea 	bl	8020960 <ProcessCommand_Barrier>
 802098c:	b110      	cbz	r0, 8020994 <ProcessComm_Barrier+0x14>
 802098e:	4808      	ldr	r0, [pc, #32]	; (80209b0 <ProcessComm_Barrier+0x30>)
 8020990:	f005 faea 	bl	8025f68 <printf_>
 8020994:	f7ff fef8 	bl	8020788 <CheckProtocol_UART4>
 8020998:	b940      	cbnz	r0, 80209ac <ProcessComm_Barrier+0x2c>
 802099a:	2001      	movs	r0, #1
 802099c:	f7ff ffe0 	bl	8020960 <ProcessCommand_Barrier>
 80209a0:	b120      	cbz	r0, 80209ac <ProcessComm_Barrier+0x2c>
 80209a2:	4804      	ldr	r0, [pc, #16]	; (80209b4 <ProcessComm_Barrier+0x34>)
 80209a4:	e8bd 4008 	ldmia.w	sp!, {r3, lr}
 80209a8:	f005 bade 	b.w	8025f68 <printf_>
 80209ac:	bd08      	pop	{r3, pc}
 80209ae:	bf00      	nop
 80209b0:	0802b00b 	.word	0x0802b00b
 80209b4:	0802b018 	.word	0x0802b018

080209b8 <U4_TxWait>:
 80209b8:	4b03      	ldr	r3, [pc, #12]	; (80209c8 <U4_TxWait+0x10>)
 80209ba:	6cdb      	ldr	r3, [r3, #76]	; 0x4c
 80209bc:	681a      	ldr	r2, [r3, #0]
 80209be:	69d3      	ldr	r3, [r2, #28]
 80209c0:	061b      	lsls	r3, r3, #24
 80209c2:	d5fc      	bpl.n	80209be <U4_TxWait+0x6>
 80209c4:	4770      	bx	lr
 80209c6:	bf00      	nop
 80209c8:	240004fc 	.word	0x240004fc

080209cc <U5_TxWait>:
 80209cc:	4b03      	ldr	r3, [pc, #12]	; (80209dc <U5_TxWait+0x10>)
 80209ce:	6e1b      	ldr	r3, [r3, #96]	; 0x60
 80209d0:	681a      	ldr	r2, [r3, #0]
 80209d2:	69d3      	ldr	r3, [r2, #28]
 80209d4:	061b      	lsls	r3, r3, #24
 80209d6:	d5fc      	bpl.n	80209d2 <U5_TxWait+0x6>
 80209d8:	4770      	bx	lr
 80209da:	bf00      	nop
 80209dc:	240004fc 	.word	0x240004fc

080209e0 <WaitTX>:
 80209e0:	b508      	push	{r3, lr}
 80209e2:	f7ff fff3 	bl	80209cc <U5_TxWait>
 80209e6:	e8bd 4008 	ldmia.w	sp!, {r3, lr}
 80209ea:	f7ff bfe5 	b.w	80209b8 <U4_TxWait>

080209ee <U4_Putch>:
 80209ee:	4601      	mov	r1, r0
 80209f0:	2003      	movs	r0, #3
 80209f2:	f003 bb05 	b.w	8024000 <IUart_SendByte>

080209f6 <U5_Putch>:
 80209f6:	4601      	mov	r1, r0
 80209f8:	2004      	movs	r0, #4
 80209fa:	f003 bb01 	b.w	8024000 <IUart_SendByte>

080209fe <SendSTX>:
 80209fe:	b508      	push	{r3, lr}
 8020a00:	20aa      	movs	r0, #170	; 0xaa
 8020a02:	f7ff ffed 	bl	80209e0 <WaitTX>
 8020a06:	f7ff fff6 	bl	80209f6 <U5_Putch>
 8020a0a:	20aa      	movs	r0, #170	; 0xaa
 8020a0c:	e8bd 4008 	ldmia.w	sp!, {r3, lr}
 8020a10:	f7ff bfed 	b.w	80209ee <U4_Putch>

08020a14 <SendBCC>:
 8020a14:	b510      	push	{r4, lr}
 8020a16:	4604      	mov	r4, r0
 8020a18:	f7ff ffe2 	bl	80209e0 <WaitTX>
 8020a1c:	f7ff ffeb 	bl	80209f6 <U5_Putch>
 8020a20:	4620      	mov	r0, r4
 8020a22:	e8bd 4010 	ldmia.w	sp!, {r4, lr}
 8020a26:	f7ff bfe2 	b.w	80209ee <U4_Putch>
	...

08020a2c <SendData>:
 8020a2c:	b570      	push	{r4, r5, r6, lr}
 8020a2e:	4c09      	ldr	r4, [pc, #36]	; (8020a54 <SendData+0x28>)
 8020a30:	2500      	movs	r5, #0
 8020a32:	78a6      	ldrb	r6, [r4, #2]
 8020a34:	f7ff ffd4 	bl	80209e0 <WaitTX>
 8020a38:	7820      	ldrb	r0, [r4, #0]
 8020a3a:	f7ff ffdc 	bl	80209f6 <U5_Putch>
 8020a3e:	7820      	ldrb	r0, [r4, #0]
 8020a40:	f7ff ffd5 	bl	80209ee <U4_Putch>
 8020a44:	3e01      	subs	r6, #1
 8020a46:	f814 3b01 	ldrb.w	r3, [r4], #1
 8020a4a:	405d      	eors	r5, r3
 8020a4c:	1cf3      	adds	r3, r6, #3
 8020a4e:	d1f1      	bne.n	8020a34 <SendData+0x8>
 8020a50:	4628      	mov	r0, r5
 8020a52:	bd70      	pop	{r4, r5, r6, pc}
 8020a54:	240000ea 	.word	0x240000ea

08020a58 <MakeRequest>:
 8020a58:	4b0c      	ldr	r3, [pc, #48]	; (8020a8c <MakeRequest+0x34>)
 8020a5a:	b570      	push	{r4, r5, r6, lr}
 8020a5c:	785c      	ldrb	r4, [r3, #1]
 8020a5e:	7018      	strb	r0, [r3, #0]
 8020a60:	2cff      	cmp	r4, #255	; 0xff
 8020a62:	709a      	strb	r2, [r3, #2]
 8020a64:	bf17      	itett	ne
 8020a66:	4d0a      	ldrne	r5, [pc, #40]	; (8020a90 <MakeRequest+0x38>)
 8020a68:	2400      	moveq	r4, #0
 8020a6a:	782c      	ldrbne	r4, [r5, #0]
 8020a6c:	1c66      	addne	r6, r4, #1
 8020a6e:	705c      	strb	r4, [r3, #1]
 8020a70:	bf18      	it	ne
 8020a72:	702e      	strbne	r6, [r5, #0]
 8020a74:	b112      	cbz	r2, 8020a7c <MakeRequest+0x24>
 8020a76:	4807      	ldr	r0, [pc, #28]	; (8020a94 <MakeRequest+0x3c>)
 8020a78:	f009 fa46 	bl	8029f08 <memcpy>
 8020a7c:	f7ff ffbf 	bl	80209fe <SendSTX>
 8020a80:	f7ff ffd4 	bl	8020a2c <SendData>
 8020a84:	e8bd 4070 	ldmia.w	sp!, {r4, r5, r6, lr}
 8020a88:	f7ff bfc4 	b.w	8020a14 <SendBCC>
 8020a8c:	240000ea 	.word	0x240000ea
 8020a90:	240000d0 	.word	0x240000d0
 8020a94:	240000ed 	.word	0x240000ed

08020a98 <Brr_Inq_Status>:
 8020a98:	2200      	movs	r2, #0
 8020a9a:	2092      	movs	r0, #146	; 0x92
 8020a9c:	4611      	mov	r1, r2
 8020a9e:	f7ff bfdb 	b.w	8020a58 <MakeRequest>
	...

08020aa4 <SetDefaultOpMode>:
 8020aa4:	4b05      	ldr	r3, [pc, #20]	; (8020abc <SetDefaultOpMode+0x18>)
 8020aa6:	2200      	movs	r2, #0
 8020aa8:	701a      	strb	r2, [r3, #0]
 8020aaa:	705a      	strb	r2, [r3, #1]
 8020aac:	709a      	strb	r2, [r3, #2]
 8020aae:	2201      	movs	r2, #1
 8020ab0:	70da      	strb	r2, [r3, #3]
 8020ab2:	f04f 7280 	mov.w	r2, #16777216	; 0x1000000
 8020ab6:	4b02      	ldr	r3, [pc, #8]	; (8020ac0 <SetDefaultOpMode+0x1c>)
 8020ab8:	601a      	str	r2, [r3, #0]
 8020aba:	4770      	bx	lr
 8020abc:	24000404 	.word	0x24000404
 8020ac0:	2400043c 	.word	0x2400043c

08020ac4 <SetDefaultParameter>:
 8020ac4:	4b09      	ldr	r3, [pc, #36]	; (8020aec <SetDefaultParameter+0x28>)
 8020ac6:	2214      	movs	r2, #20
 8020ac8:	210a      	movs	r1, #10
 8020aca:	701a      	strb	r2, [r3, #0]
 8020acc:	222d      	movs	r2, #45	; 0x2d
 8020ace:	7119      	strb	r1, [r3, #4]
 8020ad0:	2100      	movs	r1, #0
 8020ad2:	705a      	strb	r2, [r3, #1]
 8020ad4:	22b4      	movs	r2, #180	; 0xb4
 8020ad6:	7159      	strb	r1, [r3, #5]
 8020ad8:	709a      	strb	r2, [r3, #2]
 8020ada:	2205      	movs	r2, #5
 8020adc:	70da      	strb	r2, [r3, #3]
 8020ade:	4b04      	ldr	r3, [pc, #16]	; (8020af0 <SetDefaultParameter+0x2c>)
 8020ae0:	601a      	str	r2, [r3, #0]
 8020ae2:	2296      	movs	r2, #150	; 0x96
 8020ae4:	4b03      	ldr	r3, [pc, #12]	; (8020af4 <SetDefaultParameter+0x30>)
 8020ae6:	601a      	str	r2, [r3, #0]
 8020ae8:	4770      	bx	lr
 8020aea:	bf00      	nop
 8020aec:	24000408 	.word	0x24000408
 8020af0:	24000148 	.word	0x24000148
 8020af4:	24000144 	.word	0x24000144

08020af8 <SetDefaultStatus>:
 8020af8:	4b06      	ldr	r3, [pc, #24]	; (8020b14 <SetDefaultStatus+0x1c>)
 8020afa:	2200      	movs	r2, #0
 8020afc:	2106      	movs	r1, #6
 8020afe:	711a      	strb	r2, [r3, #4]
 8020b00:	721a      	strb	r2, [r3, #8]
 8020b02:	715a      	strb	r2, [r3, #5]
 8020b04:	731a      	strb	r2, [r3, #12]
 8020b06:	7499      	strb	r1, [r3, #18]
 8020b08:	755a      	strb	r2, [r3, #21]
 8020b0a:	4a03      	ldr	r2, [pc, #12]	; (8020b18 <SetDefaultStatus+0x20>)
 8020b0c:	7812      	ldrb	r2, [r2, #0]
 8020b0e:	b2d2      	uxtb	r2, r2
 8020b10:	745a      	strb	r2, [r3, #17]
 8020b12:	4770      	bx	lr
 8020b14:	24000410 	.word	0x24000410
 8020b18:	60000300 	.word	0x60000300

08020b1c <ApplyStatusMode>:
 8020b1c:	4909      	ldr	r1, [pc, #36]	; (8020b44 <ApplyStatusMode+0x28>)
 8020b1e:	784b      	ldrb	r3, [r1, #1]
 8020b20:	780a      	ldrb	r2, [r1, #0]
 8020b22:	009b      	lsls	r3, r3, #2
 8020b24:	f002 0203 	and.w	r2, r2, #3
 8020b28:	f003 030c 	and.w	r3, r3, #12
 8020b2c:	4313      	orrs	r3, r2
 8020b2e:	788a      	ldrb	r2, [r1, #2]
 8020b30:	0112      	lsls	r2, r2, #4
 8020b32:	f002 0230 	and.w	r2, r2, #48	; 0x30
 8020b36:	4313      	orrs	r3, r2
 8020b38:	78ca      	ldrb	r2, [r1, #3]
 8020b3a:	ea43 13c2 	orr.w	r3, r3, r2, lsl #7
 8020b3e:	4a02      	ldr	r2, [pc, #8]	; (8020b48 <ApplyStatusMode+0x2c>)
 8020b40:	7013      	strb	r3, [r2, #0]
 8020b42:	4770      	bx	lr
 8020b44:	24000404 	.word	0x24000404
 8020b48:	24000410 	.word	0x24000410

08020b4c <SetNewOpMode>:
 8020b4c:	b510      	push	{r4, lr}
 8020b4e:	4604      	mov	r4, r0
 8020b50:	7883      	ldrb	r3, [r0, #2]
 8020b52:	7802      	ldrb	r2, [r0, #0]
 8020b54:	7841      	ldrb	r1, [r0, #1]
 8020b56:	4813      	ldr	r0, [pc, #76]	; (8020ba4 <SetNewOpMode+0x58>)
 8020b58:	f005 fa06 	bl	8025f68 <printf_>
 8020b5c:	7823      	ldrb	r3, [r4, #0]
 8020b5e:	4a12      	ldr	r2, [pc, #72]	; (8020ba8 <SetNewOpMode+0x5c>)
 8020b60:	2b02      	cmp	r3, #2
 8020b62:	bf82      	ittt	hi
 8020b64:	4b11      	ldrhi	r3, [pc, #68]	; (8020bac <SetNewOpMode+0x60>)
 8020b66:	781b      	ldrbhi	r3, [r3, #0]
 8020b68:	7023      	strbhi	r3, [r4, #0]
 8020b6a:	7863      	ldrb	r3, [r4, #1]
 8020b6c:	2b02      	cmp	r3, #2
 8020b6e:	bf82      	ittt	hi
 8020b70:	4b0e      	ldrhi	r3, [pc, #56]	; (8020bac <SetNewOpMode+0x60>)
 8020b72:	785b      	ldrbhi	r3, [r3, #1]
 8020b74:	7063      	strbhi	r3, [r4, #1]
 8020b76:	78e3      	ldrb	r3, [r4, #3]
 8020b78:	2b01      	cmp	r3, #1
 8020b7a:	bf82      	ittt	hi
 8020b7c:	4b0b      	ldrhi	r3, [pc, #44]	; (8020bac <SetNewOpMode+0x60>)
 8020b7e:	78db      	ldrbhi	r3, [r3, #3]
 8020b80:	70e3      	strbhi	r3, [r4, #3]
 8020b82:	6823      	ldr	r3, [r4, #0]
 8020b84:	4c0a      	ldr	r4, [pc, #40]	; (8020bb0 <SetNewOpMode+0x64>)
 8020b86:	f413 0f7f 	tst.w	r3, #16711680	; 0xff0000
 8020b8a:	6013      	str	r3, [r2, #0]
 8020b8c:	d008      	beq.n	8020ba0 <SetNewOpMode+0x54>
 8020b8e:	4a07      	ldr	r2, [pc, #28]	; (8020bac <SetNewOpMode+0x60>)
 8020b90:	6013      	str	r3, [r2, #0]
 8020b92:	f7ff ffc3 	bl	8020b1c <ApplyStatusMode>
 8020b96:	f001 fbad 	bl	80222f4 <InitPassageModeForSwing>
 8020b9a:	2300      	movs	r3, #0
 8020b9c:	7023      	strb	r3, [r4, #0]
 8020b9e:	bd10      	pop	{r4, pc}
 8020ba0:	2301      	movs	r3, #1
 8020ba2:	e7fb      	b.n	8020b9c <SetNewOpMode+0x50>
 8020ba4:	0802b025 	.word	0x0802b025
 8020ba8:	2400043c 	.word	0x2400043c
 8020bac:	24000404 	.word	0x24000404
 8020bb0:	24000150 	.word	0x24000150

08020bb4 <CheckModeChange>:
 8020bb4:	b5f8      	push	{r3, r4, r5, r6, r7, lr}
 8020bb6:	4e10      	ldr	r6, [pc, #64]	; (8020bf8 <CheckModeChange+0x44>)
 8020bb8:	7833      	ldrb	r3, [r6, #0]
 8020bba:	b1db      	cbz	r3, 8020bf4 <CheckModeChange+0x40>
 8020bbc:	4b0f      	ldr	r3, [pc, #60]	; (8020bfc <CheckModeChange+0x48>)
 8020bbe:	791a      	ldrb	r2, [r3, #4]
 8020bc0:	b9c2      	cbnz	r2, 8020bf4 <CheckModeChange+0x40>
 8020bc2:	795b      	ldrb	r3, [r3, #5]
 8020bc4:	f003 07ff 	and.w	r7, r3, #255	; 0xff
 8020bc8:	b9a3      	cbnz	r3, 8020bf4 <CheckModeChange+0x40>
 8020bca:	4c0d      	ldr	r4, [pc, #52]	; (8020c00 <CheckModeChange+0x4c>)
 8020bcc:	4d0d      	ldr	r5, [pc, #52]	; (8020c04 <CheckModeChange+0x50>)
 8020bce:	7822      	ldrb	r2, [r4, #0]
 8020bd0:	7861      	ldrb	r1, [r4, #1]
 8020bd2:	480d      	ldr	r0, [pc, #52]	; (8020c08 <CheckModeChange+0x54>)
 8020bd4:	f005 f9c8 	bl	8025f68 <printf_>
 8020bd8:	782a      	ldrb	r2, [r5, #0]
 8020bda:	7869      	ldrb	r1, [r5, #1]
 8020bdc:	480b      	ldr	r0, [pc, #44]	; (8020c0c <CheckModeChange+0x58>)
 8020bde:	f005 f9c3 	bl	8025f68 <printf_>
 8020be2:	682b      	ldr	r3, [r5, #0]
 8020be4:	7037      	strb	r7, [r6, #0]
 8020be6:	6023      	str	r3, [r4, #0]
 8020be8:	f7ff ff98 	bl	8020b1c <ApplyStatusMode>
 8020bec:	e8bd 40f8 	ldmia.w	sp!, {r3, r4, r5, r6, r7, lr}
 8020bf0:	f001 bb80 	b.w	80222f4 <InitPassageModeForSwing>
 8020bf4:	bdf8      	pop	{r3, r4, r5, r6, r7, pc}
 8020bf6:	bf00      	nop
 8020bf8:	24000150 	.word	0x24000150
 8020bfc:	24000410 	.word	0x24000410
 8020c00:	24000404 	.word	0x24000404
 8020c04:	2400043c 	.word	0x2400043c
 8020c08:	0802b058 	.word	0x0802b058
 8020c0c:	0802b086 	.word	0x0802b086

08020c10 <GetCurrentOpMode>:
 8020c10:	4b01      	ldr	r3, [pc, #4]	; (8020c18 <GetCurrentOpMode+0x8>)
 8020c12:	681b      	ldr	r3, [r3, #0]
 8020c14:	6003      	str	r3, [r0, #0]
 8020c16:	4770      	bx	lr
 8020c18:	24000404 	.word	0x24000404

08020c1c <SetGCUParameter>:
 8020c1c:	b513      	push	{r0, r1, r4, lr}
 8020c1e:	7943      	ldrb	r3, [r0, #5]
 8020c20:	4604      	mov	r4, r0
 8020c22:	2b01      	cmp	r3, #1
 8020c24:	4b0b      	ldr	r3, [pc, #44]	; (8020c54 <SetGCUParameter+0x38>)
 8020c26:	bf0c      	ite	eq
 8020c28:	2208      	moveq	r2, #8
 8020c2a:	2205      	movne	r2, #5
 8020c2c:	601a      	str	r2, [r3, #0]
 8020c2e:	2296      	movs	r2, #150	; 0x96
 8020c30:	4b09      	ldr	r3, [pc, #36]	; (8020c58 <SetGCUParameter+0x3c>)
 8020c32:	601a      	str	r2, [r3, #0]
 8020c34:	7903      	ldrb	r3, [r0, #4]
 8020c36:	9300      	str	r3, [sp, #0]
 8020c38:	7843      	ldrb	r3, [r0, #1]
 8020c3a:	7802      	ldrb	r2, [r0, #0]
 8020c3c:	78c1      	ldrb	r1, [r0, #3]
 8020c3e:	4807      	ldr	r0, [pc, #28]	; (8020c5c <SetGCUParameter+0x40>)
 8020c40:	f005 f992 	bl	8025f68 <printf_>
 8020c44:	6822      	ldr	r2, [r4, #0]
 8020c46:	4b06      	ldr	r3, [pc, #24]	; (8020c60 <SetGCUParameter+0x44>)
 8020c48:	601a      	str	r2, [r3, #0]
 8020c4a:	88a2      	ldrh	r2, [r4, #4]
 8020c4c:	809a      	strh	r2, [r3, #4]
 8020c4e:	b002      	add	sp, #8
 8020c50:	bd10      	pop	{r4, pc}
 8020c52:	bf00      	nop
 8020c54:	24000148 	.word	0x24000148
 8020c58:	24000144 	.word	0x24000144
 8020c5c:	0802b0b4 	.word	0x0802b0b4
 8020c60:	24000408 	.word	0x24000408

08020c64 <GetGCUParameter>:
 8020c64:	4b02      	ldr	r3, [pc, #8]	; (8020c70 <GetGCUParameter+0xc>)
 8020c66:	681a      	ldr	r2, [r3, #0]
 8020c68:	6002      	str	r2, [r0, #0]
 8020c6a:	889b      	ldrh	r3, [r3, #4]
 8020c6c:	8083      	strh	r3, [r0, #4]
 8020c6e:	4770      	bx	lr
 8020c70:	24000408 	.word	0x24000408

08020c74 <GetGCUStatus>:
 8020c74:	4a2e      	ldr	r2, [pc, #184]	; (8020d30 <GetGCUStatus+0xbc>)
 8020c76:	b570      	push	{r4, r5, r6, lr}
 8020c78:	7853      	ldrb	r3, [r2, #1]
 8020c7a:	4604      	mov	r4, r0
 8020c7c:	7810      	ldrb	r0, [r2, #0]
 8020c7e:	009b      	lsls	r3, r3, #2
 8020c80:	7891      	ldrb	r1, [r2, #2]
 8020c82:	f000 0003 	and.w	r0, r0, #3
 8020c86:	78d2      	ldrb	r2, [r2, #3]
 8020c88:	f003 030c 	and.w	r3, r3, #12
 8020c8c:	4d29      	ldr	r5, [pc, #164]	; (8020d34 <GetGCUStatus+0xc0>)
 8020c8e:	4303      	orrs	r3, r0
 8020c90:	0108      	lsls	r0, r1, #4
 8020c92:	f3c1 1100 	ubfx	r1, r1, #4, #1
 8020c96:	f000 0030 	and.w	r0, r0, #48	; 0x30
 8020c9a:	4303      	orrs	r3, r0
 8020c9c:	ea43 1381 	orr.w	r3, r3, r1, lsl #6
 8020ca0:	ea43 13c2 	orr.w	r3, r3, r2, lsl #7
 8020ca4:	7023      	strb	r3, [r4, #0]
 8020ca6:	792b      	ldrb	r3, [r5, #4]
 8020ca8:	7063      	strb	r3, [r4, #1]
 8020caa:	796b      	ldrb	r3, [r5, #5]
 8020cac:	70a3      	strb	r3, [r4, #2]
 8020cae:	7a2b      	ldrb	r3, [r5, #8]
 8020cb0:	70e3      	strb	r3, [r4, #3]
 8020cb2:	7b2b      	ldrb	r3, [r5, #12]
 8020cb4:	7123      	strb	r3, [r4, #4]
 8020cb6:	7c2b      	ldrb	r3, [r5, #16]
 8020cb8:	7163      	strb	r3, [r4, #5]
 8020cba:	f004 fa0d 	bl	80250d8 <dip_sw>
 8020cbe:	f010 0f80 	tst.w	r0, #128	; 0x80
 8020cc2:	4b1d      	ldr	r3, [pc, #116]	; (8020d38 <GetGCUStatus+0xc4>)
 8020cc4:	d030      	beq.n	8020d28 <GetGCUStatus+0xb4>
 8020cc6:	7818      	ldrb	r0, [r3, #0]
 8020cc8:	f009 f8d0 	bl	8029e6c <ReverseByte>
 8020ccc:	71a0      	strb	r0, [r4, #6]
 8020cce:	7cab      	ldrb	r3, [r5, #18]
 8020cd0:	f44f 6180 	mov.w	r1, #1024	; 0x400
 8020cd4:	4819      	ldr	r0, [pc, #100]	; (8020d3c <GetGCUStatus+0xc8>)
 8020cd6:	71e3      	strb	r3, [r4, #7]
 8020cd8:	7ceb      	ldrb	r3, [r5, #19]
 8020cda:	7223      	strb	r3, [r4, #8]
 8020cdc:	7d2b      	ldrb	r3, [r5, #20]
 8020cde:	7263      	strb	r3, [r4, #9]
 8020ce0:	7d6b      	ldrb	r3, [r5, #21]
 8020ce2:	72a3      	strb	r3, [r4, #10]
 8020ce4:	f006 f860 	bl	8026da8 <HAL_GPIO_ReadPin>
 8020ce8:	1e06      	subs	r6, r0, #0
 8020cea:	f44f 6100 	mov.w	r1, #2048	; 0x800
 8020cee:	4813      	ldr	r0, [pc, #76]	; (8020d3c <GetGCUStatus+0xc8>)
 8020cf0:	bf18      	it	ne
 8020cf2:	2601      	movne	r6, #1
 8020cf4:	f006 f858 	bl	8026da8 <HAL_GPIO_ReadPin>
 8020cf8:	f04f 42c0 	mov.w	r2, #1610612736	; 0x60000000
 8020cfc:	2800      	cmp	r0, #0
 8020cfe:	7812      	ldrb	r2, [r2, #0]
 8020d00:	bf14      	ite	ne
 8020d02:	2302      	movne	r3, #2
 8020d04:	2300      	moveq	r3, #0
 8020d06:	72e2      	strb	r2, [r4, #11]
 8020d08:	4a0d      	ldr	r2, [pc, #52]	; (8020d40 <GetGCUStatus+0xcc>)
 8020d0a:	ea43 0006 	orr.w	r0, r3, r6
 8020d0e:	7812      	ldrb	r2, [r2, #0]
 8020d10:	7360      	strb	r0, [r4, #13]
 8020d12:	7322      	strb	r2, [r4, #12]
 8020d14:	7f2b      	ldrb	r3, [r5, #28]
 8020d16:	73a3      	strb	r3, [r4, #14]
 8020d18:	4b0a      	ldr	r3, [pc, #40]	; (8020d44 <GetGCUStatus+0xd0>)
 8020d1a:	691b      	ldr	r3, [r3, #16]
 8020d1c:	43db      	mvns	r3, r3
 8020d1e:	73e3      	strb	r3, [r4, #15]
 8020d20:	f895 3020 	ldrb.w	r3, [r5, #32]
 8020d24:	7463      	strb	r3, [r4, #17]
 8020d26:	bd70      	pop	{r4, r5, r6, pc}
 8020d28:	781b      	ldrb	r3, [r3, #0]
 8020d2a:	71a3      	strb	r3, [r4, #6]
 8020d2c:	e7cf      	b.n	8020cce <GetGCUStatus+0x5a>
 8020d2e:	bf00      	nop
 8020d30:	24000404 	.word	0x24000404
 8020d34:	24000410 	.word	0x24000410
 8020d38:	60000300 	.word	0x60000300
 8020d3c:	58020000 	.word	0x58020000
 8020d40:	60000100 	.word	0x60000100
 8020d44:	58020400 	.word	0x58020400

08020d48 <GetAuthCount>:
 8020d48:	4b02      	ldr	r3, [pc, #8]	; (8020d54 <GetAuthCount+0xc>)
 8020d4a:	791a      	ldrb	r2, [r3, #4]
 8020d4c:	7002      	strb	r2, [r0, #0]
 8020d4e:	795b      	ldrb	r3, [r3, #5]
 8020d50:	7043      	strb	r3, [r0, #1]
 8020d52:	4770      	bx	lr
 8020d54:	24000410 	.word	0x24000410

08020d58 <ClearAuthCount>:
 8020d58:	2300      	movs	r3, #0
 8020d5a:	480a      	ldr	r0, [pc, #40]	; (8020d84 <ClearAuthCount+0x2c>)
 8020d5c:	b510      	push	{r4, lr}
 8020d5e:	4c0a      	ldr	r4, [pc, #40]	; (8020d88 <ClearAuthCount+0x30>)
 8020d60:	7123      	strb	r3, [r4, #4]
 8020d62:	7163      	strb	r3, [r4, #5]
 8020d64:	7a23      	ldrb	r3, [r4, #8]
 8020d66:	f003 0377 	and.w	r3, r3, #119	; 0x77
 8020d6a:	7223      	strb	r3, [r4, #8]
 8020d6c:	f009 f868 	bl	8029e40 <ResetTimer>
 8020d70:	7a23      	ldrb	r3, [r4, #8]
 8020d72:	f013 0f77 	tst.w	r3, #119	; 0x77
 8020d76:	d103      	bne.n	8020d80 <ClearAuthCount+0x28>
 8020d78:	e8bd 4010 	ldmia.w	sp!, {r4, lr}
 8020d7c:	f001 baba 	b.w	80222f4 <InitPassageModeForSwing>
 8020d80:	bd10      	pop	{r4, pc}
 8020d82:	bf00      	nop
 8020d84:	24000158 	.word	0x24000158
 8020d88:	24000410 	.word	0x24000410

08020d8c <ControlBarrier>:
 8020d8c:	1e43      	subs	r3, r0, #1
 8020d8e:	b510      	push	{r4, lr}
 8020d90:	2b01      	cmp	r3, #1
 8020d92:	4c0e      	ldr	r4, [pc, #56]	; (8020dcc <ControlBarrier+0x40>)
 8020d94:	7020      	strb	r0, [r4, #0]
 8020d96:	d807      	bhi.n	8020da8 <ControlBarrier+0x1c>
 8020d98:	480d      	ldr	r0, [pc, #52]	; (8020dd0 <ControlBarrier+0x44>)
 8020d9a:	f009 f851 	bl	8029e40 <ResetTimer>
 8020d9e:	7820      	ldrb	r0, [r4, #0]
 8020da0:	e8bd 4010 	ldmia.w	sp!, {r4, lr}
 8020da4:	f001 bba0 	b.w	80224e8 <OpenBarrierForSwing>
 8020da8:	2803      	cmp	r0, #3
 8020daa:	d10d      	bne.n	8020dc8 <ControlBarrier+0x3c>
 8020dac:	4b09      	ldr	r3, [pc, #36]	; (8020dd4 <ControlBarrier+0x48>)
 8020dae:	781b      	ldrb	r3, [r3, #0]
 8020db0:	b11b      	cbz	r3, 8020dba <ControlBarrier+0x2e>
 8020db2:	e8bd 4010 	ldmia.w	sp!, {r4, lr}
 8020db6:	f001 bbd5 	b.w	8022564 <CloseBarrierForSwing>
 8020dba:	4805      	ldr	r0, [pc, #20]	; (8020dd0 <ControlBarrier+0x44>)
 8020dbc:	7803      	ldrb	r3, [r0, #0]
 8020dbe:	b91b      	cbnz	r3, 8020dc8 <ControlBarrier+0x3c>
 8020dc0:	e8bd 4010 	ldmia.w	sp!, {r4, lr}
 8020dc4:	f009 b834 	b.w	8029e30 <SetTimer>
 8020dc8:	bd10      	pop	{r4, pc}
 8020dca:	bf00      	nop
 8020dcc:	24000028 	.word	0x24000028
 8020dd0:	24000218 	.word	0x24000218
 8020dd4:	24000452 	.word	0x24000452

08020dd8 <ControlBuzzer>:
 8020dd8:	b538      	push	{r3, r4, r5, lr}
 8020dda:	460c      	mov	r4, r1
 8020ddc:	b100      	cbz	r0, 8020de0 <ControlBuzzer+0x8>
 8020dde:	b931      	cbnz	r1, 8020dee <ControlBuzzer+0x16>
 8020de0:	480b      	ldr	r0, [pc, #44]	; (8020e10 <ControlBuzzer+0x38>)
 8020de2:	f009 f82d 	bl	8029e40 <ResetTimer>
 8020de6:	e8bd 4038 	ldmia.w	sp!, {r3, r4, r5, lr}
 8020dea:	f002 bec5 	b.w	8023b78 <BuzzerOff>
 8020dee:	4d08      	ldr	r5, [pc, #32]	; (8020e10 <ControlBuzzer+0x38>)
 8020df0:	782b      	ldrb	r3, [r5, #0]
 8020df2:	b95b      	cbnz	r3, 8020e0c <ControlBuzzer+0x34>
 8020df4:	f002 feae 	bl	8023b54 <BuzzerOn>
 8020df8:	f44f 717a 	mov.w	r1, #1000	; 0x3e8
 8020dfc:	4b05      	ldr	r3, [pc, #20]	; (8020e14 <ControlBuzzer+0x3c>)
 8020dfe:	4628      	mov	r0, r5
 8020e00:	434c      	muls	r4, r1
 8020e02:	601c      	str	r4, [r3, #0]
 8020e04:	e8bd 4038 	ldmia.w	sp!, {r3, r4, r5, lr}
 8020e08:	f009 b812 	b.w	8029e30 <SetTimer>
 8020e0c:	bd38      	pop	{r3, r4, r5, pc}
 8020e0e:	bf00      	nop
 8020e10:	24000194 	.word	0x24000194
 8020e14:	24000130 	.word	0x24000130

08020e18 <ControlDirectionLED>:
 8020e18:	b538      	push	{r3, r4, r5, lr}
 8020e1a:	4d0c      	ldr	r5, [pc, #48]	; (8020e4c <ControlDirectionLED+0x34>)
 8020e1c:	4c0c      	ldr	r4, [pc, #48]	; (8020e50 <ControlDirectionLED+0x38>)
 8020e1e:	782b      	ldrb	r3, [r5, #0]
 8020e20:	4283      	cmp	r3, r0
 8020e22:	7823      	ldrb	r3, [r4, #0]
 8020e24:	bf18      	it	ne
 8020e26:	7028      	strbne	r0, [r5, #0]
 8020e28:	428b      	cmp	r3, r1
 8020e2a:	7828      	ldrb	r0, [r5, #0]
 8020e2c:	bf18      	it	ne
 8020e2e:	7021      	strbne	r1, [r4, #0]
 8020e30:	f002 feaa 	bl	8023b88 <ControlStatusLED_En>
 8020e34:	7820      	ldrb	r0, [r4, #0]
 8020e36:	f002 feb9 	bl	8023bac <ControlStatusLED_Ex>
 8020e3a:	7828      	ldrb	r0, [r5, #0]
 8020e3c:	f002 feca 	bl	8023bd4 <ControlOverHeadDisplay_En>
 8020e40:	7820      	ldrb	r0, [r4, #0]
 8020e42:	e8bd 4038 	ldmia.w	sp!, {r3, r4, r5, lr}
 8020e46:	f002 bed9 	b.w	8023bfc <ControlOverHeadDisplay_Ex>
 8020e4a:	bf00      	nop
 8020e4c:	24000129 	.word	0x24000129
 8020e50:	2400012a 	.word	0x2400012a

08020e54 <ControlStatusLED>:
 8020e54:	b510      	push	{r4, lr}
 8020e56:	460c      	mov	r4, r1
 8020e58:	f002 fe96 	bl	8023b88 <ControlStatusLED_En>
 8020e5c:	4620      	mov	r0, r4
 8020e5e:	e8bd 4010 	ldmia.w	sp!, {r4, lr}
 8020e62:	f002 bea3 	b.w	8023bac <ControlStatusLED_Ex>

08020e66 <ControlOverheadDisplay>:
 8020e66:	b510      	push	{r4, lr}
 8020e68:	460c      	mov	r4, r1
 8020e6a:	f002 feb3 	bl	8023bd4 <ControlOverHeadDisplay_En>
 8020e6e:	4620      	mov	r0, r4
 8020e70:	e8bd 4010 	ldmia.w	sp!, {r4, lr}
 8020e74:	f002 bec2 	b.w	8023bfc <ControlOverHeadDisplay_Ex>

08020e78 <ControlIndicator>:
 8020e78:	b5f8      	push	{r3, r4, r5, r6, r7, lr}
 8020e7a:	4606      	mov	r6, r0
 8020e7c:	460d      	mov	r5, r1
 8020e7e:	4614      	mov	r4, r2
 8020e80:	b94b      	cbnz	r3, 8020e96 <ControlIndicator+0x1e>
 8020e82:	4b1b      	ldr	r3, [pc, #108]	; (8020ef0 <ControlIndicator+0x78>)
 8020e84:	781a      	ldrb	r2, [r3, #0]
 8020e86:	4282      	cmp	r2, r0
 8020e88:	bf18      	it	ne
 8020e8a:	7018      	strbne	r0, [r3, #0]
 8020e8c:	4b19      	ldr	r3, [pc, #100]	; (8020ef4 <ControlIndicator+0x7c>)
 8020e8e:	781a      	ldrb	r2, [r3, #0]
 8020e90:	428a      	cmp	r2, r1
 8020e92:	bf18      	it	ne
 8020e94:	7019      	strbne	r1, [r3, #0]
 8020e96:	4f18      	ldr	r7, [pc, #96]	; (8020ef8 <ControlIndicator+0x80>)
 8020e98:	783b      	ldrb	r3, [r7, #0]
 8020e9a:	b923      	cbnz	r3, 8020ea6 <ControlIndicator+0x2e>
 8020e9c:	78bb      	ldrb	r3, [r7, #2]
 8020e9e:	2b01      	cmp	r3, #1
 8020ea0:	d001      	beq.n	8020ea6 <ControlIndicator+0x2e>
 8020ea2:	2b20      	cmp	r3, #32
 8020ea4:	d11a      	bne.n	8020edc <ControlIndicator+0x64>
 8020ea6:	4630      	mov	r0, r6
 8020ea8:	f002 febc 	bl	8023c24 <ControlIndicatorLight_En>
 8020eac:	787b      	ldrb	r3, [r7, #1]
 8020eae:	b923      	cbnz	r3, 8020eba <ControlIndicator+0x42>
 8020eb0:	78bb      	ldrb	r3, [r7, #2]
 8020eb2:	2b01      	cmp	r3, #1
 8020eb4:	d001      	beq.n	8020eba <ControlIndicator+0x42>
 8020eb6:	2b20      	cmp	r3, #32
 8020eb8:	d112      	bne.n	8020ee0 <ControlIndicator+0x68>
 8020eba:	4628      	mov	r0, r5
 8020ebc:	f002 fec6 	bl	8023c4c <ControlIndicatorLight_Ex>
 8020ec0:	b184      	cbz	r4, 8020ee4 <ControlIndicator+0x6c>
 8020ec2:	ea56 0305 	orrs.w	r3, r6, r5
 8020ec6:	d00d      	beq.n	8020ee4 <ControlIndicator+0x6c>
 8020ec8:	f44f 727a 	mov.w	r2, #1000	; 0x3e8
 8020ecc:	4b0b      	ldr	r3, [pc, #44]	; (8020efc <ControlIndicator+0x84>)
 8020ece:	480c      	ldr	r0, [pc, #48]	; (8020f00 <ControlIndicator+0x88>)
 8020ed0:	4354      	muls	r4, r2
 8020ed2:	601c      	str	r4, [r3, #0]
 8020ed4:	e8bd 40f8 	ldmia.w	sp!, {r3, r4, r5, r6, r7, lr}
 8020ed8:	f008 bfaa 	b.w	8029e30 <SetTimer>
 8020edc:	2001      	movs	r0, #1
 8020ede:	e7e3      	b.n	8020ea8 <ControlIndicator+0x30>
 8020ee0:	2001      	movs	r0, #1
 8020ee2:	e7eb      	b.n	8020ebc <ControlIndicator+0x44>
 8020ee4:	4806      	ldr	r0, [pc, #24]	; (8020f00 <ControlIndicator+0x88>)
 8020ee6:	e8bd 40f8 	ldmia.w	sp!, {r3, r4, r5, r6, r7, lr}
 8020eea:	f008 bfa9 	b.w	8029e40 <ResetTimer>
 8020eee:	bf00      	nop
 8020ef0:	24000126 	.word	0x24000126
 8020ef4:	24000127 	.word	0x24000127
 8020ef8:	24000404 	.word	0x24000404
 8020efc:	2400013c 	.word	0x2400013c
 8020f00:	240001c4 	.word	0x240001c4

08020f04 <ControlIndicator4Test>:
 8020f04:	b510      	push	{r4, lr}
 8020f06:	460c      	mov	r4, r1
 8020f08:	f002 fe8c 	bl	8023c24 <ControlIndicatorLight_En>
 8020f0c:	4620      	mov	r0, r4
 8020f0e:	e8bd 4010 	ldmia.w	sp!, {r4, lr}
 8020f12:	f002 be9b 	b.w	8023c4c <ControlIndicatorLight_Ex>
	...

08020f18 <ControlIndicatorBlink>:
 8020f18:	2801      	cmp	r0, #1
 8020f1a:	4b0f      	ldr	r3, [pc, #60]	; (8020f58 <ControlIndicatorBlink+0x40>)
 8020f1c:	b570      	push	{r4, r5, r6, lr}
 8020f1e:	4d0f      	ldr	r5, [pc, #60]	; (8020f5c <ControlIndicatorBlink+0x44>)
 8020f20:	f04f 0400 	mov.w	r4, #0
 8020f24:	d10a      	bne.n	8020f3c <ControlIndicatorBlink+0x24>
 8020f26:	7018      	strb	r0, [r3, #0]
 8020f28:	f44f 72fa 	mov.w	r2, #500	; 0x1f4
 8020f2c:	4b0c      	ldr	r3, [pc, #48]	; (8020f60 <ControlIndicatorBlink+0x48>)
 8020f2e:	702c      	strb	r4, [r5, #0]
 8020f30:	480c      	ldr	r0, [pc, #48]	; (8020f64 <ControlIndicatorBlink+0x4c>)
 8020f32:	601a      	str	r2, [r3, #0]
 8020f34:	e8bd 4070 	ldmia.w	sp!, {r4, r5, r6, lr}
 8020f38:	f008 bf7a 	b.w	8029e30 <SetTimer>
 8020f3c:	4809      	ldr	r0, [pc, #36]	; (8020f64 <ControlIndicatorBlink+0x4c>)
 8020f3e:	701c      	strb	r4, [r3, #0]
 8020f40:	f008 ff7e 	bl	8029e40 <ResetTimer>
 8020f44:	4623      	mov	r3, r4
 8020f46:	4622      	mov	r2, r4
 8020f48:	4621      	mov	r1, r4
 8020f4a:	4620      	mov	r0, r4
 8020f4c:	702c      	strb	r4, [r5, #0]
 8020f4e:	e8bd 4070 	ldmia.w	sp!, {r4, r5, r6, lr}
 8020f52:	f7ff bf91 	b.w	8020e78 <ControlIndicator>
 8020f56:	bf00      	nop
 8020f58:	24000125 	.word	0x24000125
 8020f5c:	24000128 	.word	0x24000128
 8020f60:	24000138 	.word	0x24000138
 8020f64:	24000188 	.word	0x24000188

08020f68 <CheckUPSStatus>:
 8020f68:	b5f8      	push	{r3, r4, r5, r6, r7, lr}
 8020f6a:	f44f 717a 	mov.w	r1, #1000	; 0x3e8
 8020f6e:	4839      	ldr	r0, [pc, #228]	; (8021054 <CheckUPSStatus+0xec>)
 8020f70:	f005 fb70 	bl	8026654 <mstimeout>
 8020f74:	2800      	cmp	r0, #0
 8020f76:	d039      	beq.n	8020fec <CheckUPSStatus+0x84>
 8020f78:	f44f 6180 	mov.w	r1, #1024	; 0x400
 8020f7c:	4836      	ldr	r0, [pc, #216]	; (8021058 <CheckUPSStatus+0xf0>)
 8020f7e:	f005 ff13 	bl	8026da8 <HAL_GPIO_ReadPin>
 8020f82:	1e05      	subs	r5, r0, #0
 8020f84:	f44f 7180 	mov.w	r1, #256	; 0x100
 8020f88:	4833      	ldr	r0, [pc, #204]	; (8021058 <CheckUPSStatus+0xf0>)
 8020f8a:	bf18      	it	ne
 8020f8c:	2501      	movne	r5, #1
 8020f8e:	f005 ff0b 	bl	8026da8 <HAL_GPIO_ReadPin>
 8020f92:	2800      	cmp	r0, #0
 8020f94:	f44f 7100 	mov.w	r1, #512	; 0x200
 8020f98:	482f      	ldr	r0, [pc, #188]	; (8021058 <CheckUPSStatus+0xf0>)
 8020f9a:	bf14      	ite	ne
 8020f9c:	2402      	movne	r4, #2
 8020f9e:	2400      	moveq	r4, #0
 8020fa0:	f005 ff02 	bl	8026da8 <HAL_GPIO_ReadPin>
 8020fa4:	2800      	cmp	r0, #0
 8020fa6:	ea44 0405 	orr.w	r4, r4, r5
 8020faa:	4e2c      	ldr	r6, [pc, #176]	; (802105c <CheckUPSStatus+0xf4>)
 8020fac:	bf14      	ite	ne
 8020fae:	2004      	movne	r0, #4
 8020fb0:	2000      	moveq	r0, #0
 8020fb2:	ea44 0300 	orr.w	r3, r4, r0
 8020fb6:	2b01      	cmp	r3, #1
 8020fb8:	461c      	mov	r4, r3
 8020fba:	d103      	bne.n	8020fc4 <CheckUPSStatus+0x5c>
 8020fbc:	4828      	ldr	r0, [pc, #160]	; (8021060 <CheckUPSStatus+0xf8>)
 8020fbe:	f004 ffd3 	bl	8025f68 <printf_>
 8020fc2:	e012      	b.n	8020fea <CheckUPSStatus+0x82>
 8020fc4:	079b      	lsls	r3, r3, #30
 8020fc6:	d112      	bne.n	8020fee <CheckUPSStatus+0x86>
 8020fc8:	4b26      	ldr	r3, [pc, #152]	; (8021064 <CheckUPSStatus+0xfc>)
 8020fca:	781a      	ldrb	r2, [r3, #0]
 8020fcc:	b942      	cbnz	r2, 8020fe0 <CheckUPSStatus+0x78>
 8020fce:	2102      	movs	r1, #2
 8020fd0:	2201      	movs	r2, #1
 8020fd2:	4608      	mov	r0, r1
 8020fd4:	701a      	strb	r2, [r3, #0]
 8020fd6:	f7ff ff1f 	bl	8020e18 <ControlDirectionLED>
 8020fda:	4823      	ldr	r0, [pc, #140]	; (8021068 <CheckUPSStatus+0x100>)
 8020fdc:	f004 ffc4 	bl	8025f68 <printf_>
 8020fe0:	4822      	ldr	r0, [pc, #136]	; (802106c <CheckUPSStatus+0x104>)
 8020fe2:	7803      	ldrb	r3, [r0, #0]
 8020fe4:	b10b      	cbz	r3, 8020fea <CheckUPSStatus+0x82>
 8020fe6:	f008 ff2b 	bl	8029e40 <ResetTimer>
 8020fea:	74b4      	strb	r4, [r6, #18]
 8020fec:	bdf8      	pop	{r3, r4, r5, r6, r7, pc}
 8020fee:	2c06      	cmp	r4, #6
 8020ff0:	d1fb      	bne.n	8020fea <CheckUPSStatus+0x82>
 8020ff2:	4f1c      	ldr	r7, [pc, #112]	; (8021064 <CheckUPSStatus+0xfc>)
 8020ff4:	783d      	ldrb	r5, [r7, #0]
 8020ff6:	2d01      	cmp	r5, #1
 8020ff8:	d1f7      	bne.n	8020fea <CheckUPSStatus+0x82>
 8020ffa:	481c      	ldr	r0, [pc, #112]	; (802106c <CheckUPSStatus+0x104>)
 8020ffc:	7803      	ldrb	r3, [r0, #0]
 8020ffe:	b333      	cbz	r3, 802104e <CheckUPSStatus+0xe6>
 8021000:	f640 31b8 	movw	r1, #3000	; 0xbb8
 8021004:	f008 ff20 	bl	8029e48 <IsTimeout>
 8021008:	2800      	cmp	r0, #0
 802100a:	d0ee      	beq.n	8020fea <CheckUPSStatus+0x82>
 802100c:	4b18      	ldr	r3, [pc, #96]	; (8021070 <CheckUPSStatus+0x108>)
 802100e:	781a      	ldrb	r2, [r3, #0]
 8021010:	b1ba      	cbz	r2, 8021042 <CheckUPSStatus+0xda>
 8021012:	7971      	ldrb	r1, [r6, #5]
 8021014:	b1b9      	cbz	r1, 8021046 <CheckUPSStatus+0xde>
 8021016:	2a01      	cmp	r2, #1
 8021018:	bf14      	ite	ne
 802101a:	2001      	movne	r0, #1
 802101c:	2002      	moveq	r0, #2
 802101e:	4a15      	ldr	r2, [pc, #84]	; (8021074 <CheckUPSStatus+0x10c>)
 8021020:	785b      	ldrb	r3, [r3, #1]
 8021022:	7010      	strb	r0, [r2, #0]
 8021024:	b18b      	cbz	r3, 802104a <CheckUPSStatus+0xe2>
 8021026:	7932      	ldrb	r2, [r6, #4]
 8021028:	b112      	cbz	r2, 8021030 <CheckUPSStatus+0xc8>
 802102a:	2b01      	cmp	r3, #1
 802102c:	bf08      	it	eq
 802102e:	2502      	moveq	r5, #2
 8021030:	4b11      	ldr	r3, [pc, #68]	; (8021078 <CheckUPSStatus+0x110>)
 8021032:	4629      	mov	r1, r5
 8021034:	701d      	strb	r5, [r3, #0]
 8021036:	2300      	movs	r3, #0
 8021038:	703b      	strb	r3, [r7, #0]
 802103a:	f7ff feed 	bl	8020e18 <ControlDirectionLED>
 802103e:	480f      	ldr	r0, [pc, #60]	; (802107c <CheckUPSStatus+0x114>)
 8021040:	e7bd      	b.n	8020fbe <CheckUPSStatus+0x56>
 8021042:	2002      	movs	r0, #2
 8021044:	e7eb      	b.n	802101e <CheckUPSStatus+0xb6>
 8021046:	4628      	mov	r0, r5
 8021048:	e7e9      	b.n	802101e <CheckUPSStatus+0xb6>
 802104a:	2502      	movs	r5, #2
 802104c:	e7f0      	b.n	8021030 <CheckUPSStatus+0xc8>
 802104e:	f008 feef 	bl	8029e30 <SetTimer>
 8021052:	e7ca      	b.n	8020fea <CheckUPSStatus+0x82>
 8021054:	24000154 	.word	0x24000154
 8021058:	58021400 	.word	0x58021400
 802105c:	24000410 	.word	0x24000410
 8021060:	0802b0d8 	.word	0x0802b0d8
 8021064:	2400012b 	.word	0x2400012b
 8021068:	0802b0fe 	.word	0x0802b0fe
 802106c:	24000200 	.word	0x24000200
 8021070:	24000404 	.word	0x24000404
 8021074:	24000129 	.word	0x24000129
 8021078:	2400012a 	.word	0x2400012a
 802107c:	0802b121 	.word	0x0802b121

08021080 <CheckEmergencySignal>:
 8021080:	b573      	push	{r0, r1, r4, r5, r6, lr}
 8021082:	4836      	ldr	r0, [pc, #216]	; (802115c <CheckEmergencySignal+0xdc>)
 8021084:	6903      	ldr	r3, [r0, #16]
 8021086:	071b      	lsls	r3, r3, #28
 8021088:	d51a      	bpl.n	80210c0 <CheckEmergencySignal+0x40>
 802108a:	f44f 7100 	mov.w	r1, #512	; 0x200
 802108e:	f005 fe8b 	bl	8026da8 <HAL_GPIO_ReadPin>
 8021092:	4601      	mov	r1, r0
 8021094:	fab0 f080 	clz	r0, r0
 8021098:	0940      	lsrs	r0, r0, #5
 802109a:	4c31      	ldr	r4, [pc, #196]	; (8021160 <CheckEmergencySignal+0xe0>)
 802109c:	7823      	ldrb	r3, [r4, #0]
 802109e:	f360 1305 	bfi	r3, r0, #4, #2
 80210a2:	4830      	ldr	r0, [pc, #192]	; (8021164 <CheckEmergencySignal+0xe4>)
 80210a4:	7023      	strb	r3, [r4, #0]
 80210a6:	4b30      	ldr	r3, [pc, #192]	; (8021168 <CheckEmergencySignal+0xe8>)
 80210a8:	781a      	ldrb	r2, [r3, #0]
 80210aa:	428a      	cmp	r2, r1
 80210ac:	d00b      	beq.n	80210c6 <CheckEmergencySignal+0x46>
 80210ae:	2201      	movs	r2, #1
 80210b0:	7019      	strb	r1, [r3, #0]
 80210b2:	6002      	str	r2, [r0, #0]
 80210b4:	482d      	ldr	r0, [pc, #180]	; (802116c <CheckEmergencySignal+0xec>)
 80210b6:	b002      	add	sp, #8
 80210b8:	e8bd 4070 	ldmia.w	sp!, {r4, r5, r6, lr}
 80210bc:	f004 bf54 	b.w	8025f68 <printf_>
 80210c0:	2000      	movs	r0, #0
 80210c2:	2101      	movs	r1, #1
 80210c4:	e7e9      	b.n	802109a <CheckEmergencySignal+0x1a>
 80210c6:	6802      	ldr	r2, [r0, #0]
 80210c8:	b152      	cbz	r2, 80210e0 <CheckEmergencySignal+0x60>
 80210ca:	4b29      	ldr	r3, [pc, #164]	; (8021170 <CheckEmergencySignal+0xf0>)
 80210cc:	7859      	ldrb	r1, [r3, #1]
 80210ce:	f44f 737a 	mov.w	r3, #1000	; 0x3e8
 80210d2:	434b      	muls	r3, r1
 80210d4:	bf08      	it	eq
 80210d6:	2301      	moveq	r3, #1
 80210d8:	429a      	cmp	r2, r3
 80210da:	d003      	beq.n	80210e4 <CheckEmergencySignal+0x64>
 80210dc:	3201      	adds	r2, #1
 80210de:	6002      	str	r2, [r0, #0]
 80210e0:	b002      	add	sp, #8
 80210e2:	bd70      	pop	{r4, r5, r6, pc}
 80210e4:	7823      	ldrb	r3, [r4, #0]
 80210e6:	2600      	movs	r6, #0
 80210e8:	7b25      	ldrb	r5, [r4, #12]
 80210ea:	f003 0330 	and.w	r3, r3, #48	; 0x30
 80210ee:	6006      	str	r6, [r0, #0]
 80210f0:	f005 0510 	and.w	r5, r5, #16
 80210f4:	2b10      	cmp	r3, #16
 80210f6:	d119      	bne.n	802112c <CheckEmergencySignal+0xac>
 80210f8:	2d00      	cmp	r5, #0
 80210fa:	d1f1      	bne.n	80210e0 <CheckEmergencySignal+0x60>
 80210fc:	481d      	ldr	r0, [pc, #116]	; (8021174 <CheckEmergencySignal+0xf4>)
 80210fe:	f004 ff33 	bl	8025f68 <printf_>
 8021102:	7b23      	ldrb	r3, [r4, #12]
 8021104:	f88d 5004 	strb.w	r5, [sp, #4]
 8021108:	f043 0310 	orr.w	r3, r3, #16
 802110c:	f88d 5005 	strb.w	r5, [sp, #5]
 8021110:	7323      	strb	r3, [r4, #12]
 8021112:	4b19      	ldr	r3, [pc, #100]	; (8021178 <CheckEmergencySignal+0xf8>)
 8021114:	789b      	ldrb	r3, [r3, #2]
 8021116:	f043 0301 	orr.w	r3, r3, #1
 802111a:	f88d 3006 	strb.w	r3, [sp, #6]
 802111e:	2301      	movs	r3, #1
 8021120:	a801      	add	r0, sp, #4
 8021122:	f88d 3007 	strb.w	r3, [sp, #7]
 8021126:	f7ff fd11 	bl	8020b4c <SetNewOpMode>
 802112a:	e7d9      	b.n	80210e0 <CheckEmergencySignal+0x60>
 802112c:	2d00      	cmp	r5, #0
 802112e:	d0d7      	beq.n	80210e0 <CheckEmergencySignal+0x60>
 8021130:	4812      	ldr	r0, [pc, #72]	; (802117c <CheckEmergencySignal+0xfc>)
 8021132:	f004 ff19 	bl	8025f68 <printf_>
 8021136:	7b23      	ldrb	r3, [r4, #12]
 8021138:	f366 1304 	bfi	r3, r6, #4, #1
 802113c:	7323      	strb	r3, [r4, #12]
 802113e:	4b0e      	ldr	r3, [pc, #56]	; (8021178 <CheckEmergencySignal+0xf8>)
 8021140:	781a      	ldrb	r2, [r3, #0]
 8021142:	789b      	ldrb	r3, [r3, #2]
 8021144:	f88d 2004 	strb.w	r2, [sp, #4]
 8021148:	f88d 2005 	strb.w	r2, [sp, #5]
 802114c:	f023 0201 	bic.w	r2, r3, #1
 8021150:	f3c3 1300 	ubfx	r3, r3, #4, #1
 8021154:	f88d 2006 	strb.w	r2, [sp, #6]
 8021158:	e7e2      	b.n	8021120 <CheckEmergencySignal+0xa0>
 802115a:	bf00      	nop
 802115c:	58020400 	.word	0x58020400
 8021160:	24000410 	.word	0x24000410
 8021164:	2400002c 	.word	0x2400002c
 8021168:	2400012c 	.word	0x2400012c
 802116c:	0802b146 	.word	0x0802b146
 8021170:	24000408 	.word	0x24000408
 8021174:	0802b178 	.word	0x0802b178
 8021178:	24000404 	.word	0x24000404
 802117c:	0802b19b 	.word	0x0802b19b

08021180 <CheckBuzzerTimer>:
 8021180:	b510      	push	{r4, lr}
 8021182:	4c08      	ldr	r4, [pc, #32]	; (80211a4 <CheckBuzzerTimer+0x24>)
 8021184:	7823      	ldrb	r3, [r4, #0]
 8021186:	b163      	cbz	r3, 80211a2 <CheckBuzzerTimer+0x22>
 8021188:	4b07      	ldr	r3, [pc, #28]	; (80211a8 <CheckBuzzerTimer+0x28>)
 802118a:	4620      	mov	r0, r4
 802118c:	6819      	ldr	r1, [r3, #0]
 802118e:	f008 fe5b 	bl	8029e48 <IsTimeout>
 8021192:	b130      	cbz	r0, 80211a2 <CheckBuzzerTimer+0x22>
 8021194:	4620      	mov	r0, r4
 8021196:	f008 fe53 	bl	8029e40 <ResetTimer>
 802119a:	e8bd 4010 	ldmia.w	sp!, {r4, lr}
 802119e:	f002 bceb 	b.w	8023b78 <BuzzerOff>
 80211a2:	bd10      	pop	{r4, pc}
 80211a4:	24000194 	.word	0x24000194
 80211a8:	24000130 	.word	0x24000130

080211ac <CheckIndicatorTimer>:
 80211ac:	b510      	push	{r4, lr}
 80211ae:	4c0c      	ldr	r4, [pc, #48]	; (80211e0 <CheckIndicatorTimer+0x34>)
 80211b0:	7823      	ldrb	r3, [r4, #0]
 80211b2:	b19b      	cbz	r3, 80211dc <CheckIndicatorTimer+0x30>
 80211b4:	4b0b      	ldr	r3, [pc, #44]	; (80211e4 <CheckIndicatorTimer+0x38>)
 80211b6:	4620      	mov	r0, r4
 80211b8:	6819      	ldr	r1, [r3, #0]
 80211ba:	f008 fe45 	bl	8029e48 <IsTimeout>
 80211be:	b168      	cbz	r0, 80211dc <CheckIndicatorTimer+0x30>
 80211c0:	4809      	ldr	r0, [pc, #36]	; (80211e8 <CheckIndicatorTimer+0x3c>)
 80211c2:	f004 fed1 	bl	8025f68 <printf_>
 80211c6:	4620      	mov	r0, r4
 80211c8:	f008 fe3a 	bl	8029e40 <ResetTimer>
 80211cc:	2300      	movs	r3, #0
 80211ce:	e8bd 4010 	ldmia.w	sp!, {r4, lr}
 80211d2:	461a      	mov	r2, r3
 80211d4:	4619      	mov	r1, r3
 80211d6:	4618      	mov	r0, r3
 80211d8:	f7ff be4e 	b.w	8020e78 <ControlIndicator>
 80211dc:	bd10      	pop	{r4, pc}
 80211de:	bf00      	nop
 80211e0:	240001c4 	.word	0x240001c4
 80211e4:	2400013c 	.word	0x2400013c
 80211e8:	0802b1bf 	.word	0x0802b1bf

080211ec <CheckPassSenError>:
 80211ec:	e92d 4ff8 	stmdb	sp!, {r3, r4, r5, r6, r7, r8, r9, sl, fp, lr}
 80211f0:	f04f 43c0 	mov.w	r3, #1610612736	; 0x60000000
 80211f4:	4e4d      	ldr	r6, [pc, #308]	; (802132c <CheckPassSenError+0x140>)
 80211f6:	2400      	movs	r4, #0
 80211f8:	f8df 8148 	ldr.w	r8, [pc, #328]	; 8021344 <CheckPassSenError+0x158>
 80211fc:	781f      	ldrb	r7, [r3, #0]
 80211fe:	4d4c      	ldr	r5, [pc, #304]	; (8021330 <CheckPassSenError+0x144>)
 8021200:	b2ff      	uxtb	r7, r7
 8021202:	f004 0207 	and.w	r2, r4, #7
 8021206:	f8d8 3000 	ldr.w	r3, [r8]
 802120a:	fa47 f202 	asr.w	r2, r7, r2
 802120e:	f012 0201 	ands.w	r2, r2, #1
 8021212:	d067      	beq.n	80212e4 <CheckPassSenError+0xf8>
 8021214:	4947      	ldr	r1, [pc, #284]	; (8021334 <CheckPassSenError+0x148>)
 8021216:	f242 7010 	movw	r0, #10000	; 0x2710
 802121a:	6832      	ldr	r2, [r6, #0]
 802121c:	7889      	ldrb	r1, [r1, #2]
 802121e:	4341      	muls	r1, r0
 8021220:	428a      	cmp	r2, r1
 8021222:	d15b      	bne.n	80212dc <CheckPassSenError+0xf0>
 8021224:	f8df 9114 	ldr.w	r9, [pc, #276]	; 802133c <CheckPassSenError+0x150>
 8021228:	f04f 0a01 	mov.w	sl, #1
 802122c:	f8df b118 	ldr.w	fp, [pc, #280]	; 8021348 <CheckPassSenError+0x15c>
 8021230:	f899 200c 	ldrb.w	r2, [r9, #12]
 8021234:	fa0a fa04 	lsl.w	sl, sl, r4
 8021238:	f012 0f40 	tst.w	r2, #64	; 0x40
 802123c:	ea4a 0303 	orr.w	r3, sl, r3
 8021240:	f8c8 3000 	str.w	r3, [r8]
 8021244:	d109      	bne.n	802125a <CheckPassSenError+0x6e>
 8021246:	f89b 3002 	ldrb.w	r3, [fp, #2]
 802124a:	b91b      	cbnz	r3, 8021254 <CheckPassSenError+0x68>
 802124c:	f042 0240 	orr.w	r2, r2, #64	; 0x40
 8021250:	f889 200c 	strb.w	r2, [r9, #12]
 8021254:	4838      	ldr	r0, [pc, #224]	; (8021338 <CheckPassSenError+0x14c>)
 8021256:	f004 fe87 	bl	8025f68 <printf_>
 802125a:	2c07      	cmp	r4, #7
 802125c:	dc36      	bgt.n	80212cc <CheckPassSenError+0xe0>
 802125e:	782b      	ldrb	r3, [r5, #0]
 8021260:	ea43 0a0a 	orr.w	sl, r3, sl
 8021264:	f885 a000 	strb.w	sl, [r5]
 8021268:	f89b 3002 	ldrb.w	r3, [fp, #2]
 802126c:	b963      	cbnz	r3, 8021288 <CheckPassSenError+0x9c>
 802126e:	882b      	ldrh	r3, [r5, #0]
 8021270:	f423 6370 	bic.w	r3, r3, #3840	; 0xf00
 8021274:	f023 030f 	bic.w	r3, r3, #15
 8021278:	b29b      	uxth	r3, r3
 802127a:	b12b      	cbz	r3, 8021288 <CheckPassSenError+0x9c>
 802127c:	f899 300c 	ldrb.w	r3, [r9, #12]
 8021280:	f043 0380 	orr.w	r3, r3, #128	; 0x80
 8021284:	f889 300c 	strb.w	r3, [r9, #12]
 8021288:	6833      	ldr	r3, [r6, #0]
 802128a:	3301      	adds	r3, #1
 802128c:	6033      	str	r3, [r6, #0]
 802128e:	3401      	adds	r4, #1
 8021290:	2c10      	cmp	r4, #16
 8021292:	d114      	bne.n	80212be <CheckPassSenError+0xd2>
 8021294:	4a29      	ldr	r2, [pc, #164]	; (802133c <CheckPassSenError+0x150>)
 8021296:	f8d8 1000 	ldr.w	r1, [r8]
 802129a:	7b13      	ldrb	r3, [r2, #12]
 802129c:	2900      	cmp	r1, #0
 802129e:	d139      	bne.n	8021314 <CheckPassSenError+0x128>
 80212a0:	0658      	lsls	r0, r3, #25
 80212a2:	bf44      	itt	mi
 80212a4:	f361 1386 	bfimi	r3, r1, #6, #1
 80212a8:	7313      	strbmi	r3, [r2, #12]
 80212aa:	f992 300c 	ldrsb.w	r3, [r2, #12]
 80212ae:	2b00      	cmp	r3, #0
 80212b0:	da03      	bge.n	80212ba <CheckPassSenError+0xce>
 80212b2:	7b13      	ldrb	r3, [r2, #12]
 80212b4:	f36f 13c7 	bfc	r3, #7, #1
 80212b8:	7313      	strb	r3, [r2, #12]
 80212ba:	e8bd 8ff8 	ldmia.w	sp!, {r3, r4, r5, r6, r7, r8, r9, sl, fp, pc}
 80212be:	2c08      	cmp	r4, #8
 80212c0:	d102      	bne.n	80212c8 <CheckPassSenError+0xdc>
 80212c2:	4b1f      	ldr	r3, [pc, #124]	; (8021340 <CheckPassSenError+0x154>)
 80212c4:	781f      	ldrb	r7, [r3, #0]
 80212c6:	b2ff      	uxtb	r7, r7
 80212c8:	3604      	adds	r6, #4
 80212ca:	e79a      	b.n	8021202 <CheckPassSenError+0x16>
 80212cc:	f1a4 0208 	sub.w	r2, r4, #8
 80212d0:	2301      	movs	r3, #1
 80212d2:	4093      	lsls	r3, r2
 80212d4:	786a      	ldrb	r2, [r5, #1]
 80212d6:	4313      	orrs	r3, r2
 80212d8:	706b      	strb	r3, [r5, #1]
 80212da:	e7c5      	b.n	8021268 <CheckPassSenError+0x7c>
 80212dc:	d2d7      	bcs.n	802128e <CheckPassSenError+0xa2>
 80212de:	3201      	adds	r2, #1
 80212e0:	6032      	str	r2, [r6, #0]
 80212e2:	e7d4      	b.n	802128e <CheckPassSenError+0xa2>
 80212e4:	6032      	str	r2, [r6, #0]
 80212e6:	2201      	movs	r2, #1
 80212e8:	2c07      	cmp	r4, #7
 80212ea:	fa02 f104 	lsl.w	r1, r2, r4
 80212ee:	ea23 0301 	bic.w	r3, r3, r1
 80212f2:	ea6f 0001 	mvn.w	r0, r1
 80212f6:	f8c8 3000 	str.w	r3, [r8]
 80212fa:	bfc9      	itett	gt
 80212fc:	f1a4 0308 	subgt.w	r3, r4, #8
 8021300:	782b      	ldrble	r3, [r5, #0]
 8021302:	409a      	lslgt	r2, r3
 8021304:	786b      	ldrbgt	r3, [r5, #1]
 8021306:	bfd5      	itete	le
 8021308:	4003      	andle	r3, r0
 802130a:	ea23 0202 	bicgt.w	r2, r3, r2
 802130e:	702b      	strble	r3, [r5, #0]
 8021310:	706a      	strbgt	r2, [r5, #1]
 8021312:	e7bc      	b.n	802128e <CheckPassSenError+0xa2>
 8021314:	061b      	lsls	r3, r3, #24
 8021316:	d5d0      	bpl.n	80212ba <CheckPassSenError+0xce>
 8021318:	4b05      	ldr	r3, [pc, #20]	; (8021330 <CheckPassSenError+0x144>)
 802131a:	881b      	ldrh	r3, [r3, #0]
 802131c:	f423 6370 	bic.w	r3, r3, #3840	; 0xf00
 8021320:	f023 030f 	bic.w	r3, r3, #15
 8021324:	b29b      	uxth	r3, r3
 8021326:	2b00      	cmp	r3, #0
 8021328:	d0c3      	beq.n	80212b2 <CheckPassSenError+0xc6>
 802132a:	e7c6      	b.n	80212ba <CheckPassSenError+0xce>
 802132c:	2400045c 	.word	0x2400045c
 8021330:	240004ac 	.word	0x240004ac
 8021334:	24000408 	.word	0x24000408
 8021338:	0802b1ee 	.word	0x0802b1ee
 802133c:	24000410 	.word	0x24000410
 8021340:	60000100 	.word	0x60000100
 8021344:	2400044c 	.word	0x2400044c
 8021348:	24000404 	.word	0x24000404

0802134c <InhibitPass>:
 802134c:	b570      	push	{r4, r5, r6, lr}
 802134e:	4d11      	ldr	r5, [pc, #68]	; (8021394 <InhibitPass+0x48>)
 8021350:	4601      	mov	r1, r0
 8021352:	4604      	mov	r4, r0
 8021354:	4810      	ldr	r0, [pc, #64]	; (8021398 <InhibitPass+0x4c>)
 8021356:	f004 fe07 	bl	8025f68 <printf_>
 802135a:	78e9      	ldrb	r1, [r5, #3]
 802135c:	2001      	movs	r0, #1
 802135e:	f7ff fd3b 	bl	8020dd8 <ControlBuzzer>
 8021362:	2102      	movs	r1, #2
 8021364:	4608      	mov	r0, r1
 8021366:	f7ff fd57 	bl	8020e18 <ControlDirectionLED>
 802136a:	2c01      	cmp	r4, #1
 802136c:	d108      	bne.n	8021380 <InhibitPass+0x34>
 802136e:	490b      	ldr	r1, [pc, #44]	; (802139c <InhibitPass+0x50>)
 8021370:	4623      	mov	r3, r4
 8021372:	78ea      	ldrb	r2, [r5, #3]
 8021374:	4620      	mov	r0, r4
 8021376:	7809      	ldrb	r1, [r1, #0]
 8021378:	e8bd 4070 	ldmia.w	sp!, {r4, r5, r6, lr}
 802137c:	f7ff bd7c 	b.w	8020e78 <ControlIndicator>
 8021380:	2c02      	cmp	r4, #2
 8021382:	d105      	bne.n	8021390 <InhibitPass+0x44>
 8021384:	2301      	movs	r3, #1
 8021386:	4806      	ldr	r0, [pc, #24]	; (80213a0 <InhibitPass+0x54>)
 8021388:	78ea      	ldrb	r2, [r5, #3]
 802138a:	4619      	mov	r1, r3
 802138c:	7800      	ldrb	r0, [r0, #0]
 802138e:	e7f3      	b.n	8021378 <InhibitPass+0x2c>
 8021390:	bd70      	pop	{r4, r5, r6, pc}
 8021392:	bf00      	nop
 8021394:	24000408 	.word	0x24000408
 8021398:	0802b21e 	.word	0x0802b21e
 802139c:	24000127 	.word	0x24000127
 80213a0:	24000126 	.word	0x24000126

080213a4 <ClearIllegalPass>:
 80213a4:	b510      	push	{r4, lr}
 80213a6:	4c2c      	ldr	r4, [pc, #176]	; (8021458 <ClearIllegalPass+0xb4>)
 80213a8:	7a23      	ldrb	r3, [r4, #8]
 80213aa:	075a      	lsls	r2, r3, #29
 80213ac:	d025      	beq.n	80213fa <ClearIllegalPass+0x56>
 80213ae:	4a2b      	ldr	r2, [pc, #172]	; (802145c <ClearIllegalPass+0xb8>)
 80213b0:	7812      	ldrb	r2, [r2, #0]
 80213b2:	bb12      	cbnz	r2, 80213fa <ClearIllegalPass+0x56>
 80213b4:	f362 0302 	bfi	r3, r2, #0, #3
 80213b8:	7223      	strb	r3, [r4, #8]
 80213ba:	7f23      	ldrb	r3, [r4, #28]
 80213bc:	0718      	lsls	r0, r3, #28
 80213be:	d505      	bpl.n	80213cc <ClearIllegalPass+0x28>
 80213c0:	f362 03c3 	bfi	r3, r2, #3, #1
 80213c4:	4826      	ldr	r0, [pc, #152]	; (8021460 <ClearIllegalPass+0xbc>)
 80213c6:	7723      	strb	r3, [r4, #28]
 80213c8:	f004 fdce 	bl	8025f68 <printf_>
 80213cc:	7f23      	ldrb	r3, [r4, #28]
 80213ce:	0759      	lsls	r1, r3, #29
 80213d0:	d505      	bpl.n	80213de <ClearIllegalPass+0x3a>
 80213d2:	f36f 0382 	bfc	r3, #2, #1
 80213d6:	4823      	ldr	r0, [pc, #140]	; (8021464 <ClearIllegalPass+0xc0>)
 80213d8:	7723      	strb	r3, [r4, #28]
 80213da:	f004 fdc5 	bl	8025f68 <printf_>
 80213de:	4822      	ldr	r0, [pc, #136]	; (8021468 <ClearIllegalPass+0xc4>)
 80213e0:	f008 fd2e 	bl	8029e40 <ResetTimer>
 80213e4:	4b21      	ldr	r3, [pc, #132]	; (802146c <ClearIllegalPass+0xc8>)
 80213e6:	781b      	ldrb	r3, [r3, #0]
 80213e8:	b93b      	cbnz	r3, 80213fa <ClearIllegalPass+0x56>
 80213ea:	4b21      	ldr	r3, [pc, #132]	; (8021470 <ClearIllegalPass+0xcc>)
 80213ec:	781b      	ldrb	r3, [r3, #0]
 80213ee:	b923      	cbnz	r3, 80213fa <ClearIllegalPass+0x56>
 80213f0:	f000 ff80 	bl	80222f4 <InitPassageModeForSwing>
 80213f4:	481f      	ldr	r0, [pc, #124]	; (8021474 <ClearIllegalPass+0xd0>)
 80213f6:	f004 fdb7 	bl	8025f68 <printf_>
 80213fa:	7a23      	ldrb	r3, [r4, #8]
 80213fc:	f013 0f70 	tst.w	r3, #112	; 0x70
 8021400:	d029      	beq.n	8021456 <ClearIllegalPass+0xb2>
 8021402:	4a16      	ldr	r2, [pc, #88]	; (802145c <ClearIllegalPass+0xb8>)
 8021404:	7852      	ldrb	r2, [r2, #1]
 8021406:	bb32      	cbnz	r2, 8021456 <ClearIllegalPass+0xb2>
 8021408:	f362 1306 	bfi	r3, r2, #4, #3
 802140c:	7223      	strb	r3, [r4, #8]
 802140e:	f994 301c 	ldrsb.w	r3, [r4, #28]
 8021412:	2b00      	cmp	r3, #0
 8021414:	da06      	bge.n	8021424 <ClearIllegalPass+0x80>
 8021416:	7f23      	ldrb	r3, [r4, #28]
 8021418:	4817      	ldr	r0, [pc, #92]	; (8021478 <ClearIllegalPass+0xd4>)
 802141a:	f362 13c7 	bfi	r3, r2, #7, #1
 802141e:	7723      	strb	r3, [r4, #28]
 8021420:	f004 fda2 	bl	8025f68 <printf_>
 8021424:	7f23      	ldrb	r3, [r4, #28]
 8021426:	065a      	lsls	r2, r3, #25
 8021428:	d505      	bpl.n	8021436 <ClearIllegalPass+0x92>
 802142a:	f36f 1386 	bfc	r3, #6, #1
 802142e:	4813      	ldr	r0, [pc, #76]	; (802147c <ClearIllegalPass+0xd8>)
 8021430:	7723      	strb	r3, [r4, #28]
 8021432:	f004 fd99 	bl	8025f68 <printf_>
 8021436:	4812      	ldr	r0, [pc, #72]	; (8021480 <ClearIllegalPass+0xdc>)
 8021438:	f008 fd02 	bl	8029e40 <ResetTimer>
 802143c:	4b0b      	ldr	r3, [pc, #44]	; (802146c <ClearIllegalPass+0xc8>)
 802143e:	781b      	ldrb	r3, [r3, #0]
 8021440:	b94b      	cbnz	r3, 8021456 <ClearIllegalPass+0xb2>
 8021442:	4b0b      	ldr	r3, [pc, #44]	; (8021470 <ClearIllegalPass+0xcc>)
 8021444:	781b      	ldrb	r3, [r3, #0]
 8021446:	b933      	cbnz	r3, 8021456 <ClearIllegalPass+0xb2>
 8021448:	f000 ff54 	bl	80222f4 <InitPassageModeForSwing>
 802144c:	480d      	ldr	r0, [pc, #52]	; (8021484 <ClearIllegalPass+0xe0>)
 802144e:	e8bd 4010 	ldmia.w	sp!, {r4, lr}
 8021452:	f004 bd89 	b.w	8025f68 <printf_>
 8021456:	bd10      	pop	{r4, pc}
 8021458:	24000410 	.word	0x24000410
 802145c:	240003fc 	.word	0x240003fc
 8021460:	0802b237 	.word	0x0802b237
 8021464:	0802b254 	.word	0x0802b254
 8021468:	240001ac 	.word	0x240001ac
 802146c:	240001dc 	.word	0x240001dc
 8021470:	24000230 	.word	0x24000230
 8021474:	0802b271 	.word	0x0802b271
 8021478:	0802b29d 	.word	0x0802b29d
 802147c:	0802b2ba 	.word	0x0802b2ba
 8021480:	240001b8 	.word	0x240001b8
 8021484:	0802b2d7 	.word	0x0802b2d7

08021488 <ClearPassageAlarm>:
 8021488:	b508      	push	{r3, lr}
 802148a:	481a      	ldr	r0, [pc, #104]	; (80214f4 <ClearPassageAlarm+0x6c>)
 802148c:	f008 fcd8 	bl	8029e40 <ResetTimer>
 8021490:	4819      	ldr	r0, [pc, #100]	; (80214f8 <ClearPassageAlarm+0x70>)
 8021492:	f008 fcd5 	bl	8029e40 <ResetTimer>
 8021496:	4819      	ldr	r0, [pc, #100]	; (80214fc <ClearPassageAlarm+0x74>)
 8021498:	f008 fcd2 	bl	8029e40 <ResetTimer>
 802149c:	4b18      	ldr	r3, [pc, #96]	; (8021500 <ClearPassageAlarm+0x78>)
 802149e:	7a1a      	ldrb	r2, [r3, #8]
 80214a0:	0751      	lsls	r1, r2, #29
 80214a2:	bf1c      	itt	ne
 80214a4:	f36f 0202 	bfcne	r2, #0, #3
 80214a8:	721a      	strbne	r2, [r3, #8]
 80214aa:	7a1a      	ldrb	r2, [r3, #8]
 80214ac:	f012 0f70 	tst.w	r2, #112	; 0x70
 80214b0:	bf1c      	itt	ne
 80214b2:	f36f 1206 	bfcne	r2, #4, #3
 80214b6:	721a      	strbne	r2, [r3, #8]
 80214b8:	7a1a      	ldrb	r2, [r3, #8]
 80214ba:	f012 0f88 	tst.w	r2, #136	; 0x88
 80214be:	bf1c      	itt	ne
 80214c0:	f002 0277 	andne.w	r2, r2, #119	; 0x77
 80214c4:	721a      	strbne	r2, [r3, #8]
 80214c6:	4a0f      	ldr	r2, [pc, #60]	; (8021504 <ClearPassageAlarm+0x7c>)
 80214c8:	7811      	ldrb	r1, [r2, #0]
 80214ca:	b929      	cbnz	r1, 80214d8 <ClearPassageAlarm+0x50>
 80214cc:	7919      	ldrb	r1, [r3, #4]
 80214ce:	f001 00ff 	and.w	r0, r1, #255	; 0xff
 80214d2:	b909      	cbnz	r1, 80214d8 <ClearPassageAlarm+0x50>
 80214d4:	490c      	ldr	r1, [pc, #48]	; (8021508 <ClearPassageAlarm+0x80>)
 80214d6:	7008      	strb	r0, [r1, #0]
 80214d8:	7852      	ldrb	r2, [r2, #1]
 80214da:	b92a      	cbnz	r2, 80214e8 <ClearPassageAlarm+0x60>
 80214dc:	795a      	ldrb	r2, [r3, #5]
 80214de:	f002 01ff 	and.w	r1, r2, #255	; 0xff
 80214e2:	b90a      	cbnz	r2, 80214e8 <ClearPassageAlarm+0x60>
 80214e4:	4a09      	ldr	r2, [pc, #36]	; (802150c <ClearPassageAlarm+0x84>)
 80214e6:	7011      	strb	r1, [r2, #0]
 80214e8:	2200      	movs	r2, #0
 80214ea:	771a      	strb	r2, [r3, #28]
 80214ec:	e8bd 4008 	ldmia.w	sp!, {r3, lr}
 80214f0:	f7ff bf58 	b.w	80213a4 <ClearIllegalPass>
 80214f4:	240001ac 	.word	0x240001ac
 80214f8:	240001b8 	.word	0x240001b8
 80214fc:	240001e8 	.word	0x240001e8
 8021500:	24000410 	.word	0x24000410
 8021504:	240003fc 	.word	0x240003fc
 8021508:	24000453 	.word	0x24000453
 802150c:	24000454 	.word	0x24000454

08021510 <CheckAuthTimeout>:
 8021510:	b538      	push	{r3, r4, r5, lr}
 8021512:	4c15      	ldr	r4, [pc, #84]	; (8021568 <CheckAuthTimeout+0x58>)
 8021514:	7823      	ldrb	r3, [r4, #0]
 8021516:	b32b      	cbz	r3, 8021564 <CheckAuthTimeout+0x54>
 8021518:	4d14      	ldr	r5, [pc, #80]	; (802156c <CheckAuthTimeout+0x5c>)
 802151a:	f44f 717a 	mov.w	r1, #1000	; 0x3e8
 802151e:	4620      	mov	r0, r4
 8021520:	682b      	ldr	r3, [r5, #0]
 8021522:	4359      	muls	r1, r3
 8021524:	f008 fc90 	bl	8029e48 <IsTimeout>
 8021528:	b1e0      	cbz	r0, 8021564 <CheckAuthTimeout+0x54>
 802152a:	6829      	ldr	r1, [r5, #0]
 802152c:	4810      	ldr	r0, [pc, #64]	; (8021570 <CheckAuthTimeout+0x60>)
 802152e:	f004 fd1b 	bl	8025f68 <printf_>
 8021532:	4620      	mov	r0, r4
 8021534:	f008 fc84 	bl	8029e40 <ResetTimer>
 8021538:	2400      	movs	r4, #0
 802153a:	4b0e      	ldr	r3, [pc, #56]	; (8021574 <CheckAuthTimeout+0x64>)
 802153c:	2201      	movs	r2, #1
 802153e:	4d0e      	ldr	r5, [pc, #56]	; (8021578 <CheckAuthTimeout+0x68>)
 8021540:	4621      	mov	r1, r4
 8021542:	701a      	strb	r2, [r3, #0]
 8021544:	4620      	mov	r0, r4
 8021546:	4623      	mov	r3, r4
 8021548:	4622      	mov	r2, r4
 802154a:	712c      	strb	r4, [r5, #4]
 802154c:	716c      	strb	r4, [r5, #5]
 802154e:	f7ff fc93 	bl	8020e78 <ControlIndicator>
 8021552:	7a2b      	ldrb	r3, [r5, #8]
 8021554:	b113      	cbz	r3, 802155c <CheckAuthTimeout+0x4c>
 8021556:	f7ff ff25 	bl	80213a4 <ClearIllegalPass>
 802155a:	722c      	strb	r4, [r5, #8]
 802155c:	e8bd 4038 	ldmia.w	sp!, {r3, r4, r5, lr}
 8021560:	f000 bec8 	b.w	80222f4 <InitPassageModeForSwing>
 8021564:	bd38      	pop	{r3, r4, r5, pc}
 8021566:	bf00      	nop
 8021568:	24000158 	.word	0x24000158
 802156c:	24000134 	.word	0x24000134
 8021570:	0802b303 	.word	0x0802b303
 8021574:	24000151 	.word	0x24000151
 8021578:	24000410 	.word	0x24000410

0802157c <CheckIllegalAlarmTimer>:
 802157c:	b510      	push	{r4, lr}
 802157e:	4c1f      	ldr	r4, [pc, #124]	; (80215fc <CheckIllegalAlarmTimer+0x80>)
 8021580:	7823      	ldrb	r3, [r4, #0]
 8021582:	b1d3      	cbz	r3, 80215ba <CheckIllegalAlarmTimer+0x3e>
 8021584:	4b1e      	ldr	r3, [pc, #120]	; (8021600 <CheckIllegalAlarmTimer+0x84>)
 8021586:	4620      	mov	r0, r4
 8021588:	6819      	ldr	r1, [r3, #0]
 802158a:	f008 fc5d 	bl	8029e48 <IsTimeout>
 802158e:	b1a0      	cbz	r0, 80215ba <CheckIllegalAlarmTimer+0x3e>
 8021590:	4b1c      	ldr	r3, [pc, #112]	; (8021604 <CheckIllegalAlarmTimer+0x88>)
 8021592:	7f1a      	ldrb	r2, [r3, #28]
 8021594:	f022 0222 	bic.w	r2, r2, #34	; 0x22
 8021598:	771a      	strb	r2, [r3, #28]
 802159a:	7a1a      	ldrb	r2, [r3, #8]
 802159c:	f022 0277 	bic.w	r2, r2, #119	; 0x77
 80215a0:	721a      	strb	r2, [r3, #8]
 80215a2:	4b19      	ldr	r3, [pc, #100]	; (8021608 <CheckIllegalAlarmTimer+0x8c>)
 80215a4:	7819      	ldrb	r1, [r3, #0]
 80215a6:	4b19      	ldr	r3, [pc, #100]	; (802160c <CheckIllegalAlarmTimer+0x90>)
 80215a8:	7818      	ldrb	r0, [r3, #0]
 80215aa:	f7ff fc35 	bl	8020e18 <ControlDirectionLED>
 80215ae:	2000      	movs	r0, #0
 80215b0:	f7ff fcb2 	bl	8020f18 <ControlIndicatorBlink>
 80215b4:	4620      	mov	r0, r4
 80215b6:	f008 fc43 	bl	8029e40 <ResetTimer>
 80215ba:	4c15      	ldr	r4, [pc, #84]	; (8021610 <CheckIllegalAlarmTimer+0x94>)
 80215bc:	7823      	ldrb	r3, [r4, #0]
 80215be:	b1e3      	cbz	r3, 80215fa <CheckIllegalAlarmTimer+0x7e>
 80215c0:	f44f 61fa 	mov.w	r1, #2000	; 0x7d0
 80215c4:	4620      	mov	r0, r4
 80215c6:	f008 fc3f 	bl	8029e48 <IsTimeout>
 80215ca:	b1b0      	cbz	r0, 80215fa <CheckIllegalAlarmTimer+0x7e>
 80215cc:	4b0d      	ldr	r3, [pc, #52]	; (8021604 <CheckIllegalAlarmTimer+0x88>)
 80215ce:	7f1a      	ldrb	r2, [r3, #28]
 80215d0:	f022 0211 	bic.w	r2, r2, #17
 80215d4:	771a      	strb	r2, [r3, #28]
 80215d6:	7a1a      	ldrb	r2, [r3, #8]
 80215d8:	f022 0277 	bic.w	r2, r2, #119	; 0x77
 80215dc:	721a      	strb	r2, [r3, #8]
 80215de:	4b0a      	ldr	r3, [pc, #40]	; (8021608 <CheckIllegalAlarmTimer+0x8c>)
 80215e0:	7819      	ldrb	r1, [r3, #0]
 80215e2:	4b0a      	ldr	r3, [pc, #40]	; (802160c <CheckIllegalAlarmTimer+0x90>)
 80215e4:	7818      	ldrb	r0, [r3, #0]
 80215e6:	f7ff fc17 	bl	8020e18 <ControlDirectionLED>
 80215ea:	2000      	movs	r0, #0
 80215ec:	f7ff fc94 	bl	8020f18 <ControlIndicatorBlink>
 80215f0:	4620      	mov	r0, r4
 80215f2:	e8bd 4010 	ldmia.w	sp!, {r4, lr}
 80215f6:	f008 bc23 	b.w	8029e40 <ResetTimer>
 80215fa:	bd10      	pop	{r4, pc}
 80215fc:	240001dc 	.word	0x240001dc
 8021600:	24000140 	.word	0x24000140
 8021604:	24000410 	.word	0x24000410
 8021608:	2400012a 	.word	0x2400012a
 802160c:	24000129 	.word	0x24000129
 8021610:	24000230 	.word	0x24000230

08021614 <CheckBlinkTimer>:
 8021614:	4811      	ldr	r0, [pc, #68]	; (802165c <CheckBlinkTimer+0x48>)
 8021616:	b508      	push	{r3, lr}
 8021618:	7803      	ldrb	r3, [r0, #0]
 802161a:	b1eb      	cbz	r3, 8021658 <CheckBlinkTimer+0x44>
 802161c:	4b10      	ldr	r3, [pc, #64]	; (8021660 <CheckBlinkTimer+0x4c>)
 802161e:	6819      	ldr	r1, [r3, #0]
 8021620:	f008 fc12 	bl	8029e48 <IsTimeout>
 8021624:	b1c0      	cbz	r0, 8021658 <CheckBlinkTimer+0x44>
 8021626:	4b0f      	ldr	r3, [pc, #60]	; (8021664 <CheckBlinkTimer+0x50>)
 8021628:	781b      	ldrb	r3, [r3, #0]
 802162a:	2b01      	cmp	r3, #1
 802162c:	d108      	bne.n	8021640 <CheckBlinkTimer+0x2c>
 802162e:	490e      	ldr	r1, [pc, #56]	; (8021668 <CheckBlinkTimer+0x54>)
 8021630:	780a      	ldrb	r2, [r1, #0]
 8021632:	b16a      	cbz	r2, 8021650 <CheckBlinkTimer+0x3c>
 8021634:	2200      	movs	r2, #0
 8021636:	700a      	strb	r2, [r1, #0]
 8021638:	4610      	mov	r0, r2
 802163a:	4611      	mov	r1, r2
 802163c:	f7ff fc1c 	bl	8020e78 <ControlIndicator>
 8021640:	4806      	ldr	r0, [pc, #24]	; (802165c <CheckBlinkTimer+0x48>)
 8021642:	f008 fbfd 	bl	8029e40 <ResetTimer>
 8021646:	4805      	ldr	r0, [pc, #20]	; (802165c <CheckBlinkTimer+0x48>)
 8021648:	e8bd 4008 	ldmia.w	sp!, {r3, lr}
 802164c:	f008 bbf0 	b.w	8029e30 <SetTimer>
 8021650:	700b      	strb	r3, [r1, #0]
 8021652:	4618      	mov	r0, r3
 8021654:	4619      	mov	r1, r3
 8021656:	e7f1      	b.n	802163c <CheckBlinkTimer+0x28>
 8021658:	bd08      	pop	{r3, pc}
 802165a:	bf00      	nop
 802165c:	24000188 	.word	0x24000188
 8021660:	24000138 	.word	0x24000138
 8021664:	24000125 	.word	0x24000125
 8021668:	24000128 	.word	0x24000128

0802166c <CheckIllegalEnterTimer>:
 802166c:	2801      	cmp	r0, #1
 802166e:	b538      	push	{r3, r4, r5, lr}
 8021670:	4604      	mov	r4, r0
 8021672:	d12f      	bne.n	80216d4 <CheckIllegalEnterTimer+0x68>
 8021674:	4d29      	ldr	r5, [pc, #164]	; (802171c <CheckIllegalEnterTimer+0xb0>)
 8021676:	782b      	ldrb	r3, [r5, #0]
 8021678:	b1d3      	cbz	r3, 80216b0 <CheckIllegalEnterTimer+0x44>
 802167a:	4b29      	ldr	r3, [pc, #164]	; (8021720 <CheckIllegalEnterTimer+0xb4>)
 802167c:	4628      	mov	r0, r5
 802167e:	6819      	ldr	r1, [r3, #0]
 8021680:	f008 fbe2 	bl	8029e48 <IsTimeout>
 8021684:	2800      	cmp	r0, #0
 8021686:	d047      	beq.n	8021718 <CheckIllegalEnterTimer+0xac>
 8021688:	4628      	mov	r0, r5
 802168a:	f008 fbd9 	bl	8029e40 <ResetTimer>
 802168e:	4b25      	ldr	r3, [pc, #148]	; (8021724 <CheckIllegalEnterTimer+0xb8>)
 8021690:	4620      	mov	r0, r4
 8021692:	7f1a      	ldrb	r2, [r3, #28]
 8021694:	f042 0204 	orr.w	r2, r2, #4
 8021698:	771a      	strb	r2, [r3, #28]
 802169a:	7a1a      	ldrb	r2, [r3, #8]
 802169c:	f364 0202 	bfi	r2, r4, #0, #3
 80216a0:	721a      	strb	r2, [r3, #8]
 80216a2:	f7ff fe53 	bl	802134c <InhibitPass>
 80216a6:	4820      	ldr	r0, [pc, #128]	; (8021728 <CheckIllegalEnterTimer+0xbc>)
 80216a8:	e8bd 4038 	ldmia.w	sp!, {r3, r4, r5, lr}
 80216ac:	f004 bc5c 	b.w	8025f68 <printf_>
 80216b0:	4b1c      	ldr	r3, [pc, #112]	; (8021724 <CheckIllegalEnterTimer+0xb8>)
 80216b2:	7f1b      	ldrb	r3, [r3, #28]
 80216b4:	f013 0f04 	tst.w	r3, #4
 80216b8:	d12e      	bne.n	8021718 <CheckIllegalEnterTimer+0xac>
 80216ba:	4b1c      	ldr	r3, [pc, #112]	; (802172c <CheckIllegalEnterTimer+0xc0>)
 80216bc:	791b      	ldrb	r3, [r3, #4]
 80216be:	b35b      	cbz	r3, 8021718 <CheckIllegalEnterTimer+0xac>
 80216c0:	f44f 727a 	mov.w	r2, #1000	; 0x3e8
 80216c4:	4628      	mov	r0, r5
 80216c6:	4353      	muls	r3, r2
 80216c8:	4a15      	ldr	r2, [pc, #84]	; (8021720 <CheckIllegalEnterTimer+0xb4>)
 80216ca:	6013      	str	r3, [r2, #0]
 80216cc:	e8bd 4038 	ldmia.w	sp!, {r3, r4, r5, lr}
 80216d0:	f008 bbae 	b.w	8029e30 <SetTimer>
 80216d4:	2802      	cmp	r0, #2
 80216d6:	d11f      	bne.n	8021718 <CheckIllegalEnterTimer+0xac>
 80216d8:	4d15      	ldr	r5, [pc, #84]	; (8021730 <CheckIllegalEnterTimer+0xc4>)
 80216da:	782b      	ldrb	r3, [r5, #0]
 80216dc:	b1bb      	cbz	r3, 802170e <CheckIllegalEnterTimer+0xa2>
 80216de:	4b10      	ldr	r3, [pc, #64]	; (8021720 <CheckIllegalEnterTimer+0xb4>)
 80216e0:	4628      	mov	r0, r5
 80216e2:	6819      	ldr	r1, [r3, #0]
 80216e4:	f008 fbb0 	bl	8029e48 <IsTimeout>
 80216e8:	b1b0      	cbz	r0, 8021718 <CheckIllegalEnterTimer+0xac>
 80216ea:	4628      	mov	r0, r5
 80216ec:	f008 fba8 	bl	8029e40 <ResetTimer>
 80216f0:	4b0c      	ldr	r3, [pc, #48]	; (8021724 <CheckIllegalEnterTimer+0xb8>)
 80216f2:	2101      	movs	r1, #1
 80216f4:	4620      	mov	r0, r4
 80216f6:	7f1a      	ldrb	r2, [r3, #28]
 80216f8:	f042 0240 	orr.w	r2, r2, #64	; 0x40
 80216fc:	771a      	strb	r2, [r3, #28]
 80216fe:	7a1a      	ldrb	r2, [r3, #8]
 8021700:	f361 1206 	bfi	r2, r1, #4, #3
 8021704:	721a      	strb	r2, [r3, #8]
 8021706:	f7ff fe21 	bl	802134c <InhibitPass>
 802170a:	480a      	ldr	r0, [pc, #40]	; (8021734 <CheckIllegalEnterTimer+0xc8>)
 802170c:	e7cc      	b.n	80216a8 <CheckIllegalEnterTimer+0x3c>
 802170e:	4b05      	ldr	r3, [pc, #20]	; (8021724 <CheckIllegalEnterTimer+0xb8>)
 8021710:	7f1b      	ldrb	r3, [r3, #28]
 8021712:	f013 0f40 	tst.w	r3, #64	; 0x40
 8021716:	e7cf      	b.n	80216b8 <CheckIllegalEnterTimer+0x4c>
 8021718:	bd38      	pop	{r3, r4, r5, pc}
 802171a:	bf00      	nop
 802171c:	240001ac 	.word	0x240001ac
 8021720:	2400014c 	.word	0x2400014c
 8021724:	24000410 	.word	0x24000410
 8021728:	0802b329 	.word	0x0802b329
 802172c:	24000408 	.word	0x24000408
 8021730:	240001b8 	.word	0x240001b8
 8021734:	0802b34f 	.word	0x0802b34f

08021738 <SetAuthTimer>:
 8021738:	4b07      	ldr	r3, [pc, #28]	; (8021758 <SetAuthTimer+0x20>)
 802173a:	2000      	movs	r0, #0
 802173c:	4907      	ldr	r1, [pc, #28]	; (802175c <SetAuthTimer+0x24>)
 802173e:	781a      	ldrb	r2, [r3, #0]
 8021740:	4b07      	ldr	r3, [pc, #28]	; (8021760 <SetAuthTimer+0x28>)
 8021742:	2a3c      	cmp	r2, #60	; 0x3c
 8021744:	7008      	strb	r0, [r1, #0]
 8021746:	601a      	str	r2, [r3, #0]
 8021748:	bf88      	it	hi
 802174a:	223c      	movhi	r2, #60	; 0x3c
 802174c:	4805      	ldr	r0, [pc, #20]	; (8021764 <SetAuthTimer+0x2c>)
 802174e:	bf88      	it	hi
 8021750:	601a      	strhi	r2, [r3, #0]
 8021752:	f008 bb6d 	b.w	8029e30 <SetTimer>
 8021756:	bf00      	nop
 8021758:	24000408 	.word	0x24000408
 802175c:	24000151 	.word	0x24000151
 8021760:	24000134 	.word	0x24000134
 8021764:	24000158 	.word	0x24000158

08021768 <IncreaseAuthCount>:
 8021768:	b570      	push	{r4, r5, r6, lr}
 802176a:	4605      	mov	r5, r0
 802176c:	4601      	mov	r1, r0
 802176e:	481c      	ldr	r0, [pc, #112]	; (80217e0 <IncreaseAuthCount+0x78>)
 8021770:	f004 fbfa 	bl	8025f68 <printf_>
 8021774:	2d01      	cmp	r5, #1
 8021776:	4c1b      	ldr	r4, [pc, #108]	; (80217e4 <IncreaseAuthCount+0x7c>)
 8021778:	d124      	bne.n	80217c4 <IncreaseAuthCount+0x5c>
 802177a:	7922      	ldrb	r2, [r4, #4]
 802177c:	2aff      	cmp	r2, #255	; 0xff
 802177e:	b2d3      	uxtb	r3, r2
 8021780:	d002      	beq.n	8021788 <IncreaseAuthCount+0x20>
 8021782:	7923      	ldrb	r3, [r4, #4]
 8021784:	3301      	adds	r3, #1
 8021786:	b2db      	uxtb	r3, r3
 8021788:	7123      	strb	r3, [r4, #4]
 802178a:	7f23      	ldrb	r3, [r4, #28]
 802178c:	f36f 0382 	bfc	r3, #2, #1
 8021790:	7723      	strb	r3, [r4, #28]
 8021792:	4e15      	ldr	r6, [pc, #84]	; (80217e8 <IncreaseAuthCount+0x80>)
 8021794:	7833      	ldrb	r3, [r6, #0]
 8021796:	42ab      	cmp	r3, r5
 8021798:	d002      	beq.n	80217a0 <IncreaseAuthCount+0x38>
 802179a:	f7ff fe75 	bl	8021488 <ClearPassageAlarm>
 802179e:	7035      	strb	r5, [r6, #0]
 80217a0:	4628      	mov	r0, r5
 80217a2:	f7ff faf3 	bl	8020d8c <ControlBarrier>
 80217a6:	4811      	ldr	r0, [pc, #68]	; (80217ec <IncreaseAuthCount+0x84>)
 80217a8:	f008 fb4a 	bl	8029e40 <ResetTimer>
 80217ac:	4810      	ldr	r0, [pc, #64]	; (80217f0 <IncreaseAuthCount+0x88>)
 80217ae:	f008 fb47 	bl	8029e40 <ResetTimer>
 80217b2:	f7ff ffc1 	bl	8021738 <SetAuthTimer>
 80217b6:	7921      	ldrb	r1, [r4, #4]
 80217b8:	480e      	ldr	r0, [pc, #56]	; (80217f4 <IncreaseAuthCount+0x8c>)
 80217ba:	7962      	ldrb	r2, [r4, #5]
 80217bc:	e8bd 4070 	ldmia.w	sp!, {r4, r5, r6, lr}
 80217c0:	f004 bbd2 	b.w	8025f68 <printf_>
 80217c4:	2d02      	cmp	r5, #2
 80217c6:	d1e4      	bne.n	8021792 <IncreaseAuthCount+0x2a>
 80217c8:	7962      	ldrb	r2, [r4, #5]
 80217ca:	2aff      	cmp	r2, #255	; 0xff
 80217cc:	b2d3      	uxtb	r3, r2
 80217ce:	d002      	beq.n	80217d6 <IncreaseAuthCount+0x6e>
 80217d0:	7963      	ldrb	r3, [r4, #5]
 80217d2:	3301      	adds	r3, #1
 80217d4:	b2db      	uxtb	r3, r3
 80217d6:	7163      	strb	r3, [r4, #5]
 80217d8:	7f23      	ldrb	r3, [r4, #28]
 80217da:	f36f 1386 	bfc	r3, #6, #1
 80217de:	e7d7      	b.n	8021790 <IncreaseAuthCount+0x28>
 80217e0:	0802b375 	.word	0x0802b375
 80217e4:	24000410 	.word	0x24000410
 80217e8:	24000448 	.word	0x24000448
 80217ec:	240001e8 	.word	0x240001e8
 80217f0:	24000218 	.word	0x24000218
 80217f4:	0802b393 	.word	0x0802b393

080217f8 <SetTailgatingTimer>:
 80217f8:	4804      	ldr	r0, [pc, #16]	; (802180c <SetTailgatingTimer+0x14>)
 80217fa:	b508      	push	{r3, lr}
 80217fc:	f008 fb18 	bl	8029e30 <SetTimer>
 8021800:	4803      	ldr	r0, [pc, #12]	; (8021810 <SetTailgatingTimer+0x18>)
 8021802:	e8bd 4008 	ldmia.w	sp!, {r3, lr}
 8021806:	f008 bb13 	b.w	8029e30 <SetTimer>
 802180a:	bf00      	nop
 802180c:	2400023c 	.word	0x2400023c
 8021810:	24000230 	.word	0x24000230

08021814 <SetDoorControl>:
 8021814:	b928      	cbnz	r0, 8021822 <SetDoorControl+0xe>
 8021816:	4b12      	ldr	r3, [pc, #72]	; (8021860 <SetDoorControl+0x4c>)
 8021818:	781a      	ldrb	r2, [r3, #0]
 802181a:	4b12      	ldr	r3, [pc, #72]	; (8021864 <SetDoorControl+0x50>)
 802181c:	701a      	strb	r2, [r3, #0]
 802181e:	f7fe bf71 	b.w	8020704 <Brr_CloseBarrier>
 8021822:	2801      	cmp	r0, #1
 8021824:	d104      	bne.n	8021830 <SetDoorControl+0x1c>
 8021826:	4b0f      	ldr	r3, [pc, #60]	; (8021864 <SetDoorControl+0x50>)
 8021828:	7018      	strb	r0, [r3, #0]
 802182a:	2002      	movs	r0, #2
 802182c:	f7fe bf48 	b.w	80206c0 <Brr_OpenBarrier>
 8021830:	2802      	cmp	r0, #2
 8021832:	d103      	bne.n	802183c <SetDoorControl+0x28>
 8021834:	2001      	movs	r0, #1
 8021836:	4b0b      	ldr	r3, [pc, #44]	; (8021864 <SetDoorControl+0x50>)
 8021838:	7018      	strb	r0, [r3, #0]
 802183a:	e7f7      	b.n	802182c <SetDoorControl+0x18>
 802183c:	2803      	cmp	r0, #3
 802183e:	d105      	bne.n	802184c <SetDoorControl+0x38>
 8021840:	4b07      	ldr	r3, [pc, #28]	; (8021860 <SetDoorControl+0x4c>)
 8021842:	2201      	movs	r2, #1
 8021844:	2000      	movs	r0, #0
 8021846:	701a      	strb	r2, [r3, #0]
 8021848:	f7fe bf1c 	b.w	8020684 <Brr_SetEmergency>
 802184c:	2804      	cmp	r0, #4
 802184e:	d106      	bne.n	802185e <SetDoorControl+0x4a>
 8021850:	2300      	movs	r3, #0
 8021852:	4a03      	ldr	r2, [pc, #12]	; (8021860 <SetDoorControl+0x4c>)
 8021854:	2001      	movs	r0, #1
 8021856:	7013      	strb	r3, [r2, #0]
 8021858:	4a02      	ldr	r2, [pc, #8]	; (8021864 <SetDoorControl+0x50>)
 802185a:	7013      	strb	r3, [r2, #0]
 802185c:	e7f4      	b.n	8021848 <SetDoorControl+0x34>
 802185e:	4770      	bx	lr
 8021860:	24000452 	.word	0x24000452
 8021864:	24000451 	.word	0x24000451

08021868 <SendACK>:
 8021868:	2006      	movs	r0, #6
 802186a:	f003 b8e3 	b.w	8024a34 <U3_Putch>

0802186e <SendNAK>:
 802186e:	2015      	movs	r0, #21
 8021870:	f003 b8e0 	b.w	8024a34 <U3_Putch>

08021874 <IsCommandNeedResponse>:
 8021874:	b51f      	push	{r0, r1, r2, r3, r4, lr}
 8021876:	4c0b      	ldr	r4, [pc, #44]	; (80218a4 <IsCommandNeedResponse+0x30>)
 8021878:	4602      	mov	r2, r0
 802187a:	ab01      	add	r3, sp, #4
 802187c:	6861      	ldr	r1, [r4, #4]
 802187e:	6820      	ldr	r0, [r4, #0]
 8021880:	c303      	stmia	r3!, {r0, r1}
 8021882:	8921      	ldrh	r1, [r4, #8]
 8021884:	8019      	strh	r1, [r3, #0]
 8021886:	a901      	add	r1, sp, #4
 8021888:	2300      	movs	r3, #0
 802188a:	f811 0b01 	ldrb.w	r0, [r1], #1
 802188e:	4290      	cmp	r0, r2
 8021890:	d005      	beq.n	802189e <IsCommandNeedResponse+0x2a>
 8021892:	3301      	adds	r3, #1
 8021894:	2b0a      	cmp	r3, #10
 8021896:	d1f8      	bne.n	802188a <IsCommandNeedResponse+0x16>
 8021898:	2001      	movs	r0, #1
 802189a:	b004      	add	sp, #16
 802189c:	bd10      	pop	{r4, pc}
 802189e:	2000      	movs	r0, #0
 80218a0:	e7fb      	b.n	802189a <IsCommandNeedResponse+0x26>
 80218a2:	bf00      	nop
 80218a4:	0802b3c1 	.word	0x0802b3c1

080218a8 <MakeResponse>:
 80218a8:	460a      	mov	r2, r1
 80218aa:	490d      	ldr	r1, [pc, #52]	; (80218e0 <MakeResponse+0x38>)
 80218ac:	b410      	push	{r4}
 80218ae:	780b      	ldrb	r3, [r1, #0]
 80218b0:	4c0c      	ldr	r4, [pc, #48]	; (80218e4 <MakeResponse+0x3c>)
 80218b2:	7023      	strb	r3, [r4, #0]
 80218b4:	784b      	ldrb	r3, [r1, #1]
 80218b6:	2bff      	cmp	r3, #255	; 0xff
 80218b8:	bf16      	itet	ne
 80218ba:	3301      	addne	r3, #1
 80218bc:	2300      	moveq	r3, #0
 80218be:	b2db      	uxtbne	r3, r3
 80218c0:	7063      	strb	r3, [r4, #1]
 80218c2:	78cb      	ldrb	r3, [r1, #3]
 80218c4:	70e3      	strb	r3, [r4, #3]
 80218c6:	1c53      	adds	r3, r2, #1
 80218c8:	70a3      	strb	r3, [r4, #2]
 80218ca:	b12a      	cbz	r2, 80218d8 <MakeResponse+0x30>
 80218cc:	4601      	mov	r1, r0
 80218ce:	f85d 4b04 	ldr.w	r4, [sp], #4
 80218d2:	4805      	ldr	r0, [pc, #20]	; (80218e8 <MakeResponse+0x40>)
 80218d4:	f008 bb18 	b.w	8029f08 <memcpy>
 80218d8:	f85d 4b04 	ldr.w	r4, [sp], #4
 80218dc:	4770      	bx	lr
 80218de:	bf00      	nop
 80218e0:	24000254 	.word	0x24000254
 80218e4:	240002d4 	.word	0x240002d4
 80218e8:	240002d8 	.word	0x240002d8

080218ec <SendResponse>:
 80218ec:	b570      	push	{r4, r5, r6, lr}
 80218ee:	4c17      	ldr	r4, [pc, #92]	; (802194c <SendResponse+0x60>)
 80218f0:	2502      	movs	r5, #2
 80218f2:	2002      	movs	r0, #2
 80218f4:	78a6      	ldrb	r6, [r4, #2]
 80218f6:	f003 f89d 	bl	8024a34 <U3_Putch>
 80218fa:	f814 0b01 	ldrb.w	r0, [r4], #1
 80218fe:	1e83      	subs	r3, r0, #2
 8021900:	2b01      	cmp	r3, #1
 8021902:	d901      	bls.n	8021908 <SendResponse+0x1c>
 8021904:	2810      	cmp	r0, #16
 8021906:	d11b      	bne.n	8021940 <SendResponse+0x54>
 8021908:	2010      	movs	r0, #16
 802190a:	f085 0510 	eor.w	r5, r5, #16
 802190e:	f003 f891 	bl	8024a34 <U3_Putch>
 8021912:	f814 0c01 	ldrb.w	r0, [r4, #-1]
 8021916:	3040      	adds	r0, #64	; 0x40
 8021918:	b2c0      	uxtb	r0, r0
 802191a:	f003 f88b 	bl	8024a34 <U3_Putch>
 802191e:	f814 3c01 	ldrb.w	r3, [r4, #-1]
 8021922:	3340      	adds	r3, #64	; 0x40
 8021924:	405d      	eors	r5, r3
 8021926:	b2ed      	uxtb	r5, r5
 8021928:	3e01      	subs	r6, #1
 802192a:	1cf3      	adds	r3, r6, #3
 802192c:	d1e5      	bne.n	80218fa <SendResponse+0xe>
 802192e:	2003      	movs	r0, #3
 8021930:	f003 f880 	bl	8024a34 <U3_Putch>
 8021934:	f085 0003 	eor.w	r0, r5, #3
 8021938:	e8bd 4070 	ldmia.w	sp!, {r4, r5, r6, lr}
 802193c:	f003 b87a 	b.w	8024a34 <U3_Putch>
 8021940:	f003 f878 	bl	8024a34 <U3_Putch>
 8021944:	f814 3c01 	ldrb.w	r3, [r4, #-1]
 8021948:	405d      	eors	r5, r3
 802194a:	e7ed      	b.n	8021928 <SendResponse+0x3c>
 802194c:	240002d4 	.word	0x240002d4

08021950 <CMDSetGCUOpMode>:
 8021950:	4804      	ldr	r0, [pc, #16]	; (8021964 <CMDSetGCUOpMode+0x14>)
 8021952:	b508      	push	{r3, lr}
 8021954:	f7ff f8fa 	bl	8020b4c <SetNewOpMode>
 8021958:	2104      	movs	r1, #4
 802195a:	4802      	ldr	r0, [pc, #8]	; (8021964 <CMDSetGCUOpMode+0x14>)
 802195c:	e8bd 4008 	ldmia.w	sp!, {r3, lr}
 8021960:	f7ff bfa2 	b.w	80218a8 <MakeResponse>
 8021964:	24000258 	.word	0x24000258

08021968 <CMDGetGCUOpMode>:
 8021968:	b507      	push	{r0, r1, r2, lr}
 802196a:	a801      	add	r0, sp, #4
 802196c:	f7ff f950 	bl	8020c10 <GetCurrentOpMode>
 8021970:	2104      	movs	r1, #4
 8021972:	eb0d 0001 	add.w	r0, sp, r1
 8021976:	f7ff ff97 	bl	80218a8 <MakeResponse>
 802197a:	b003      	add	sp, #12
 802197c:	f85d fb04 	ldr.w	pc, [sp], #4

08021980 <CMDSetGCUParameter>:
 8021980:	4807      	ldr	r0, [pc, #28]	; (80219a0 <CMDSetGCUParameter+0x20>)
 8021982:	7881      	ldrb	r1, [r0, #2]
 8021984:	3004      	adds	r0, #4
 8021986:	3901      	subs	r1, #1
 8021988:	b510      	push	{r4, lr}
 802198a:	4c06      	ldr	r4, [pc, #24]	; (80219a4 <CMDSetGCUParameter+0x24>)
 802198c:	6021      	str	r1, [r4, #0]
 802198e:	f7ff f945 	bl	8020c1c <SetGCUParameter>
 8021992:	6821      	ldr	r1, [r4, #0]
 8021994:	4804      	ldr	r0, [pc, #16]	; (80219a8 <CMDSetGCUParameter+0x28>)
 8021996:	e8bd 4010 	ldmia.w	sp!, {r4, lr}
 802199a:	f7ff bf85 	b.w	80218a8 <MakeResponse>
 802199e:	bf00      	nop
 80219a0:	24000254 	.word	0x24000254
 80219a4:	24000000 	.word	0x24000000
 80219a8:	24000258 	.word	0x24000258

080219ac <CMDGetGCUParameter>:
 80219ac:	b507      	push	{r0, r1, r2, lr}
 80219ae:	4668      	mov	r0, sp
 80219b0:	f7ff f958 	bl	8020c64 <GetGCUParameter>
 80219b4:	4b03      	ldr	r3, [pc, #12]	; (80219c4 <CMDGetGCUParameter+0x18>)
 80219b6:	4668      	mov	r0, sp
 80219b8:	6819      	ldr	r1, [r3, #0]
 80219ba:	f7ff ff75 	bl	80218a8 <MakeResponse>
 80219be:	b003      	add	sp, #12
 80219c0:	f85d fb04 	ldr.w	pc, [sp], #4
 80219c4:	24000000 	.word	0x24000000

080219c8 <CMDGetVersion>:
 80219c8:	2108      	movs	r1, #8
 80219ca:	4801      	ldr	r0, [pc, #4]	; (80219d0 <CMDGetVersion+0x8>)
 80219cc:	f7ff bf6c 	b.w	80218a8 <MakeResponse>
 80219d0:	0802b3cc 	.word	0x0802b3cc

080219d4 <CMDSetScadaOut>:
 80219d4:	4b03      	ldr	r3, [pc, #12]	; (80219e4 <CMDSetScadaOut+0x10>)
 80219d6:	4a04      	ldr	r2, [pc, #16]	; (80219e8 <CMDSetScadaOut+0x14>)
 80219d8:	791b      	ldrb	r3, [r3, #4]
 80219da:	f003 030f 	and.w	r3, r3, #15
 80219de:	7013      	strb	r3, [r2, #0]
 80219e0:	4770      	bx	lr
 80219e2:	bf00      	nop
 80219e4:	24000254 	.word	0x24000254
 80219e8:	64000400 	.word	0x64000400

080219ec <CMDResetGCU>:
 80219ec:	2100      	movs	r1, #0
 80219ee:	b508      	push	{r3, lr}
 80219f0:	4608      	mov	r0, r1
 80219f2:	f7ff ff59 	bl	80218a8 <MakeResponse>
 80219f6:	f7ff ff79 	bl	80218ec <SendResponse>
 80219fa:	2032      	movs	r0, #50	; 0x32
 80219fc:	f004 feca 	bl	8026794 <HAL_Delay>
 8021a00:	f3bf 8f4f 	dsb	sy
 8021a04:	4905      	ldr	r1, [pc, #20]	; (8021a1c <CMDResetGCU+0x30>)
 8021a06:	4b06      	ldr	r3, [pc, #24]	; (8021a20 <CMDResetGCU+0x34>)
 8021a08:	68ca      	ldr	r2, [r1, #12]
 8021a0a:	f402 62e0 	and.w	r2, r2, #1792	; 0x700
 8021a0e:	4313      	orrs	r3, r2
 8021a10:	60cb      	str	r3, [r1, #12]
 8021a12:	f3bf 8f4f 	dsb	sy
 8021a16:	bf00      	nop
 8021a18:	e7fd      	b.n	8021a16 <CMDResetGCU+0x2a>
 8021a1a:	bf00      	nop
 8021a1c:	e000ed00 	.word	0xe000ed00
 8021a20:	05fa0004 	.word	0x05fa0004

08021a24 <CMDAuthorizePass>:
 8021a24:	b513      	push	{r0, r1, r4, lr}
 8021a26:	4c17      	ldr	r4, [pc, #92]	; (8021a84 <CMDAuthorizePass+0x60>)
 8021a28:	7961      	ldrb	r1, [r4, #5]
 8021a2a:	b951      	cbnz	r1, 8021a42 <CMDAuthorizePass+0x1e>
 8021a2c:	7922      	ldrb	r2, [r4, #4]
 8021a2e:	4816      	ldr	r0, [pc, #88]	; (8021a88 <CMDAuthorizePass+0x64>)
 8021a30:	f004 fa9a 	bl	8025f68 <printf_>
 8021a34:	7922      	ldrb	r2, [r4, #4]
 8021a36:	7961      	ldrb	r1, [r4, #5]
 8021a38:	4814      	ldr	r0, [pc, #80]	; (8021a8c <CMDAuthorizePass+0x68>)
 8021a3a:	f004 fa95 	bl	8025f68 <printf_>
 8021a3e:	2301      	movs	r3, #1
 8021a40:	7163      	strb	r3, [r4, #5]
 8021a42:	7920      	ldrb	r0, [r4, #4]
 8021a44:	f7ff fe90 	bl	8021768 <IncreaseAuthCount>
 8021a48:	7923      	ldrb	r3, [r4, #4]
 8021a4a:	79a0      	ldrb	r0, [r4, #6]
 8021a4c:	2b01      	cmp	r3, #1
 8021a4e:	f04f 0300 	mov.w	r3, #0
 8021a52:	461a      	mov	r2, r3
 8021a54:	d10f      	bne.n	8021a76 <CMDAuthorizePass+0x52>
 8021a56:	4619      	mov	r1, r3
 8021a58:	f7ff fa0e 	bl	8020e78 <ControlIndicator>
 8021a5c:	2102      	movs	r1, #2
 8021a5e:	79e0      	ldrb	r0, [r4, #7]
 8021a60:	f7ff f9da 	bl	8020e18 <ControlDirectionLED>
 8021a64:	a801      	add	r0, sp, #4
 8021a66:	f7ff f96f 	bl	8020d48 <GetAuthCount>
 8021a6a:	2102      	movs	r1, #2
 8021a6c:	a801      	add	r0, sp, #4
 8021a6e:	f7ff ff1b 	bl	80218a8 <MakeResponse>
 8021a72:	b002      	add	sp, #8
 8021a74:	bd10      	pop	{r4, pc}
 8021a76:	4601      	mov	r1, r0
 8021a78:	4618      	mov	r0, r3
 8021a7a:	f7ff f9fd 	bl	8020e78 <ControlIndicator>
 8021a7e:	79e1      	ldrb	r1, [r4, #7]
 8021a80:	2002      	movs	r0, #2
 8021a82:	e7ed      	b.n	8021a60 <CMDAuthorizePass+0x3c>
 8021a84:	24000254 	.word	0x24000254
 8021a88:	0802b3d4 	.word	0x0802b3d4
 8021a8c:	0802b403 	.word	0x0802b403

08021a90 <CMDClearAuthorization>:
 8021a90:	b507      	push	{r0, r1, r2, lr}
 8021a92:	f7ff f961 	bl	8020d58 <ClearAuthCount>
 8021a96:	a801      	add	r0, sp, #4
 8021a98:	f7ff f956 	bl	8020d48 <GetAuthCount>
 8021a9c:	2102      	movs	r1, #2
 8021a9e:	a801      	add	r0, sp, #4
 8021aa0:	f7ff ff02 	bl	80218a8 <MakeResponse>
 8021aa4:	b003      	add	sp, #12
 8021aa6:	f85d fb04 	ldr.w	pc, [sp], #4
	...

08021aac <CMDGetStatus>:
 8021aac:	b57f      	push	{r0, r1, r2, r3, r4, r5, r6, lr}
 8021aae:	4b07      	ldr	r3, [pc, #28]	; (8021acc <CMDGetStatus+0x20>)
 8021ab0:	a801      	add	r0, sp, #4
 8021ab2:	791a      	ldrb	r2, [r3, #4]
 8021ab4:	4b06      	ldr	r3, [pc, #24]	; (8021ad0 <CMDGetStatus+0x24>)
 8021ab6:	701a      	strb	r2, [r3, #0]
 8021ab8:	f7ff f8dc 	bl	8020c74 <GetGCUStatus>
 8021abc:	2112      	movs	r1, #18
 8021abe:	a801      	add	r0, sp, #4
 8021ac0:	f7ff fef2 	bl	80218a8 <MakeResponse>
 8021ac4:	b007      	add	sp, #28
 8021ac6:	f85d fb04 	ldr.w	pc, [sp], #4
 8021aca:	bf00      	nop
 8021acc:	24000254 	.word	0x24000254
 8021ad0:	24000450 	.word	0x24000450

08021ad4 <CMDGetMemoryTest>:
 8021ad4:	b513      	push	{r0, r1, r4, lr}
 8021ad6:	4c0a      	ldr	r4, [pc, #40]	; (8021b00 <CMDGetMemoryTest+0x2c>)
 8021ad8:	7920      	ldrb	r0, [r4, #4]
 8021ada:	f002 fe8d 	bl	80247f8 <Test_SpiFlash_Write>
 8021ade:	7920      	ldrb	r0, [r4, #4]
 8021ae0:	f002 feae 	bl	8024840 <Test_SpiFlash_Read>
 8021ae4:	b148      	cbz	r0, 8021afa <CMDGetMemoryTest+0x26>
 8021ae6:	7923      	ldrb	r3, [r4, #4]
 8021ae8:	2101      	movs	r1, #1
 8021aea:	f10d 0007 	add.w	r0, sp, #7
 8021aee:	f88d 3007 	strb.w	r3, [sp, #7]
 8021af2:	f7ff fed9 	bl	80218a8 <MakeResponse>
 8021af6:	b002      	add	sp, #8
 8021af8:	bd10      	pop	{r4, pc}
 8021afa:	23ff      	movs	r3, #255	; 0xff
 8021afc:	e7f4      	b.n	8021ae8 <CMDGetMemoryTest+0x14>
 8021afe:	bf00      	nop
 8021b00:	24000254 	.word	0x24000254

08021b04 <CMDControlAllLED>:
 8021b04:	b510      	push	{r4, lr}
 8021b06:	4c0e      	ldr	r4, [pc, #56]	; (8021b40 <CMDControlAllLED+0x3c>)
 8021b08:	7923      	ldrb	r3, [r4, #4]
 8021b0a:	7960      	ldrb	r0, [r4, #5]
 8021b0c:	2b01      	cmp	r3, #1
 8021b0e:	d10c      	bne.n	8021b2a <CMDControlAllLED+0x26>
 8021b10:	79a1      	ldrb	r1, [r4, #6]
 8021b12:	f7ff f99f 	bl	8020e54 <ControlStatusLED>
 8021b16:	7aa1      	ldrb	r1, [r4, #10]
 8021b18:	7a60      	ldrb	r0, [r4, #9]
 8021b1a:	f7ff f9a4 	bl	8020e66 <ControlOverheadDisplay>
 8021b1e:	7a21      	ldrb	r1, [r4, #8]
 8021b20:	79e0      	ldrb	r0, [r4, #7]
 8021b22:	e8bd 4010 	ldmia.w	sp!, {r4, lr}
 8021b26:	f7ff b9ed 	b.w	8020f04 <ControlIndicator4Test>
 8021b2a:	4601      	mov	r1, r0
 8021b2c:	f7ff f974 	bl	8020e18 <ControlDirectionLED>
 8021b30:	2300      	movs	r3, #0
 8021b32:	7a21      	ldrb	r1, [r4, #8]
 8021b34:	79e0      	ldrb	r0, [r4, #7]
 8021b36:	461a      	mov	r2, r3
 8021b38:	e8bd 4010 	ldmia.w	sp!, {r4, lr}
 8021b3c:	f7ff b99c 	b.w	8020e78 <ControlIndicator>
 8021b40:	24000254 	.word	0x24000254

08021b44 <CMDControlBarrier>:
 8021b44:	4b01      	ldr	r3, [pc, #4]	; (8021b4c <CMDControlBarrier+0x8>)
 8021b46:	7918      	ldrb	r0, [r3, #4]
 8021b48:	f7ff be64 	b.w	8021814 <SetDoorControl>
 8021b4c:	24000254 	.word	0x24000254

08021b50 <CMDControlIndicator>:
 8021b50:	4b02      	ldr	r3, [pc, #8]	; (8021b5c <CMDControlIndicator+0xc>)
 8021b52:	7959      	ldrb	r1, [r3, #5]
 8021b54:	7918      	ldrb	r0, [r3, #4]
 8021b56:	f7ff b9d5 	b.w	8020f04 <ControlIndicator4Test>
 8021b5a:	bf00      	nop
 8021b5c:	24000254 	.word	0x24000254

08021b60 <CMDControlLamp>:
 8021b60:	4b02      	ldr	r3, [pc, #8]	; (8021b6c <CMDControlLamp+0xc>)
 8021b62:	7959      	ldrb	r1, [r3, #5]
 8021b64:	7918      	ldrb	r0, [r3, #4]
 8021b66:	f7ff b975 	b.w	8020e54 <ControlStatusLED>
 8021b6a:	bf00      	nop
 8021b6c:	24000254 	.word	0x24000254

08021b70 <CMDControlBuzzer>:
 8021b70:	4b05      	ldr	r3, [pc, #20]	; (8021b88 <CMDControlBuzzer+0x18>)
 8021b72:	789a      	ldrb	r2, [r3, #2]
 8021b74:	2a04      	cmp	r2, #4
 8021b76:	d102      	bne.n	8021b7e <CMDControlBuzzer+0xe>
 8021b78:	799a      	ldrb	r2, [r3, #6]
 8021b7a:	07d2      	lsls	r2, r2, #31
 8021b7c:	d503      	bpl.n	8021b86 <CMDControlBuzzer+0x16>
 8021b7e:	7959      	ldrb	r1, [r3, #5]
 8021b80:	7918      	ldrb	r0, [r3, #4]
 8021b82:	f7ff b929 	b.w	8020dd8 <ControlBuzzer>
 8021b86:	4770      	bx	lr
 8021b88:	24000254 	.word	0x24000254

08021b8c <CMDSafetyStop>:
 8021b8c:	4b02      	ldr	r3, [pc, #8]	; (8021b98 <CMDSafetyStop+0xc>)
 8021b8e:	791a      	ldrb	r2, [r3, #4]
 8021b90:	4b02      	ldr	r3, [pc, #8]	; (8021b9c <CMDSafetyStop+0x10>)
 8021b92:	701a      	strb	r2, [r3, #0]
 8021b94:	4770      	bx	lr
 8021b96:	bf00      	nop
 8021b98:	24000254 	.word	0x24000254
 8021b9c:	24000450 	.word	0x24000450

08021ba0 <CMDWriteRegister>:
 8021ba0:	b510      	push	{r4, lr}
 8021ba2:	4c35      	ldr	r4, [pc, #212]	; (8021c78 <CMDWriteRegister+0xd8>)
 8021ba4:	7922      	ldrb	r2, [r4, #4]
 8021ba6:	f994 3004 	ldrsb.w	r3, [r4, #4]
 8021baa:	f002 0201 	and.w	r2, r2, #1
 8021bae:	f003 03fe 	and.w	r3, r3, #254	; 0xfe
 8021bb2:	4313      	orrs	r3, r2
 8021bb4:	4a31      	ldr	r2, [pc, #196]	; (8021c7c <CMDWriteRegister+0xdc>)
 8021bb6:	7013      	strb	r3, [r2, #0]
 8021bb8:	7962      	ldrb	r2, [r4, #5]
 8021bba:	f994 3005 	ldrsb.w	r3, [r4, #5]
 8021bbe:	f002 0201 	and.w	r2, r2, #1
 8021bc2:	f003 031e 	and.w	r3, r3, #30
 8021bc6:	4313      	orrs	r3, r2
 8021bc8:	4a2d      	ldr	r2, [pc, #180]	; (8021c80 <CMDWriteRegister+0xe0>)
 8021bca:	7013      	strb	r3, [r2, #0]
 8021bcc:	79e0      	ldrb	r0, [r4, #7]
 8021bce:	f994 3007 	ldrsb.w	r3, [r4, #7]
 8021bd2:	7a22      	ldrb	r2, [r4, #8]
 8021bd4:	f000 0001 	and.w	r0, r0, #1
 8021bd8:	f003 030e 	and.w	r3, r3, #14
 8021bdc:	0112      	lsls	r2, r2, #4
 8021bde:	4303      	orrs	r3, r0
 8021be0:	f002 0010 	and.w	r0, r2, #16
 8021be4:	b251      	sxtb	r1, r2
 8021be6:	4303      	orrs	r3, r0
 8021be8:	f002 0020 	and.w	r0, r2, #32
 8021bec:	f002 0240 	and.w	r2, r2, #64	; 0x40
 8021bf0:	4303      	orrs	r3, r0
 8021bf2:	4313      	orrs	r3, r2
 8021bf4:	f021 027f 	bic.w	r2, r1, #127	; 0x7f
 8021bf8:	4313      	orrs	r3, r2
 8021bfa:	f04f 42c8 	mov.w	r2, #1677721600	; 0x64000000
 8021bfe:	b2db      	uxtb	r3, r3
 8021c00:	7013      	strb	r3, [r2, #0]
 8021c02:	7aa1      	ldrb	r1, [r4, #10]
 8021c04:	7ae2      	ldrb	r2, [r4, #11]
 8021c06:	104b      	asrs	r3, r1, #1
 8021c08:	0048      	lsls	r0, r1, #1
 8021c0a:	f001 0101 	and.w	r1, r1, #1
 8021c0e:	f003 0302 	and.w	r3, r3, #2
 8021c12:	f000 0004 	and.w	r0, r0, #4
 8021c16:	4303      	orrs	r3, r0
 8021c18:	430b      	orrs	r3, r1
 8021c1a:	0111      	lsls	r1, r2, #4
 8021c1c:	f001 0110 	and.w	r1, r1, #16
 8021c20:	430b      	orrs	r3, r1
 8021c22:	00d1      	lsls	r1, r2, #3
 8021c24:	0152      	lsls	r2, r2, #5
 8021c26:	f001 0120 	and.w	r1, r1, #32
 8021c2a:	f002 0240 	and.w	r2, r2, #64	; 0x40
 8021c2e:	430b      	orrs	r3, r1
 8021c30:	4313      	orrs	r3, r2
 8021c32:	4a14      	ldr	r2, [pc, #80]	; (8021c84 <CMDWriteRegister+0xe4>)
 8021c34:	7013      	strb	r3, [r2, #0]
 8021c36:	7b22      	ldrb	r2, [r4, #12]
 8021c38:	2a33      	cmp	r2, #51	; 0x33
 8021c3a:	d10f      	bne.n	8021c5c <CMDWriteRegister+0xbc>
 8021c3c:	2201      	movs	r2, #1
 8021c3e:	2140      	movs	r1, #64	; 0x40
 8021c40:	4811      	ldr	r0, [pc, #68]	; (8021c88 <CMDWriteRegister+0xe8>)
 8021c42:	f005 f8b7 	bl	8026db4 <HAL_GPIO_WritePin>
 8021c46:	2201      	movs	r2, #1
 8021c48:	2180      	movs	r1, #128	; 0x80
 8021c4a:	480f      	ldr	r0, [pc, #60]	; (8021c88 <CMDWriteRegister+0xe8>)
 8021c4c:	f005 f8b2 	bl	8026db4 <HAL_GPIO_WritePin>
 8021c50:	7ba3      	ldrb	r3, [r4, #14]
 8021c52:	b16b      	cbz	r3, 8021c70 <CMDWriteRegister+0xd0>
 8021c54:	e8bd 4010 	ldmia.w	sp!, {r4, lr}
 8021c58:	f001 bf7c 	b.w	8023b54 <BuzzerOn>
 8021c5c:	f3c2 0240 	ubfx	r2, r2, #1, #1
 8021c60:	2140      	movs	r1, #64	; 0x40
 8021c62:	4809      	ldr	r0, [pc, #36]	; (8021c88 <CMDWriteRegister+0xe8>)
 8021c64:	f005 f8a6 	bl	8026db4 <HAL_GPIO_WritePin>
 8021c68:	7b22      	ldrb	r2, [r4, #12]
 8021c6a:	f002 0201 	and.w	r2, r2, #1
 8021c6e:	e7eb      	b.n	8021c48 <CMDWriteRegister+0xa8>
 8021c70:	e8bd 4010 	ldmia.w	sp!, {r4, lr}
 8021c74:	f001 bf80 	b.w	8023b78 <BuzzerOff>
 8021c78:	24000254 	.word	0x24000254
 8021c7c:	64000200 	.word	0x64000200
 8021c80:	64000400 	.word	0x64000400
 8021c84:	64000100 	.word	0x64000100
 8021c88:	58021400 	.word	0x58021400

08021c8c <CMDReadRegister>:
 8021c8c:	b5f0      	push	{r4, r5, r6, r7, lr}
 8021c8e:	2400      	movs	r4, #0
 8021c90:	b087      	sub	sp, #28
 8021c92:	f44f 6180 	mov.w	r1, #1024	; 0x400
 8021c96:	485e      	ldr	r0, [pc, #376]	; (8021e10 <CMDReadRegister+0x184>)
 8021c98:	f88d 4007 	strb.w	r4, [sp, #7]
 8021c9c:	f005 f884 	bl	8026da8 <HAL_GPIO_ReadPin>
 8021ca0:	1b06      	subs	r6, r0, r4
 8021ca2:	f44f 7180 	mov.w	r1, #256	; 0x100
 8021ca6:	485a      	ldr	r0, [pc, #360]	; (8021e10 <CMDReadRegister+0x184>)
 8021ca8:	bf18      	it	ne
 8021caa:	2601      	movne	r6, #1
 8021cac:	f005 f87c 	bl	8026da8 <HAL_GPIO_ReadPin>
 8021cb0:	42a0      	cmp	r0, r4
 8021cb2:	f44f 7100 	mov.w	r1, #512	; 0x200
 8021cb6:	4856      	ldr	r0, [pc, #344]	; (8021e10 <CMDReadRegister+0x184>)
 8021cb8:	bf0c      	ite	eq
 8021cba:	4625      	moveq	r5, r4
 8021cbc:	2502      	movne	r5, #2
 8021cbe:	f005 f873 	bl	8026da8 <HAL_GPIO_ReadPin>
 8021cc2:	42a0      	cmp	r0, r4
 8021cc4:	ea45 0506 	orr.w	r5, r5, r6
 8021cc8:	f44f 6180 	mov.w	r1, #1024	; 0x400
 8021ccc:	bf0c      	ite	eq
 8021cce:	4620      	moveq	r0, r4
 8021cd0:	2004      	movne	r0, #4
 8021cd2:	4305      	orrs	r5, r0
 8021cd4:	484f      	ldr	r0, [pc, #316]	; (8021e14 <CMDReadRegister+0x188>)
 8021cd6:	f005 f867 	bl	8026da8 <HAL_GPIO_ReadPin>
 8021cda:	1b07      	subs	r7, r0, r4
 8021cdc:	f44f 6100 	mov.w	r1, #2048	; 0x800
 8021ce0:	484c      	ldr	r0, [pc, #304]	; (8021e14 <CMDReadRegister+0x188>)
 8021ce2:	bf18      	it	ne
 8021ce4:	2701      	movne	r7, #1
 8021ce6:	f005 f85f 	bl	8026da8 <HAL_GPIO_ReadPin>
 8021cea:	42a0      	cmp	r0, r4
 8021cec:	f04f 0101 	mov.w	r1, #1
 8021cf0:	4848      	ldr	r0, [pc, #288]	; (8021e14 <CMDReadRegister+0x188>)
 8021cf2:	bf0c      	ite	eq
 8021cf4:	4626      	moveq	r6, r4
 8021cf6:	2602      	movne	r6, #2
 8021cf8:	f005 f856 	bl	8026da8 <HAL_GPIO_ReadPin>
 8021cfc:	42a0      	cmp	r0, r4
 8021cfe:	ea46 0607 	orr.w	r6, r6, r7
 8021d02:	f04f 0102 	mov.w	r1, #2
 8021d06:	bf0c      	ite	eq
 8021d08:	4623      	moveq	r3, r4
 8021d0a:	2304      	movne	r3, #4
 8021d0c:	4841      	ldr	r0, [pc, #260]	; (8021e14 <CMDReadRegister+0x188>)
 8021d0e:	431e      	orrs	r6, r3
 8021d10:	f005 f84a 	bl	8026da8 <HAL_GPIO_ReadPin>
 8021d14:	4940      	ldr	r1, [pc, #256]	; (8021e18 <CMDReadRegister+0x18c>)
 8021d16:	42a0      	cmp	r0, r4
 8021d18:	4840      	ldr	r0, [pc, #256]	; (8021e1c <CMDReadRegister+0x190>)
 8021d1a:	780a      	ldrb	r2, [r1, #0]
 8021d1c:	bf0c      	ite	eq
 8021d1e:	4623      	moveq	r3, r4
 8021d20:	2308      	movne	r3, #8
 8021d22:	f002 020f 	and.w	r2, r2, #15
 8021d26:	4333      	orrs	r3, r6
 8021d28:	f88d 2008 	strb.w	r2, [sp, #8]
 8021d2c:	780a      	ldrb	r2, [r1, #0]
 8021d2e:	f44f 7100 	mov.w	r1, #512	; 0x200
 8021d32:	0912      	lsrs	r2, r2, #4
 8021d34:	f88d 2009 	strb.w	r2, [sp, #9]
 8021d38:	6902      	ldr	r2, [r0, #16]
 8021d3a:	43d2      	mvns	r2, r2
 8021d3c:	f88d 200a 	strb.w	r2, [sp, #10]
 8021d40:	f04f 42c0 	mov.w	r2, #1610612736	; 0x60000000
 8021d44:	7812      	ldrb	r2, [r2, #0]
 8021d46:	f88d 200b 	strb.w	r2, [sp, #11]
 8021d4a:	4a35      	ldr	r2, [pc, #212]	; (8021e20 <CMDReadRegister+0x194>)
 8021d4c:	7812      	ldrb	r2, [r2, #0]
 8021d4e:	f88d 300d 	strb.w	r3, [sp, #13]
 8021d52:	4b34      	ldr	r3, [pc, #208]	; (8021e24 <CMDReadRegister+0x198>)
 8021d54:	f88d 200c 	strb.w	r2, [sp, #12]
 8021d58:	f88d 400e 	strb.w	r4, [sp, #14]
 8021d5c:	781b      	ldrb	r3, [r3, #0]
 8021d5e:	f88d 300f 	strb.w	r3, [sp, #15]
 8021d62:	4b31      	ldr	r3, [pc, #196]	; (8021e28 <CMDReadRegister+0x19c>)
 8021d64:	781b      	ldrb	r3, [r3, #0]
 8021d66:	f88d 3010 	strb.w	r3, [sp, #16]
 8021d6a:	f005 f81d 	bl	8026da8 <HAL_GPIO_ReadPin>
 8021d6e:	2107      	movs	r1, #7
 8021d70:	f88d 0011 	strb.w	r0, [sp, #17]
 8021d74:	4620      	mov	r0, r4
 8021d76:	f88d 5012 	strb.w	r5, [sp, #18]
 8021d7a:	f002 f941 	bl	8024000 <IUart_SendByte>
 8021d7e:	f10d 0107 	add.w	r1, sp, #7
 8021d82:	4620      	mov	r0, r4
 8021d84:	f002 f984 	bl	8024090 <IUart_RecvByte_check>
 8021d88:	2801      	cmp	r0, #1
 8021d8a:	f04f 0107 	mov.w	r1, #7
 8021d8e:	f04f 0001 	mov.w	r0, #1
 8021d92:	bf08      	it	eq
 8021d94:	f89d 4007 	ldrbeq.w	r4, [sp, #7]
 8021d98:	f88d 4013 	strb.w	r4, [sp, #19]
 8021d9c:	f002 f930 	bl	8024000 <IUart_SendByte>
 8021da0:	f10d 0107 	add.w	r1, sp, #7
 8021da4:	2001      	movs	r0, #1
 8021da6:	f002 f973 	bl	8024090 <IUart_RecvByte_check>
 8021daa:	2801      	cmp	r0, #1
 8021dac:	f04f 0107 	mov.w	r1, #7
 8021db0:	f04f 0003 	mov.w	r0, #3
 8021db4:	bf0c      	ite	eq
 8021db6:	f89d 3007 	ldrbeq.w	r3, [sp, #7]
 8021dba:	2300      	movne	r3, #0
 8021dbc:	f88d 3014 	strb.w	r3, [sp, #20]
 8021dc0:	f002 f91e 	bl	8024000 <IUart_SendByte>
 8021dc4:	f10d 0107 	add.w	r1, sp, #7
 8021dc8:	2003      	movs	r0, #3
 8021dca:	f002 f961 	bl	8024090 <IUart_RecvByte_check>
 8021dce:	2801      	cmp	r0, #1
 8021dd0:	f04f 0107 	mov.w	r1, #7
 8021dd4:	f04f 0004 	mov.w	r0, #4
 8021dd8:	bf0c      	ite	eq
 8021dda:	f89d 3007 	ldrbeq.w	r3, [sp, #7]
 8021dde:	2300      	movne	r3, #0
 8021de0:	f88d 3015 	strb.w	r3, [sp, #21]
 8021de4:	f002 f90c 	bl	8024000 <IUart_SendByte>
 8021de8:	f10d 0107 	add.w	r1, sp, #7
 8021dec:	2004      	movs	r0, #4
 8021dee:	f002 f94f 	bl	8024090 <IUart_RecvByte_check>
 8021df2:	2801      	cmp	r0, #1
 8021df4:	f04f 010f 	mov.w	r1, #15
 8021df8:	a802      	add	r0, sp, #8
 8021dfa:	bf0c      	ite	eq
 8021dfc:	f89d 3007 	ldrbeq.w	r3, [sp, #7]
 8021e00:	2300      	movne	r3, #0
 8021e02:	f88d 3016 	strb.w	r3, [sp, #22]
 8021e06:	f7ff fd4f 	bl	80218a8 <MakeResponse>
 8021e0a:	b007      	add	sp, #28
 8021e0c:	bdf0      	pop	{r4, r5, r6, r7, pc}
 8021e0e:	bf00      	nop
 8021e10:	58021400 	.word	0x58021400
 8021e14:	58020000 	.word	0x58020000
 8021e18:	60000300 	.word	0x60000300
 8021e1c:	58020400 	.word	0x58020400
 8021e20:	60000100 	.word	0x60000100
 8021e24:	60000600 	.word	0x60000600
 8021e28:	60000500 	.word	0x60000500

08021e2c <CMDGetCPLDVersion>:
 8021e2c:	b507      	push	{r0, r1, r2, lr}
 8021e2e:	2300      	movs	r3, #0
 8021e30:	2101      	movs	r1, #1
 8021e32:	f10d 0007 	add.w	r0, sp, #7
 8021e36:	f88d 3007 	strb.w	r3, [sp, #7]
 8021e3a:	f7ff fd35 	bl	80218a8 <MakeResponse>
 8021e3e:	b003      	add	sp, #12
 8021e40:	f85d fb04 	ldr.w	pc, [sp], #4

08021e44 <CMDGetDipSwitch>:
 8021e44:	4b06      	ldr	r3, [pc, #24]	; (8021e60 <CMDGetDipSwitch+0x1c>)
 8021e46:	691b      	ldr	r3, [r3, #16]
 8021e48:	b507      	push	{r0, r1, r2, lr}
 8021e4a:	43db      	mvns	r3, r3
 8021e4c:	2101      	movs	r1, #1
 8021e4e:	f10d 0007 	add.w	r0, sp, #7
 8021e52:	f88d 3007 	strb.w	r3, [sp, #7]
 8021e56:	f7ff fd27 	bl	80218a8 <MakeResponse>
 8021e5a:	b003      	add	sp, #12
 8021e5c:	f85d fb04 	ldr.w	pc, [sp], #4
 8021e60:	58020400 	.word	0x58020400

08021e64 <CMDSetUPSCommand>:
 8021e64:	4b0b      	ldr	r3, [pc, #44]	; (8021e94 <CMDSetUPSCommand+0x30>)
 8021e66:	480c      	ldr	r0, [pc, #48]	; (8021e98 <CMDSetUPSCommand+0x34>)
 8021e68:	b510      	push	{r4, lr}
 8021e6a:	791c      	ldrb	r4, [r3, #4]
 8021e6c:	4621      	mov	r1, r4
 8021e6e:	f004 f87b 	bl	8025f68 <printf_>
 8021e72:	2c02      	cmp	r4, #2
 8021e74:	d00b      	beq.n	8021e8e <CMDSetUPSCommand+0x2a>
 8021e76:	2201      	movs	r2, #1
 8021e78:	2140      	movs	r1, #64	; 0x40
 8021e7a:	4808      	ldr	r0, [pc, #32]	; (8021e9c <CMDSetUPSCommand+0x38>)
 8021e7c:	f004 ff9a 	bl	8026db4 <HAL_GPIO_WritePin>
 8021e80:	2201      	movs	r2, #1
 8021e82:	2180      	movs	r1, #128	; 0x80
 8021e84:	4805      	ldr	r0, [pc, #20]	; (8021e9c <CMDSetUPSCommand+0x38>)
 8021e86:	e8bd 4010 	ldmia.w	sp!, {r4, lr}
 8021e8a:	f004 bf93 	b.w	8026db4 <HAL_GPIO_WritePin>
 8021e8e:	2200      	movs	r2, #0
 8021e90:	e7f7      	b.n	8021e82 <CMDSetUPSCommand+0x1e>
 8021e92:	bf00      	nop
 8021e94:	24000254 	.word	0x24000254
 8021e98:	0802b430 	.word	0x0802b430
 8021e9c:	58021400 	.word	0x58021400

08021ea0 <CMDGetUPSStatus>:
 8021ea0:	2300      	movs	r3, #0
 8021ea2:	b507      	push	{r0, r1, r2, lr}
 8021ea4:	f44f 6180 	mov.w	r1, #1024	; 0x400
 8021ea8:	4817      	ldr	r0, [pc, #92]	; (8021f08 <CMDGetUPSStatus+0x68>)
 8021eaa:	f88d 3007 	strb.w	r3, [sp, #7]
 8021eae:	f004 ff7b 	bl	8026da8 <HAL_GPIO_ReadPin>
 8021eb2:	3800      	subs	r0, #0
 8021eb4:	f44f 7180 	mov.w	r1, #256	; 0x100
 8021eb8:	bf18      	it	ne
 8021eba:	2001      	movne	r0, #1
 8021ebc:	f88d 0007 	strb.w	r0, [sp, #7]
 8021ec0:	4811      	ldr	r0, [pc, #68]	; (8021f08 <CMDGetUPSStatus+0x68>)
 8021ec2:	f004 ff71 	bl	8026da8 <HAL_GPIO_ReadPin>
 8021ec6:	2800      	cmp	r0, #0
 8021ec8:	f89d 3007 	ldrb.w	r3, [sp, #7]
 8021ecc:	f44f 7100 	mov.w	r1, #512	; 0x200
 8021ed0:	bf14      	ite	ne
 8021ed2:	2202      	movne	r2, #2
 8021ed4:	2200      	moveq	r2, #0
 8021ed6:	480c      	ldr	r0, [pc, #48]	; (8021f08 <CMDGetUPSStatus+0x68>)
 8021ed8:	4313      	orrs	r3, r2
 8021eda:	f88d 3007 	strb.w	r3, [sp, #7]
 8021ede:	f004 ff63 	bl	8026da8 <HAL_GPIO_ReadPin>
 8021ee2:	2800      	cmp	r0, #0
 8021ee4:	f89d 3007 	ldrb.w	r3, [sp, #7]
 8021ee8:	f04f 0101 	mov.w	r1, #1
 8021eec:	f10d 0007 	add.w	r0, sp, #7
 8021ef0:	bf14      	ite	ne
 8021ef2:	2204      	movne	r2, #4
 8021ef4:	2200      	moveq	r2, #0
 8021ef6:	4313      	orrs	r3, r2
 8021ef8:	f88d 3007 	strb.w	r3, [sp, #7]
 8021efc:	f7ff fcd4 	bl	80218a8 <MakeResponse>
 8021f00:	b003      	add	sp, #12
 8021f02:	f85d fb04 	ldr.w	pc, [sp], #4
 8021f06:	bf00      	nop
 8021f08:	58021400 	.word	0x58021400

08021f0c <CheckProtocol_UART3>:
 8021f0c:	b538      	push	{r3, r4, r5, lr}
 8021f0e:	4d44      	ldr	r5, [pc, #272]	; (8022020 <CheckProtocol_UART3+0x114>)
 8021f10:	4c44      	ldr	r4, [pc, #272]	; (8022024 <CheckProtocol_UART3+0x118>)
 8021f12:	4943      	ldr	r1, [pc, #268]	; (8022020 <CheckProtocol_UART3+0x114>)
 8021f14:	2002      	movs	r0, #2
 8021f16:	f002 f8bb 	bl	8024090 <IUart_RecvByte_check>
 8021f1a:	b908      	cbnz	r0, 8021f20 <CheckProtocol_UART3+0x14>
 8021f1c:	20ff      	movs	r0, #255	; 0xff
 8021f1e:	e017      	b.n	8021f50 <CheckProtocol_UART3+0x44>
 8021f20:	7822      	ldrb	r2, [r4, #0]
 8021f22:	782b      	ldrb	r3, [r5, #0]
 8021f24:	2a02      	cmp	r2, #2
 8021f26:	d11f      	bne.n	8021f68 <CheckProtocol_UART3+0x5c>
 8021f28:	4a3f      	ldr	r2, [pc, #252]	; (8022028 <CheckProtocol_UART3+0x11c>)
 8021f2a:	2500      	movs	r5, #0
 8021f2c:	7812      	ldrb	r2, [r2, #0]
 8021f2e:	7025      	strb	r5, [r4, #0]
 8021f30:	429a      	cmp	r2, r3
 8021f32:	4c3e      	ldr	r4, [pc, #248]	; (802202c <CheckProtocol_UART3+0x120>)
 8021f34:	6821      	ldr	r1, [r4, #0]
 8021f36:	d10c      	bne.n	8021f52 <CheckProtocol_UART3+0x46>
 8021f38:	4b3d      	ldr	r3, [pc, #244]	; (8022030 <CheckProtocol_UART3+0x124>)
 8021f3a:	1eca      	subs	r2, r1, #3
 8021f3c:	789b      	ldrb	r3, [r3, #2]
 8021f3e:	b2d1      	uxtb	r1, r2
 8021f40:	428b      	cmp	r3, r1
 8021f42:	d069      	beq.n	8022018 <CheckProtocol_UART3+0x10c>
 8021f44:	4619      	mov	r1, r3
 8021f46:	483b      	ldr	r0, [pc, #236]	; (8022034 <CheckProtocol_UART3+0x128>)
 8021f48:	f004 f80e 	bl	8025f68 <printf_>
 8021f4c:	200a      	movs	r0, #10
 8021f4e:	6025      	str	r5, [r4, #0]
 8021f50:	bd38      	pop	{r3, r4, r5, pc}
 8021f52:	4839      	ldr	r0, [pc, #228]	; (8022038 <CheckProtocol_UART3+0x12c>)
 8021f54:	f004 f808 	bl	8025f68 <printf_>
 8021f58:	4838      	ldr	r0, [pc, #224]	; (802203c <CheckProtocol_UART3+0x130>)
 8021f5a:	6822      	ldr	r2, [r4, #0]
 8021f5c:	4934      	ldr	r1, [pc, #208]	; (8022030 <CheckProtocol_UART3+0x124>)
 8021f5e:	f007 ff43 	bl	8029de8 <Print2Hex>
 8021f62:	2005      	movs	r0, #5
 8021f64:	6025      	str	r5, [r4, #0]
 8021f66:	e7f3      	b.n	8021f50 <CheckProtocol_UART3+0x44>
 8021f68:	2b03      	cmp	r3, #3
 8021f6a:	d00b      	beq.n	8021f84 <CheckProtocol_UART3+0x78>
 8021f6c:	2b10      	cmp	r3, #16
 8021f6e:	d01c      	beq.n	8021faa <CheckProtocol_UART3+0x9e>
 8021f70:	2b02      	cmp	r3, #2
 8021f72:	d123      	bne.n	8021fbc <CheckProtocol_UART3+0xb0>
 8021f74:	2201      	movs	r2, #1
 8021f76:	7022      	strb	r2, [r4, #0]
 8021f78:	4a2b      	ldr	r2, [pc, #172]	; (8022028 <CheckProtocol_UART3+0x11c>)
 8021f7a:	7013      	strb	r3, [r2, #0]
 8021f7c:	2200      	movs	r2, #0
 8021f7e:	4b2b      	ldr	r3, [pc, #172]	; (802202c <CheckProtocol_UART3+0x120>)
 8021f80:	601a      	str	r2, [r3, #0]
 8021f82:	e7c6      	b.n	8021f12 <CheckProtocol_UART3+0x6>
 8021f84:	2302      	movs	r3, #2
 8021f86:	4a28      	ldr	r2, [pc, #160]	; (8022028 <CheckProtocol_UART3+0x11c>)
 8021f88:	7023      	strb	r3, [r4, #0]
 8021f8a:	7813      	ldrb	r3, [r2, #0]
 8021f8c:	f083 0303 	eor.w	r3, r3, #3
 8021f90:	7013      	strb	r3, [r2, #0]
 8021f92:	4b26      	ldr	r3, [pc, #152]	; (802202c <CheckProtocol_UART3+0x120>)
 8021f94:	681a      	ldr	r2, [r3, #0]
 8021f96:	2a7f      	cmp	r2, #127	; 0x7f
 8021f98:	ddbb      	ble.n	8021f12 <CheckProtocol_UART3+0x6>
 8021f9a:	2200      	movs	r2, #0
 8021f9c:	4828      	ldr	r0, [pc, #160]	; (8022040 <CheckProtocol_UART3+0x134>)
 8021f9e:	7022      	strb	r2, [r4, #0]
 8021fa0:	601a      	str	r2, [r3, #0]
 8021fa2:	f003 ffe1 	bl	8025f68 <printf_>
 8021fa6:	200c      	movs	r0, #12
 8021fa8:	e7d2      	b.n	8021f50 <CheckProtocol_UART3+0x44>
 8021faa:	2a01      	cmp	r2, #1
 8021fac:	d1f1      	bne.n	8021f92 <CheckProtocol_UART3+0x86>
 8021fae:	2303      	movs	r3, #3
 8021fb0:	4a1d      	ldr	r2, [pc, #116]	; (8022028 <CheckProtocol_UART3+0x11c>)
 8021fb2:	7023      	strb	r3, [r4, #0]
 8021fb4:	7813      	ldrb	r3, [r2, #0]
 8021fb6:	f083 0310 	eor.w	r3, r3, #16
 8021fba:	e7e9      	b.n	8021f90 <CheckProtocol_UART3+0x84>
 8021fbc:	2a01      	cmp	r2, #1
 8021fbe:	d10a      	bne.n	8021fd6 <CheckProtocol_UART3+0xca>
 8021fc0:	491a      	ldr	r1, [pc, #104]	; (802202c <CheckProtocol_UART3+0x120>)
 8021fc2:	680a      	ldr	r2, [r1, #0]
 8021fc4:	1c50      	adds	r0, r2, #1
 8021fc6:	6008      	str	r0, [r1, #0]
 8021fc8:	4919      	ldr	r1, [pc, #100]	; (8022030 <CheckProtocol_UART3+0x124>)
 8021fca:	548b      	strb	r3, [r1, r2]
 8021fcc:	4a16      	ldr	r2, [pc, #88]	; (8022028 <CheckProtocol_UART3+0x11c>)
 8021fce:	7810      	ldrb	r0, [r2, #0]
 8021fd0:	4058      	eors	r0, r3
 8021fd2:	7010      	strb	r0, [r2, #0]
 8021fd4:	e7dd      	b.n	8021f92 <CheckProtocol_UART3+0x86>
 8021fd6:	2a03      	cmp	r2, #3
 8021fd8:	d118      	bne.n	802200c <CheckProtocol_UART3+0x100>
 8021fda:	f1a3 0242 	sub.w	r2, r3, #66	; 0x42
 8021fde:	2a01      	cmp	r2, #1
 8021fe0:	4a12      	ldr	r2, [pc, #72]	; (802202c <CheckProtocol_UART3+0x120>)
 8021fe2:	d901      	bls.n	8021fe8 <CheckProtocol_UART3+0xdc>
 8021fe4:	2b50      	cmp	r3, #80	; 0x50
 8021fe6:	d109      	bne.n	8021ffc <CheckProtocol_UART3+0xf0>
 8021fe8:	2101      	movs	r1, #1
 8021fea:	7021      	strb	r1, [r4, #0]
 8021fec:	6811      	ldr	r1, [r2, #0]
 8021fee:	1c48      	adds	r0, r1, #1
 8021ff0:	6010      	str	r0, [r2, #0]
 8021ff2:	f083 0040 	eor.w	r0, r3, #64	; 0x40
 8021ff6:	4a0e      	ldr	r2, [pc, #56]	; (8022030 <CheckProtocol_UART3+0x124>)
 8021ff8:	5450      	strb	r0, [r2, r1]
 8021ffa:	e7e7      	b.n	8021fcc <CheckProtocol_UART3+0xc0>
 8021ffc:	2300      	movs	r3, #0
 8021ffe:	4811      	ldr	r0, [pc, #68]	; (8022044 <CheckProtocol_UART3+0x138>)
 8022000:	7023      	strb	r3, [r4, #0]
 8022002:	6013      	str	r3, [r2, #0]
 8022004:	f003 ffb0 	bl	8025f68 <printf_>
 8022008:	200d      	movs	r0, #13
 802200a:	e7a1      	b.n	8021f50 <CheckProtocol_UART3+0x44>
 802200c:	2b06      	cmp	r3, #6
 802200e:	d005      	beq.n	802201c <CheckProtocol_UART3+0x110>
 8022010:	2b15      	cmp	r3, #21
 8022012:	d1be      	bne.n	8021f92 <CheckProtocol_UART3+0x86>
 8022014:	2007      	movs	r0, #7
 8022016:	e79b      	b.n	8021f50 <CheckProtocol_UART3+0x44>
 8022018:	4628      	mov	r0, r5
 802201a:	e799      	b.n	8021f50 <CheckProtocol_UART3+0x44>
 802201c:	4618      	mov	r0, r3
 802201e:	e797      	b.n	8021f50 <CheckProtocol_UART3+0x44>
 8022020:	240003d5 	.word	0x240003d5
 8022024:	240003d6 	.word	0x240003d6
 8022028:	240003d4 	.word	0x240003d4
 802202c:	240003dc 	.word	0x240003dc
 8022030:	24000254 	.word	0x24000254
 8022034:	0802b449 	.word	0x0802b449
 8022038:	0802b45f 	.word	0x0802b45f
 802203c:	0802be09 	.word	0x0802be09
 8022040:	0802b48d 	.word	0x0802b48d
 8022044:	0802b47b 	.word	0x0802b47b

08022048 <ProcessCommand>:
 8022048:	b570      	push	{r4, r5, r6, lr}
 802204a:	4b61      	ldr	r3, [pc, #388]	; (80221d0 <ProcessCommand+0x188>)
 802204c:	4c61      	ldr	r4, [pc, #388]	; (80221d4 <ProcessCommand+0x18c>)
 802204e:	781b      	ldrb	r3, [r3, #0]
 8022050:	7822      	ldrb	r2, [r4, #0]
 8022052:	429a      	cmp	r2, r3
 8022054:	d119      	bne.n	802208a <ProcessCommand+0x42>
 8022056:	4e60      	ldr	r6, [pc, #384]	; (80221d8 <ProcessCommand+0x190>)
 8022058:	78e3      	ldrb	r3, [r4, #3]
 802205a:	78f2      	ldrb	r2, [r6, #3]
 802205c:	429a      	cmp	r2, r3
 802205e:	d012      	beq.n	8022086 <ProcessCommand+0x3e>
 8022060:	4a5e      	ldr	r2, [pc, #376]	; (80221dc <ProcessCommand+0x194>)
 8022062:	7815      	ldrb	r5, [r2, #0]
 8022064:	429d      	cmp	r5, r3
 8022066:	d110      	bne.n	802208a <ProcessCommand+0x42>
 8022068:	4628      	mov	r0, r5
 802206a:	f7ff fc03 	bl	8021874 <IsCommandNeedResponse>
 802206e:	2800      	cmp	r0, #0
 8022070:	f000 80ac 	beq.w	80221cc <ProcessCommand+0x184>
 8022074:	495a      	ldr	r1, [pc, #360]	; (80221e0 <ProcessCommand+0x198>)
 8022076:	78cb      	ldrb	r3, [r1, #3]
 8022078:	42ab      	cmp	r3, r5
 802207a:	d106      	bne.n	802208a <ProcessCommand+0x42>
 802207c:	788a      	ldrb	r2, [r1, #2]
 802207e:	4630      	mov	r0, r6
 8022080:	3203      	adds	r2, #3
 8022082:	f007 ff41 	bl	8029f08 <memcpy>
 8022086:	2008      	movs	r0, #8
 8022088:	e05e      	b.n	8022148 <ProcessCommand+0x100>
 802208a:	f7ff fbed 	bl	8021868 <SendACK>
 802208e:	78e3      	ldrb	r3, [r4, #3]
 8022090:	4a52      	ldr	r2, [pc, #328]	; (80221dc <ProcessCommand+0x194>)
 8022092:	2b65      	cmp	r3, #101	; 0x65
 8022094:	7013      	strb	r3, [r2, #0]
 8022096:	d847      	bhi.n	8022128 <ProcessCommand+0xe0>
 8022098:	2b5f      	cmp	r3, #95	; 0x5f
 802209a:	d805      	bhi.n	80220a8 <ProcessCommand+0x60>
 802209c:	3b30      	subs	r3, #48	; 0x30
 802209e:	b2da      	uxtb	r2, r3
 80220a0:	2a18      	cmp	r2, #24
 80220a2:	d909      	bls.n	80220b8 <ProcessCommand+0x70>
 80220a4:	200b      	movs	r0, #11
 80220a6:	e04f      	b.n	8022148 <ProcessCommand+0x100>
 80220a8:	3b61      	subs	r3, #97	; 0x61
 80220aa:	2b04      	cmp	r3, #4
 80220ac:	d86a      	bhi.n	8022184 <ProcessCommand+0x13c>
 80220ae:	e8df f003 	tbb	[pc, r3]
 80220b2:	6f6c      	.short	0x6f6c
 80220b4:	7572      	.short	0x7572
 80220b6:	78          	.byte	0x78
 80220b7:	00          	.byte	0x00
 80220b8:	2b18      	cmp	r3, #24
 80220ba:	d8f3      	bhi.n	80220a4 <ProcessCommand+0x5c>
 80220bc:	a201      	add	r2, pc, #4	; (adr r2, 80220c4 <ProcessCommand+0x7c>)
 80220be:	f852 f023 	ldr.w	pc, [r2, r3, lsl #2]
 80220c2:	bf00      	nop
 80220c4:	08022143 	.word	0x08022143
 80220c8:	0802214b 	.word	0x0802214b
 80220cc:	08022151 	.word	0x08022151
 80220d0:	08022157 	.word	0x08022157
 80220d4:	0802215d 	.word	0x0802215d
 80220d8:	08022163 	.word	0x08022163
 80220dc:	080220a5 	.word	0x080220a5
 80220e0:	080220a5 	.word	0x080220a5
 80220e4:	08022169 	.word	0x08022169
 80220e8:	080220a5 	.word	0x080220a5
 80220ec:	080220a5 	.word	0x080220a5
 80220f0:	080220a5 	.word	0x080220a5
 80220f4:	080220a5 	.word	0x080220a5
 80220f8:	080220a5 	.word	0x080220a5
 80220fc:	080220a5 	.word	0x080220a5
 8022100:	080220a5 	.word	0x080220a5
 8022104:	0802216d 	.word	0x0802216d
 8022108:	08022173 	.word	0x08022173
 802210c:	08022179 	.word	0x08022179
 8022110:	080220a5 	.word	0x080220a5
 8022114:	080220a5 	.word	0x080220a5
 8022118:	080220a5 	.word	0x080220a5
 802211c:	080220a5 	.word	0x080220a5
 8022120:	080220a5 	.word	0x080220a5
 8022124:	0802217f 	.word	0x0802217f
 8022128:	f103 0270 	add.w	r2, r3, #112	; 0x70
 802212c:	b2d2      	uxtb	r2, r2
 802212e:	2a05      	cmp	r2, #5
 8022130:	d8b8      	bhi.n	80220a4 <ProcessCommand+0x5c>
 8022132:	3b90      	subs	r3, #144	; 0x90
 8022134:	2b05      	cmp	r3, #5
 8022136:	d8b5      	bhi.n	80220a4 <ProcessCommand+0x5c>
 8022138:	e8df f003 	tbb	[pc, r3]
 802213c:	3f3c3936 	.word	0x3f3c3936
 8022140:	4542      	.short	0x4542
 8022142:	f7ff fc05 	bl	8021950 <CMDSetGCUOpMode>
 8022146:	2000      	movs	r0, #0
 8022148:	bd70      	pop	{r4, r5, r6, pc}
 802214a:	f7ff fc0d 	bl	8021968 <CMDGetGCUOpMode>
 802214e:	e7fa      	b.n	8022146 <ProcessCommand+0xfe>
 8022150:	f7ff fc16 	bl	8021980 <CMDSetGCUParameter>
 8022154:	e7f7      	b.n	8022146 <ProcessCommand+0xfe>
 8022156:	f7ff fc29 	bl	80219ac <CMDGetGCUParameter>
 802215a:	e7f4      	b.n	8022146 <ProcessCommand+0xfe>
 802215c:	f7ff fc34 	bl	80219c8 <CMDGetVersion>
 8022160:	e7f1      	b.n	8022146 <ProcessCommand+0xfe>
 8022162:	f7ff fc37 	bl	80219d4 <CMDSetScadaOut>
 8022166:	e7ee      	b.n	8022146 <ProcessCommand+0xfe>
 8022168:	f7ff fc40 	bl	80219ec <CMDResetGCU>
 802216c:	f7ff fc5a 	bl	8021a24 <CMDAuthorizePass>
 8022170:	e7e9      	b.n	8022146 <ProcessCommand+0xfe>
 8022172:	f7ff fc8d 	bl	8021a90 <CMDClearAuthorization>
 8022176:	e7e6      	b.n	8022146 <ProcessCommand+0xfe>
 8022178:	f7ff fc98 	bl	8021aac <CMDGetStatus>
 802217c:	e7e3      	b.n	8022146 <ProcessCommand+0xfe>
 802217e:	f7ff fca9 	bl	8021ad4 <CMDGetMemoryTest>
 8022182:	e7e0      	b.n	8022146 <ProcessCommand+0xfe>
 8022184:	f7ff fcbe 	bl	8021b04 <CMDControlAllLED>
 8022188:	e7dd      	b.n	8022146 <ProcessCommand+0xfe>
 802218a:	f7ff fcdb 	bl	8021b44 <CMDControlBarrier>
 802218e:	e7da      	b.n	8022146 <ProcessCommand+0xfe>
 8022190:	f7ff fce6 	bl	8021b60 <CMDControlLamp>
 8022194:	e7d7      	b.n	8022146 <ProcessCommand+0xfe>
 8022196:	f7ff fcdb 	bl	8021b50 <CMDControlIndicator>
 802219a:	e7d4      	b.n	8022146 <ProcessCommand+0xfe>
 802219c:	f7ff fce8 	bl	8021b70 <CMDControlBuzzer>
 80221a0:	e7d1      	b.n	8022146 <ProcessCommand+0xfe>
 80221a2:	f7ff fcf3 	bl	8021b8c <CMDSafetyStop>
 80221a6:	e7ce      	b.n	8022146 <ProcessCommand+0xfe>
 80221a8:	f7ff fcfa 	bl	8021ba0 <CMDWriteRegister>
 80221ac:	e7cb      	b.n	8022146 <ProcessCommand+0xfe>
 80221ae:	f7ff fd6d 	bl	8021c8c <CMDReadRegister>
 80221b2:	e7c8      	b.n	8022146 <ProcessCommand+0xfe>
 80221b4:	f7ff fe3a 	bl	8021e2c <CMDGetCPLDVersion>
 80221b8:	e7c5      	b.n	8022146 <ProcessCommand+0xfe>
 80221ba:	f7ff fe43 	bl	8021e44 <CMDGetDipSwitch>
 80221be:	e7c2      	b.n	8022146 <ProcessCommand+0xfe>
 80221c0:	f7ff fe50 	bl	8021e64 <CMDSetUPSCommand>
 80221c4:	e7bf      	b.n	8022146 <ProcessCommand+0xfe>
 80221c6:	f7ff fe6b 	bl	8021ea0 <CMDGetUPSStatus>
 80221ca:	e7bc      	b.n	8022146 <ProcessCommand+0xfe>
 80221cc:	2009      	movs	r0, #9
 80221ce:	e7bb      	b.n	8022148 <ProcessCommand+0x100>
 80221d0:	240003d8 	.word	0x240003d8
 80221d4:	24000254 	.word	0x24000254
 80221d8:	240002d4 	.word	0x240002d4
 80221dc:	240003d7 	.word	0x240003d7
 80221e0:	24000354 	.word	0x24000354

080221e4 <ProcessComm_ECU>:
 80221e4:	b508      	push	{r3, lr}
 80221e6:	f7ff fe91 	bl	8021f0c <CheckProtocol_UART3>
 80221ea:	b9e8      	cbnz	r0, 8022228 <ProcessComm_ECU+0x44>
 80221ec:	f7ff ff2c 	bl	8022048 <ProcessCommand>
 80221f0:	b970      	cbnz	r0, 8022210 <ProcessComm_ECU+0x2c>
 80221f2:	4b12      	ldr	r3, [pc, #72]	; (802223c <ProcessComm_ECU+0x58>)
 80221f4:	78d8      	ldrb	r0, [r3, #3]
 80221f6:	f7ff fb3d 	bl	8021874 <IsCommandNeedResponse>
 80221fa:	b1e8      	cbz	r0, 8022238 <ProcessComm_ECU+0x54>
 80221fc:	f7ff fb76 	bl	80218ec <SendResponse>
 8022200:	490f      	ldr	r1, [pc, #60]	; (8022240 <ProcessComm_ECU+0x5c>)
 8022202:	4810      	ldr	r0, [pc, #64]	; (8022244 <ProcessComm_ECU+0x60>)
 8022204:	788a      	ldrb	r2, [r1, #2]
 8022206:	e8bd 4008 	ldmia.w	sp!, {r3, lr}
 802220a:	3203      	adds	r2, #3
 802220c:	f007 be7c 	b.w	8029f08 <memcpy>
 8022210:	2808      	cmp	r0, #8
 8022212:	d103      	bne.n	802221c <ProcessComm_ECU+0x38>
 8022214:	e8bd 4008 	ldmia.w	sp!, {r3, lr}
 8022218:	f7ff bb68 	b.w	80218ec <SendResponse>
 802221c:	280b      	cmp	r0, #11
 802221e:	d10b      	bne.n	8022238 <ProcessComm_ECU+0x54>
 8022220:	e8bd 4008 	ldmia.w	sp!, {r3, lr}
 8022224:	f7ff bb23 	b.w	802186e <SendNAK>
 8022228:	f020 0308 	bic.w	r3, r0, #8
 802222c:	2b05      	cmp	r3, #5
 802222e:	d0f7      	beq.n	8022220 <ProcessComm_ECU+0x3c>
 8022230:	280a      	cmp	r0, #10
 8022232:	d0f5      	beq.n	8022220 <ProcessComm_ECU+0x3c>
 8022234:	2807      	cmp	r0, #7
 8022236:	d0ed      	beq.n	8022214 <ProcessComm_ECU+0x30>
 8022238:	bd08      	pop	{r3, pc}
 802223a:	bf00      	nop
 802223c:	24000254 	.word	0x24000254
 8022240:	240002d4 	.word	0x240002d4
 8022244:	24000354 	.word	0x24000354

08022248 <CheckBarrierClosedStatus>:
 8022248:	4b05      	ldr	r3, [pc, #20]	; (8022260 <CheckBarrierClosedStatus+0x18>)
 802224a:	781a      	ldrb	r2, [r3, #0]
 802224c:	4b05      	ldr	r3, [pc, #20]	; (8022264 <CheckBarrierClosedStatus+0x1c>)
 802224e:	781b      	ldrb	r3, [r3, #0]
 8022250:	4313      	orrs	r3, r2
 8022252:	bf03      	ittte	eq
 8022254:	4b04      	ldreq	r3, [pc, #16]	; (8022268 <CheckBarrierClosedStatus+0x20>)
 8022256:	7818      	ldrbeq	r0, [r3, #0]
 8022258:	f080 0001 	eoreq.w	r0, r0, #1
 802225c:	2000      	movne	r0, #0
 802225e:	4770      	bx	lr
 8022260:	2400012b 	.word	0x2400012b
 8022264:	24000124 	.word	0x24000124
 8022268:	24000451 	.word	0x24000451

0802226c <CheckZeroAuthCount>:
 802226c:	4b04      	ldr	r3, [pc, #16]	; (8022280 <CheckZeroAuthCount+0x14>)
 802226e:	791a      	ldrb	r2, [r3, #4]
 8022270:	b922      	cbnz	r2, 802227c <CheckZeroAuthCount+0x10>
 8022272:	7958      	ldrb	r0, [r3, #5]
 8022274:	fab0 f080 	clz	r0, r0
 8022278:	0940      	lsrs	r0, r0, #5
 802227a:	4770      	bx	lr
 802227c:	2000      	movs	r0, #0
 802227e:	4770      	bx	lr
 8022280:	24000410 	.word	0x24000410

08022284 <UpdateSensorData>:
 8022284:	4907      	ldr	r1, [pc, #28]	; (80222a4 <UpdateSensorData+0x20>)
 8022286:	f04f 43c0 	mov.w	r3, #1610612736	; 0x60000000
 802228a:	4a07      	ldr	r2, [pc, #28]	; (80222a8 <UpdateSensorData+0x24>)
 802228c:	781b      	ldrb	r3, [r3, #0]
 802228e:	7808      	ldrb	r0, [r1, #0]
 8022290:	7849      	ldrb	r1, [r1, #1]
 8022292:	ea23 0300 	bic.w	r3, r3, r0
 8022296:	7013      	strb	r3, [r2, #0]
 8022298:	4b04      	ldr	r3, [pc, #16]	; (80222ac <UpdateSensorData+0x28>)
 802229a:	781b      	ldrb	r3, [r3, #0]
 802229c:	ea23 0301 	bic.w	r3, r3, r1
 80222a0:	7053      	strb	r3, [r2, #1]
 80222a2:	4770      	bx	lr
 80222a4:	240004ac 	.word	0x240004ac
 80222a8:	240003fc 	.word	0x240003fc
 80222ac:	60000100 	.word	0x60000100

080222b0 <StopBarrierForSwing>:
 80222b0:	4a0d      	ldr	r2, [pc, #52]	; (80222e8 <StopBarrierForSwing+0x38>)
 80222b2:	7813      	ldrb	r3, [r2, #0]
 80222b4:	4283      	cmp	r3, r0
 80222b6:	b510      	push	{r4, lr}
 80222b8:	4604      	mov	r4, r0
 80222ba:	d014      	beq.n	80222e6 <StopBarrierForSwing+0x36>
 80222bc:	4b0b      	ldr	r3, [pc, #44]	; (80222ec <StopBarrierForSwing+0x3c>)
 80222be:	781b      	ldrb	r3, [r3, #0]
 80222c0:	7010      	strb	r0, [r2, #0]
 80222c2:	f003 0388 	and.w	r3, r3, #136	; 0x88
 80222c6:	b140      	cbz	r0, 80222da <StopBarrierForSwing+0x2a>
 80222c8:	b96b      	cbnz	r3, 80222e6 <StopBarrierForSwing+0x36>
 80222ca:	4809      	ldr	r0, [pc, #36]	; (80222f0 <StopBarrierForSwing+0x40>)
 80222cc:	f007 fdb0 	bl	8029e30 <SetTimer>
 80222d0:	2001      	movs	r0, #1
 80222d2:	e8bd 4010 	ldmia.w	sp!, {r4, lr}
 80222d6:	f7fe ba2f 	b.w	8020738 <Brr_StopBarrier>
 80222da:	b123      	cbz	r3, 80222e6 <StopBarrierForSwing+0x36>
 80222dc:	4804      	ldr	r0, [pc, #16]	; (80222f0 <StopBarrierForSwing+0x40>)
 80222de:	f007 fdaf 	bl	8029e40 <ResetTimer>
 80222e2:	4620      	mov	r0, r4
 80222e4:	e7f5      	b.n	80222d2 <StopBarrierForSwing+0x22>
 80222e6:	bd10      	pop	{r4, pc}
 80222e8:	240003e2 	.word	0x240003e2
 80222ec:	60000600 	.word	0x60000600
 80222f0:	24000224 	.word	0x24000224

080222f4 <InitPassageModeForSwing>:
 80222f4:	b5f8      	push	{r3, r4, r5, r6, r7, lr}
 80222f6:	4d62      	ldr	r5, [pc, #392]	; (8022480 <InitPassageModeForSwing+0x18c>)
 80222f8:	4e62      	ldr	r6, [pc, #392]	; (8022484 <InitPassageModeForSwing+0x190>)
 80222fa:	78ab      	ldrb	r3, [r5, #2]
 80222fc:	2b00      	cmp	r3, #0
 80222fe:	d04d      	beq.n	802239c <InitPassageModeForSwing+0xa8>
 8022300:	4b61      	ldr	r3, [pc, #388]	; (8022488 <InitPassageModeForSwing+0x194>)
 8022302:	781c      	ldrb	r4, [r3, #0]
 8022304:	2c00      	cmp	r4, #0
 8022306:	d149      	bne.n	802239c <InitPassageModeForSwing+0xa8>
 8022308:	4b60      	ldr	r3, [pc, #384]	; (802248c <InitPassageModeForSwing+0x198>)
 802230a:	4861      	ldr	r0, [pc, #388]	; (8022490 <InitPassageModeForSwing+0x19c>)
 802230c:	781f      	ldrb	r7, [r3, #0]
 802230e:	f007 fd97 	bl	8029e40 <ResetTimer>
 8022312:	2301      	movs	r3, #1
 8022314:	78a9      	ldrb	r1, [r5, #2]
 8022316:	485f      	ldr	r0, [pc, #380]	; (8022494 <InitPassageModeForSwing+0x1a0>)
 8022318:	7033      	strb	r3, [r6, #0]
 802231a:	4b5f      	ldr	r3, [pc, #380]	; (8022498 <InitPassageModeForSwing+0x1a4>)
 802231c:	711c      	strb	r4, [r3, #4]
 802231e:	715c      	strb	r4, [r3, #5]
 8022320:	4b5e      	ldr	r3, [pc, #376]	; (802249c <InitPassageModeForSwing+0x1a8>)
 8022322:	701c      	strb	r4, [r3, #0]
 8022324:	4b5e      	ldr	r3, [pc, #376]	; (80224a0 <InitPassageModeForSwing+0x1ac>)
 8022326:	701c      	strb	r4, [r3, #0]
 8022328:	4b5e      	ldr	r3, [pc, #376]	; (80224a4 <InitPassageModeForSwing+0x1b0>)
 802232a:	701c      	strb	r4, [r3, #0]
 802232c:	4b5e      	ldr	r3, [pc, #376]	; (80224a8 <InitPassageModeForSwing+0x1b4>)
 802232e:	601c      	str	r4, [r3, #0]
 8022330:	4b5e      	ldr	r3, [pc, #376]	; (80224ac <InitPassageModeForSwing+0x1b8>)
 8022332:	701c      	strb	r4, [r3, #0]
 8022334:	4b5e      	ldr	r3, [pc, #376]	; (80224b0 <InitPassageModeForSwing+0x1bc>)
 8022336:	701c      	strb	r4, [r3, #0]
 8022338:	4b5e      	ldr	r3, [pc, #376]	; (80224b4 <InitPassageModeForSwing+0x1c0>)
 802233a:	701c      	strb	r4, [r3, #0]
 802233c:	4b5e      	ldr	r3, [pc, #376]	; (80224b8 <InitPassageModeForSwing+0x1c4>)
 802233e:	701c      	strb	r4, [r3, #0]
 8022340:	4b5e      	ldr	r3, [pc, #376]	; (80224bc <InitPassageModeForSwing+0x1c8>)
 8022342:	701c      	strb	r4, [r3, #0]
 8022344:	f003 fe10 	bl	8025f68 <printf_>
 8022348:	f017 0f88 	tst.w	r7, #136	; 0x88
 802234c:	d005      	beq.n	802235a <InitPassageModeForSwing+0x66>
 802234e:	485c      	ldr	r0, [pc, #368]	; (80224c0 <InitPassageModeForSwing+0x1cc>)
 8022350:	f003 fe0a 	bl	8025f68 <printf_>
 8022354:	4620      	mov	r0, r4
 8022356:	f7ff ffab 	bl	80222b0 <StopBarrierForSwing>
 802235a:	2001      	movs	r0, #1
 802235c:	f7fe f992 	bl	8020684 <Brr_SetEmergency>
 8022360:	78ab      	ldrb	r3, [r5, #2]
 8022362:	f013 0503 	ands.w	r5, r3, #3
 8022366:	d008      	beq.n	802237a <InitPassageModeForSwing+0x86>
 8022368:	2002      	movs	r0, #2
 802236a:	2101      	movs	r1, #1
 802236c:	f7fe fd54 	bl	8020e18 <ControlDirectionLED>
 8022370:	2001      	movs	r0, #1
 8022372:	e8bd 40f8 	ldmia.w	sp!, {r3, r4, r5, r6, r7, lr}
 8022376:	f7fe bdcf 	b.w	8020f18 <ControlIndicatorBlink>
 802237a:	f013 0410 	ands.w	r4, r3, #16
 802237e:	d005      	beq.n	802238c <InitPassageModeForSwing+0x98>
 8022380:	2102      	movs	r1, #2
 8022382:	4608      	mov	r0, r1
 8022384:	f7fe fd48 	bl	8020e18 <ControlDirectionLED>
 8022388:	4628      	mov	r0, r5
 802238a:	e7f2      	b.n	8022372 <InitPassageModeForSwing+0x7e>
 802238c:	069b      	lsls	r3, r3, #26
 802238e:	d576      	bpl.n	802247e <InitPassageModeForSwing+0x18a>
 8022390:	2101      	movs	r1, #1
 8022392:	4608      	mov	r0, r1
 8022394:	f7fe fd40 	bl	8020e18 <ControlDirectionLED>
 8022398:	4620      	mov	r0, r4
 802239a:	e7ea      	b.n	8022372 <InitPassageModeForSwing+0x7e>
 802239c:	7834      	ldrb	r4, [r6, #0]
 802239e:	2c01      	cmp	r4, #1
 80223a0:	d111      	bne.n	80223c6 <InitPassageModeForSwing+0xd2>
 80223a2:	4b39      	ldr	r3, [pc, #228]	; (8022488 <InitPassageModeForSwing+0x194>)
 80223a4:	781b      	ldrb	r3, [r3, #0]
 80223a6:	b973      	cbnz	r3, 80223c6 <InitPassageModeForSwing+0xd2>
 80223a8:	4846      	ldr	r0, [pc, #280]	; (80224c4 <InitPassageModeForSwing+0x1d0>)
 80223aa:	f003 fddd 	bl	8025f68 <printf_>
 80223ae:	4620      	mov	r0, r4
 80223b0:	2102      	movs	r1, #2
 80223b2:	f7fe fd11 	bl	8020dd8 <ControlBuzzer>
 80223b6:	4b44      	ldr	r3, [pc, #272]	; (80224c8 <InitPassageModeForSwing+0x1d4>)
 80223b8:	221e      	movs	r2, #30
 80223ba:	4835      	ldr	r0, [pc, #212]	; (8022490 <InitPassageModeForSwing+0x19c>)
 80223bc:	601a      	str	r2, [r3, #0]
 80223be:	e8bd 40f8 	ldmia.w	sp!, {r3, r4, r5, r6, r7, lr}
 80223c2:	f007 bd35 	b.w	8029e30 <SetTimer>
 80223c6:	782b      	ldrb	r3, [r5, #0]
 80223c8:	4c33      	ldr	r4, [pc, #204]	; (8022498 <InitPassageModeForSwing+0x1a4>)
 80223ca:	b123      	cbz	r3, 80223d6 <InitPassageModeForSwing+0xe2>
 80223cc:	2b02      	cmp	r3, #2
 80223ce:	d104      	bne.n	80223da <InitPassageModeForSwing+0xe6>
 80223d0:	4b3e      	ldr	r3, [pc, #248]	; (80224cc <InitPassageModeForSwing+0x1d8>)
 80223d2:	781b      	ldrb	r3, [r3, #0]
 80223d4:	b90b      	cbnz	r3, 80223da <InitPassageModeForSwing+0xe6>
 80223d6:	2300      	movs	r3, #0
 80223d8:	7123      	strb	r3, [r4, #4]
 80223da:	786b      	ldrb	r3, [r5, #1]
 80223dc:	b123      	cbz	r3, 80223e8 <InitPassageModeForSwing+0xf4>
 80223de:	2b02      	cmp	r3, #2
 80223e0:	d104      	bne.n	80223ec <InitPassageModeForSwing+0xf8>
 80223e2:	4b3a      	ldr	r3, [pc, #232]	; (80224cc <InitPassageModeForSwing+0x1d8>)
 80223e4:	785b      	ldrb	r3, [r3, #1]
 80223e6:	b90b      	cbnz	r3, 80223ec <InitPassageModeForSwing+0xf8>
 80223e8:	2300      	movs	r3, #0
 80223ea:	7163      	strb	r3, [r4, #5]
 80223ec:	7923      	ldrb	r3, [r4, #4]
 80223ee:	b913      	cbnz	r3, 80223f6 <InitPassageModeForSwing+0x102>
 80223f0:	7963      	ldrb	r3, [r4, #5]
 80223f2:	2b00      	cmp	r3, #0
 80223f4:	d035      	beq.n	8022462 <InitPassageModeForSwing+0x16e>
 80223f6:	7923      	ldrb	r3, [r4, #4]
 80223f8:	2b00      	cmp	r3, #0
 80223fa:	d02d      	beq.n	8022458 <InitPassageModeForSwing+0x164>
 80223fc:	2001      	movs	r0, #1
 80223fe:	f7fe fcc5 	bl	8020d8c <ControlBarrier>
 8022402:	782b      	ldrb	r3, [r5, #0]
 8022404:	2b00      	cmp	r3, #0
 8022406:	d032      	beq.n	802246e <InitPassageModeForSwing+0x17a>
 8022408:	7962      	ldrb	r2, [r4, #5]
 802240a:	2a00      	cmp	r2, #0
 802240c:	d031      	beq.n	8022472 <InitPassageModeForSwing+0x17e>
 802240e:	2b01      	cmp	r3, #1
 8022410:	bf14      	ite	ne
 8022412:	2001      	movne	r0, #1
 8022414:	2002      	moveq	r0, #2
 8022416:	4b2e      	ldr	r3, [pc, #184]	; (80224d0 <InitPassageModeForSwing+0x1dc>)
 8022418:	7018      	strb	r0, [r3, #0]
 802241a:	786b      	ldrb	r3, [r5, #1]
 802241c:	b35b      	cbz	r3, 8022476 <InitPassageModeForSwing+0x182>
 802241e:	7922      	ldrb	r2, [r4, #4]
 8022420:	b35a      	cbz	r2, 802247a <InitPassageModeForSwing+0x186>
 8022422:	2b01      	cmp	r3, #1
 8022424:	bf14      	ite	ne
 8022426:	2101      	movne	r1, #1
 8022428:	2102      	moveq	r1, #2
 802242a:	4b2a      	ldr	r3, [pc, #168]	; (80224d4 <InitPassageModeForSwing+0x1e0>)
 802242c:	7019      	strb	r1, [r3, #0]
 802242e:	f7fe fcf3 	bl	8020e18 <ControlDirectionLED>
 8022432:	2300      	movs	r3, #0
 8022434:	4928      	ldr	r1, [pc, #160]	; (80224d8 <InitPassageModeForSwing+0x1e4>)
 8022436:	4829      	ldr	r0, [pc, #164]	; (80224dc <InitPassageModeForSwing+0x1e8>)
 8022438:	461a      	mov	r2, r3
 802243a:	7809      	ldrb	r1, [r1, #0]
 802243c:	7800      	ldrb	r0, [r0, #0]
 802243e:	f7fe fd1b 	bl	8020e78 <ControlIndicator>
 8022442:	f7ff ff13 	bl	802226c <CheckZeroAuthCount>
 8022446:	b1d0      	cbz	r0, 802247e <InitPassageModeForSwing+0x18a>
 8022448:	4825      	ldr	r0, [pc, #148]	; (80224e0 <InitPassageModeForSwing+0x1ec>)
 802244a:	f003 fd8d 	bl	8025f68 <printf_>
 802244e:	4819      	ldr	r0, [pc, #100]	; (80224b4 <InitPassageModeForSwing+0x1c0>)
 8022450:	e8bd 40f8 	ldmia.w	sp!, {r3, r4, r5, r6, r7, lr}
 8022454:	f007 bcf4 	b.w	8029e40 <ResetTimer>
 8022458:	7963      	ldrb	r3, [r4, #5]
 802245a:	2b00      	cmp	r3, #0
 802245c:	d0d1      	beq.n	8022402 <InitPassageModeForSwing+0x10e>
 802245e:	2002      	movs	r0, #2
 8022460:	e7cd      	b.n	80223fe <InitPassageModeForSwing+0x10a>
 8022462:	4b20      	ldr	r3, [pc, #128]	; (80224e4 <InitPassageModeForSwing+0x1f0>)
 8022464:	781b      	ldrb	r3, [r3, #0]
 8022466:	2b00      	cmp	r3, #0
 8022468:	d1cb      	bne.n	8022402 <InitPassageModeForSwing+0x10e>
 802246a:	2003      	movs	r0, #3
 802246c:	e7c7      	b.n	80223fe <InitPassageModeForSwing+0x10a>
 802246e:	2002      	movs	r0, #2
 8022470:	e7d1      	b.n	8022416 <InitPassageModeForSwing+0x122>
 8022472:	2001      	movs	r0, #1
 8022474:	e7cf      	b.n	8022416 <InitPassageModeForSwing+0x122>
 8022476:	2102      	movs	r1, #2
 8022478:	e7d7      	b.n	802242a <InitPassageModeForSwing+0x136>
 802247a:	2101      	movs	r1, #1
 802247c:	e7d5      	b.n	802242a <InitPassageModeForSwing+0x136>
 802247e:	bdf8      	pop	{r3, r4, r5, r6, r7, pc}
 8022480:	24000404 	.word	0x24000404
 8022484:	24000124 	.word	0x24000124
 8022488:	24000452 	.word	0x24000452
 802248c:	60000600 	.word	0x60000600
 8022490:	2400020c 	.word	0x2400020c
 8022494:	0802b4a0 	.word	0x0802b4a0
 8022498:	24000410 	.word	0x24000410
 802249c:	24000123 	.word	0x24000123
 80224a0:	24000453 	.word	0x24000453
 80224a4:	24000454 	.word	0x24000454
 80224a8:	24000458 	.word	0x24000458
 80224ac:	240003e8 	.word	0x240003e8
 80224b0:	240003e9 	.word	0x240003e9
 80224b4:	24000158 	.word	0x24000158
 80224b8:	240001f4 	.word	0x240001f4
 80224bc:	24000218 	.word	0x24000218
 80224c0:	0802b4cb 	.word	0x0802b4cb
 80224c4:	0802b4f9 	.word	0x0802b4f9
 80224c8:	24000018 	.word	0x24000018
 80224cc:	240003fc 	.word	0x240003fc
 80224d0:	24000129 	.word	0x24000129
 80224d4:	2400012a 	.word	0x2400012a
 80224d8:	24000127 	.word	0x24000127
 80224dc:	24000126 	.word	0x24000126
 80224e0:	0802b52d 	.word	0x0802b52d
 80224e4:	2400012b 	.word	0x2400012b

080224e8 <OpenBarrierForSwing>:
 80224e8:	4b15      	ldr	r3, [pc, #84]	; (8022540 <OpenBarrierForSwing+0x58>)
 80224ea:	b510      	push	{r4, lr}
 80224ec:	781b      	ldrb	r3, [r3, #0]
 80224ee:	4604      	mov	r4, r0
 80224f0:	f013 0f88 	tst.w	r3, #136	; 0x88
 80224f4:	d002      	beq.n	80224fc <OpenBarrierForSwing+0x14>
 80224f6:	2000      	movs	r0, #0
 80224f8:	f7ff feda 	bl	80222b0 <StopBarrierForSwing>
 80224fc:	4b11      	ldr	r3, [pc, #68]	; (8022544 <OpenBarrierForSwing+0x5c>)
 80224fe:	781b      	ldrb	r3, [r3, #0]
 8022500:	b11b      	cbz	r3, 802250a <OpenBarrierForSwing+0x22>
 8022502:	4620      	mov	r0, r4
 8022504:	f7fe f8dc 	bl	80206c0 <Brr_OpenBarrier>
 8022508:	e00b      	b.n	8022522 <OpenBarrierForSwing+0x3a>
 802250a:	4a0f      	ldr	r2, [pc, #60]	; (8022548 <OpenBarrierForSwing+0x60>)
 802250c:	2c01      	cmp	r4, #1
 802250e:	7014      	strb	r4, [r2, #0]
 8022510:	d10c      	bne.n	802252c <OpenBarrierForSwing+0x44>
 8022512:	4a0e      	ldr	r2, [pc, #56]	; (802254c <OpenBarrierForSwing+0x64>)
 8022514:	7013      	strb	r3, [r2, #0]
 8022516:	4a0e      	ldr	r2, [pc, #56]	; (8022550 <OpenBarrierForSwing+0x68>)
 8022518:	7013      	strb	r3, [r2, #0]
 802251a:	4b0e      	ldr	r3, [pc, #56]	; (8022554 <OpenBarrierForSwing+0x6c>)
 802251c:	785b      	ldrb	r3, [r3, #1]
 802251e:	2b00      	cmp	r3, #0
 8022520:	d0ef      	beq.n	8022502 <OpenBarrierForSwing+0x1a>
 8022522:	480d      	ldr	r0, [pc, #52]	; (8022558 <OpenBarrierForSwing+0x70>)
 8022524:	e8bd 4010 	ldmia.w	sp!, {r4, lr}
 8022528:	f007 bc82 	b.w	8029e30 <SetTimer>
 802252c:	2c02      	cmp	r4, #2
 802252e:	d1f8      	bne.n	8022522 <OpenBarrierForSwing+0x3a>
 8022530:	4a0a      	ldr	r2, [pc, #40]	; (802255c <OpenBarrierForSwing+0x74>)
 8022532:	7013      	strb	r3, [r2, #0]
 8022534:	4a0a      	ldr	r2, [pc, #40]	; (8022560 <OpenBarrierForSwing+0x78>)
 8022536:	7013      	strb	r3, [r2, #0]
 8022538:	4b06      	ldr	r3, [pc, #24]	; (8022554 <OpenBarrierForSwing+0x6c>)
 802253a:	781b      	ldrb	r3, [r3, #0]
 802253c:	e7ef      	b.n	802251e <OpenBarrierForSwing+0x36>
 802253e:	bf00      	nop
 8022540:	60000600 	.word	0x60000600
 8022544:	24000452 	.word	0x24000452
 8022548:	24000123 	.word	0x24000123
 802254c:	240003eb 	.word	0x240003eb
 8022550:	240003e9 	.word	0x240003e9
 8022554:	240003fc 	.word	0x240003fc
 8022558:	24000170 	.word	0x24000170
 802255c:	240003ea 	.word	0x240003ea
 8022560:	240003e8 	.word	0x240003e8

08022564 <CloseBarrierForSwing>:
 8022564:	b508      	push	{r3, lr}
 8022566:	4b0d      	ldr	r3, [pc, #52]	; (802259c <CloseBarrierForSwing+0x38>)
 8022568:	f993 300c 	ldrsb.w	r3, [r3, #12]
 802256c:	2b00      	cmp	r3, #0
 802256e:	db14      	blt.n	802259a <CloseBarrierForSwing+0x36>
 8022570:	4b0b      	ldr	r3, [pc, #44]	; (80225a0 <CloseBarrierForSwing+0x3c>)
 8022572:	781b      	ldrb	r3, [r3, #0]
 8022574:	b913      	cbnz	r3, 802257c <CloseBarrierForSwing+0x18>
 8022576:	f7ff fe67 	bl	8022248 <CheckBarrierClosedStatus>
 802257a:	b170      	cbz	r0, 802259a <CloseBarrierForSwing+0x36>
 802257c:	4b09      	ldr	r3, [pc, #36]	; (80225a4 <CloseBarrierForSwing+0x40>)
 802257e:	781b      	ldrb	r3, [r3, #0]
 8022580:	f013 0f88 	tst.w	r3, #136	; 0x88
 8022584:	d002      	beq.n	802258c <CloseBarrierForSwing+0x28>
 8022586:	2000      	movs	r0, #0
 8022588:	f7ff fe92 	bl	80222b0 <StopBarrierForSwing>
 802258c:	f7fe f8ba 	bl	8020704 <Brr_CloseBarrier>
 8022590:	4805      	ldr	r0, [pc, #20]	; (80225a8 <CloseBarrierForSwing+0x44>)
 8022592:	e8bd 4008 	ldmia.w	sp!, {r3, lr}
 8022596:	f007 bc4b 	b.w	8029e30 <SetTimer>
 802259a:	bd08      	pop	{r3, pc}
 802259c:	24000410 	.word	0x24000410
 80225a0:	24000452 	.word	0x24000452
 80225a4:	60000600 	.word	0x60000600
 80225a8:	24000170 	.word	0x24000170

080225ac <CheckBarrierOperation>:
 80225ac:	b570      	push	{r4, r5, r6, lr}
 80225ae:	4c78      	ldr	r4, [pc, #480]	; (8022790 <CheckBarrierOperation+0x1e4>)
 80225b0:	7823      	ldrb	r3, [r4, #0]
 80225b2:	b173      	cbz	r3, 80225d2 <CheckBarrierOperation+0x26>
 80225b4:	4b77      	ldr	r3, [pc, #476]	; (8022794 <CheckBarrierOperation+0x1e8>)
 80225b6:	2164      	movs	r1, #100	; 0x64
 80225b8:	4620      	mov	r0, r4
 80225ba:	681b      	ldr	r3, [r3, #0]
 80225bc:	4359      	muls	r1, r3
 80225be:	f007 fc43 	bl	8029e48 <IsTimeout>
 80225c2:	2800      	cmp	r0, #0
 80225c4:	f000 80e2 	beq.w	802278c <CheckBarrierOperation+0x1e0>
 80225c8:	4620      	mov	r0, r4
 80225ca:	e8bd 4070 	ldmia.w	sp!, {r4, r5, r6, lr}
 80225ce:	f007 bc37 	b.w	8029e40 <ResetTimer>
 80225d2:	4b71      	ldr	r3, [pc, #452]	; (8022798 <CheckBarrierOperation+0x1ec>)
 80225d4:	781b      	ldrb	r3, [r3, #0]
 80225d6:	2b00      	cmp	r3, #0
 80225d8:	f040 80d3 	bne.w	8022782 <CheckBarrierOperation+0x1d6>
 80225dc:	4c6f      	ldr	r4, [pc, #444]	; (802279c <CheckBarrierOperation+0x1f0>)
 80225de:	7823      	ldrb	r3, [r4, #0]
 80225e0:	2b00      	cmp	r3, #0
 80225e2:	f000 80ce 	beq.w	8022782 <CheckBarrierOperation+0x1d6>
 80225e6:	4b6e      	ldr	r3, [pc, #440]	; (80227a0 <CheckBarrierOperation+0x1f4>)
 80225e8:	2164      	movs	r1, #100	; 0x64
 80225ea:	4620      	mov	r0, r4
 80225ec:	681b      	ldr	r3, [r3, #0]
 80225ee:	4359      	muls	r1, r3
 80225f0:	f007 fc2a 	bl	8029e48 <IsTimeout>
 80225f4:	2800      	cmp	r0, #0
 80225f6:	f000 80c9 	beq.w	802278c <CheckBarrierOperation+0x1e0>
 80225fa:	4d6a      	ldr	r5, [pc, #424]	; (80227a4 <CheckBarrierOperation+0x1f8>)
 80225fc:	4620      	mov	r0, r4
 80225fe:	f007 fc1f 	bl	8029e40 <ResetTimer>
 8022602:	792a      	ldrb	r2, [r5, #4]
 8022604:	0710      	lsls	r0, r2, #28
 8022606:	f100 80ab 	bmi.w	8022760 <CheckBarrierOperation+0x1b4>
 802260a:	4c67      	ldr	r4, [pc, #412]	; (80227a8 <CheckBarrierOperation+0x1fc>)
 802260c:	7923      	ldrb	r3, [r4, #4]
 802260e:	0719      	lsls	r1, r3, #28
 8022610:	f100 80a6 	bmi.w	8022760 <CheckBarrierOperation+0x1b4>
 8022614:	4965      	ldr	r1, [pc, #404]	; (80227ac <CheckBarrierOperation+0x200>)
 8022616:	7808      	ldrb	r0, [r1, #0]
 8022618:	1e41      	subs	r1, r0, #1
 802261a:	2901      	cmp	r1, #1
 802261c:	d903      	bls.n	8022626 <CheckBarrierOperation+0x7a>
 802261e:	4964      	ldr	r1, [pc, #400]	; (80227b0 <CheckBarrierOperation+0x204>)
 8022620:	7809      	ldrb	r1, [r1, #0]
 8022622:	2901      	cmp	r1, #1
 8022624:	d12a      	bne.n	802267c <CheckBarrierOperation+0xd0>
 8022626:	f002 0207 	and.w	r2, r2, #7
 802262a:	2a05      	cmp	r2, #5
 802262c:	d103      	bne.n	8022636 <CheckBarrierOperation+0x8a>
 802262e:	f003 0307 	and.w	r3, r3, #7
 8022632:	2b05      	cmp	r3, #5
 8022634:	d008      	beq.n	8022648 <CheckBarrierOperation+0x9c>
 8022636:	4b5f      	ldr	r3, [pc, #380]	; (80227b4 <CheckBarrierOperation+0x208>)
 8022638:	781b      	ldrb	r3, [r3, #0]
 802263a:	b90b      	cbnz	r3, 8022640 <CheckBarrierOperation+0x94>
 802263c:	f7fe fba6 	bl	8020d8c <ControlBarrier>
 8022640:	e8bd 4070 	ldmia.w	sp!, {r4, r5, r6, lr}
 8022644:	f7fe ba28 	b.w	8020a98 <Brr_Inq_Status>
 8022648:	4b5b      	ldr	r3, [pc, #364]	; (80227b8 <CheckBarrierOperation+0x20c>)
 802264a:	781b      	ldrb	r3, [r3, #0]
 802264c:	2b00      	cmp	r3, #0
 802264e:	d1f7      	bne.n	8022640 <CheckBarrierOperation+0x94>
 8022650:	4a5a      	ldr	r2, [pc, #360]	; (80227bc <CheckBarrierOperation+0x210>)
 8022652:	6013      	str	r3, [r2, #0]
 8022654:	4b5a      	ldr	r3, [pc, #360]	; (80227c0 <CheckBarrierOperation+0x214>)
 8022656:	7b1a      	ldrb	r2, [r3, #12]
 8022658:	f022 020f 	bic.w	r2, r2, #15
 802265c:	731a      	strb	r2, [r3, #12]
 802265e:	2211      	movs	r2, #17
 8022660:	741a      	strb	r2, [r3, #16]
 8022662:	f7ff fdf1 	bl	8022248 <CheckBarrierClosedStatus>
 8022666:	2800      	cmp	r0, #0
 8022668:	d0ea      	beq.n	8022640 <CheckBarrierOperation+0x94>
 802266a:	f7ff fdff 	bl	802226c <CheckZeroAuthCount>
 802266e:	2800      	cmp	r0, #0
 8022670:	d0e6      	beq.n	8022640 <CheckBarrierOperation+0x94>
 8022672:	4854      	ldr	r0, [pc, #336]	; (80227c4 <CheckBarrierOperation+0x218>)
 8022674:	f003 fc78 	bl	8025f68 <printf_>
 8022678:	2003      	movs	r0, #3
 802267a:	e7df      	b.n	802263c <CheckBarrierOperation+0x90>
 802267c:	2803      	cmp	r0, #3
 802267e:	d1df      	bne.n	8022640 <CheckBarrierOperation+0x94>
 8022680:	f002 0207 	and.w	r2, r2, #7
 8022684:	2a02      	cmp	r2, #2
 8022686:	d103      	bne.n	8022690 <CheckBarrierOperation+0xe4>
 8022688:	f003 0007 	and.w	r0, r3, #7
 802268c:	2802      	cmp	r0, #2
 802268e:	d03b      	beq.n	8022708 <CheckBarrierOperation+0x15c>
 8022690:	f7ff fdda 	bl	8022248 <CheckBarrierClosedStatus>
 8022694:	2800      	cmp	r0, #0
 8022696:	d0d3      	beq.n	8022640 <CheckBarrierOperation+0x94>
 8022698:	7922      	ldrb	r2, [r4, #4]
 802269a:	7929      	ldrb	r1, [r5, #4]
 802269c:	f002 0207 	and.w	r2, r2, #7
 80226a0:	4849      	ldr	r0, [pc, #292]	; (80227c8 <CheckBarrierOperation+0x21c>)
 80226a2:	f001 0107 	and.w	r1, r1, #7
 80226a6:	f003 fc5f 	bl	8025f68 <printf_>
 80226aa:	4b48      	ldr	r3, [pc, #288]	; (80227cc <CheckBarrierOperation+0x220>)
 80226ac:	781b      	ldrb	r3, [r3, #0]
 80226ae:	2b00      	cmp	r3, #0
 80226b0:	d1c6      	bne.n	8022640 <CheckBarrierOperation+0x94>
 80226b2:	4e42      	ldr	r6, [pc, #264]	; (80227bc <CheckBarrierOperation+0x210>)
 80226b4:	6833      	ldr	r3, [r6, #0]
 80226b6:	3301      	adds	r3, #1
 80226b8:	2b14      	cmp	r3, #20
 80226ba:	6033      	str	r3, [r6, #0]
 80226bc:	d1c0      	bne.n	8022640 <CheckBarrierOperation+0x94>
 80226be:	4b44      	ldr	r3, [pc, #272]	; (80227d0 <CheckBarrierOperation+0x224>)
 80226c0:	781b      	ldrb	r3, [r3, #0]
 80226c2:	b91b      	cbnz	r3, 80226cc <CheckBarrierOperation+0x120>
 80226c4:	4b3e      	ldr	r3, [pc, #248]	; (80227c0 <CheckBarrierOperation+0x214>)
 80226c6:	7b1b      	ldrb	r3, [r3, #12]
 80226c8:	071b      	lsls	r3, r3, #28
 80226ca:	d104      	bne.n	80226d6 <CheckBarrierOperation+0x12a>
 80226cc:	4b41      	ldr	r3, [pc, #260]	; (80227d4 <CheckBarrierOperation+0x228>)
 80226ce:	2001      	movs	r0, #1
 80226d0:	78d9      	ldrb	r1, [r3, #3]
 80226d2:	f7fe fb81 	bl	8020dd8 <ControlBuzzer>
 80226d6:	792b      	ldrb	r3, [r5, #4]
 80226d8:	f003 0307 	and.w	r3, r3, #7
 80226dc:	2b02      	cmp	r3, #2
 80226de:	d005      	beq.n	80226ec <CheckBarrierOperation+0x140>
 80226e0:	4b37      	ldr	r3, [pc, #220]	; (80227c0 <CheckBarrierOperation+0x214>)
 80226e2:	2102      	movs	r1, #2
 80226e4:	7b1a      	ldrb	r2, [r3, #12]
 80226e6:	f361 0201 	bfi	r2, r1, #0, #2
 80226ea:	731a      	strb	r2, [r3, #12]
 80226ec:	7923      	ldrb	r3, [r4, #4]
 80226ee:	f003 0307 	and.w	r3, r3, #7
 80226f2:	2b02      	cmp	r3, #2
 80226f4:	d005      	beq.n	8022702 <CheckBarrierOperation+0x156>
 80226f6:	4b32      	ldr	r3, [pc, #200]	; (80227c0 <CheckBarrierOperation+0x214>)
 80226f8:	2102      	movs	r1, #2
 80226fa:	7b1a      	ldrb	r2, [r3, #12]
 80226fc:	f361 0283 	bfi	r2, r1, #2, #2
 8022700:	731a      	strb	r2, [r3, #12]
 8022702:	2300      	movs	r3, #0
 8022704:	6033      	str	r3, [r6, #0]
 8022706:	e7b7      	b.n	8022678 <CheckBarrierOperation+0xcc>
 8022708:	4b2b      	ldr	r3, [pc, #172]	; (80227b8 <CheckBarrierOperation+0x20c>)
 802270a:	781b      	ldrb	r3, [r3, #0]
 802270c:	2b00      	cmp	r3, #0
 802270e:	d197      	bne.n	8022640 <CheckBarrierOperation+0x94>
 8022710:	4b31      	ldr	r3, [pc, #196]	; (80227d8 <CheckBarrierOperation+0x22c>)
 8022712:	781b      	ldrb	r3, [r3, #0]
 8022714:	2b00      	cmp	r3, #0
 8022716:	d193      	bne.n	8022640 <CheckBarrierOperation+0x94>
 8022718:	4a28      	ldr	r2, [pc, #160]	; (80227bc <CheckBarrierOperation+0x210>)
 802271a:	6013      	str	r3, [r2, #0]
 802271c:	4b28      	ldr	r3, [pc, #160]	; (80227c0 <CheckBarrierOperation+0x214>)
 802271e:	7b1a      	ldrb	r2, [r3, #12]
 8022720:	f022 020f 	bic.w	r2, r2, #15
 8022724:	731a      	strb	r2, [r3, #12]
 8022726:	2222      	movs	r2, #34	; 0x22
 8022728:	741a      	strb	r2, [r3, #16]
 802272a:	791a      	ldrb	r2, [r3, #4]
 802272c:	b10a      	cbz	r2, 8022732 <CheckBarrierOperation+0x186>
 802272e:	2001      	movs	r0, #1
 8022730:	e784      	b.n	802263c <CheckBarrierOperation+0x90>
 8022732:	795b      	ldrb	r3, [r3, #5]
 8022734:	2b00      	cmp	r3, #0
 8022736:	d181      	bne.n	802263c <CheckBarrierOperation+0x90>
 8022738:	4b28      	ldr	r3, [pc, #160]	; (80227dc <CheckBarrierOperation+0x230>)
 802273a:	7819      	ldrb	r1, [r3, #0]
 802273c:	4b28      	ldr	r3, [pc, #160]	; (80227e0 <CheckBarrierOperation+0x234>)
 802273e:	881b      	ldrh	r3, [r3, #0]
 8022740:	f423 7340 	bic.w	r3, r3, #768	; 0x300
 8022744:	f023 0303 	bic.w	r3, r3, #3
 8022748:	b29b      	uxth	r3, r3
 802274a:	b913      	cbnz	r3, 8022752 <CheckBarrierOperation+0x1a6>
 802274c:	f011 0001 	ands.w	r0, r1, #1
 8022750:	d003      	beq.n	802275a <CheckBarrierOperation+0x1ae>
 8022752:	4824      	ldr	r0, [pc, #144]	; (80227e4 <CheckBarrierOperation+0x238>)
 8022754:	f003 fc08 	bl	8025f68 <printf_>
 8022758:	2001      	movs	r0, #1
 802275a:	f7ff fda9 	bl	80222b0 <StopBarrierForSwing>
 802275e:	e76f      	b.n	8022640 <CheckBarrierOperation+0x94>
 8022760:	4b21      	ldr	r3, [pc, #132]	; (80227e8 <CheckBarrierOperation+0x23c>)
 8022762:	781b      	ldrb	r3, [r3, #0]
 8022764:	b94b      	cbnz	r3, 802277a <CheckBarrierOperation+0x1ce>
 8022766:	4b16      	ldr	r3, [pc, #88]	; (80227c0 <CheckBarrierOperation+0x214>)
 8022768:	791a      	ldrb	r2, [r3, #4]
 802276a:	b932      	cbnz	r2, 802277a <CheckBarrierOperation+0x1ce>
 802276c:	795b      	ldrb	r3, [r3, #5]
 802276e:	b923      	cbnz	r3, 802277a <CheckBarrierOperation+0x1ce>
 8022770:	f7ff fd6a 	bl	8022248 <CheckBarrierClosedStatus>
 8022774:	2800      	cmp	r0, #0
 8022776:	f47f af63 	bne.w	8022640 <CheckBarrierOperation+0x94>
 802277a:	4b10      	ldr	r3, [pc, #64]	; (80227bc <CheckBarrierOperation+0x210>)
 802277c:	2200      	movs	r2, #0
 802277e:	601a      	str	r2, [r3, #0]
 8022780:	e75e      	b.n	8022640 <CheckBarrierOperation+0x94>
 8022782:	4806      	ldr	r0, [pc, #24]	; (802279c <CheckBarrierOperation+0x1f0>)
 8022784:	e8bd 4070 	ldmia.w	sp!, {r4, r5, r6, lr}
 8022788:	f007 bb52 	b.w	8029e30 <SetTimer>
 802278c:	bd70      	pop	{r4, r5, r6, pc}
 802278e:	bf00      	nop
 8022790:	24000170 	.word	0x24000170
 8022794:	24000008 	.word	0x24000008
 8022798:	24000452 	.word	0x24000452
 802279c:	24000164 	.word	0x24000164
 80227a0:	24000004 	.word	0x24000004
 80227a4:	24000434 	.word	0x24000434
 80227a8:	24000440 	.word	0x24000440
 80227ac:	24000028 	.word	0x24000028
 80227b0:	24000124 	.word	0x24000124
 80227b4:	240003e5 	.word	0x240003e5
 80227b8:	240003ed 	.word	0x240003ed
 80227bc:	240003f4 	.word	0x240003f4
 80227c0:	24000410 	.word	0x24000410
 80227c4:	0802b553 	.word	0x0802b553
 80227c8:	0802b57c 	.word	0x0802b57c
 80227cc:	240003e4 	.word	0x240003e4
 80227d0:	240003ec 	.word	0x240003ec
 80227d4:	24000408 	.word	0x24000408
 80227d8:	2400012b 	.word	0x2400012b
 80227dc:	24000450 	.word	0x24000450
 80227e0:	240003fc 	.word	0x240003fc
 80227e4:	0802b59c 	.word	0x0802b59c
 80227e8:	24000230 	.word	0x24000230

080227ec <ClearPassHistory>:
 80227ec:	b570      	push	{r4, r5, r6, lr}
 80227ee:	4c39      	ldr	r4, [pc, #228]	; (80228d4 <ClearPassHistory+0xe8>)
 80227f0:	7a23      	ldrb	r3, [r4, #8]
 80227f2:	075d      	lsls	r5, r3, #29
 80227f4:	d01a      	beq.n	802282c <ClearPassHistory+0x40>
 80227f6:	4a38      	ldr	r2, [pc, #224]	; (80228d8 <ClearPassHistory+0xec>)
 80227f8:	7812      	ldrb	r2, [r2, #0]
 80227fa:	b9ba      	cbnz	r2, 802282c <ClearPassHistory+0x40>
 80227fc:	f362 0302 	bfi	r3, r2, #0, #3
 8022800:	7223      	strb	r3, [r4, #8]
 8022802:	7f23      	ldrb	r3, [r4, #28]
 8022804:	0718      	lsls	r0, r3, #28
 8022806:	d505      	bpl.n	8022814 <ClearPassHistory+0x28>
 8022808:	f362 03c3 	bfi	r3, r2, #3, #1
 802280c:	4833      	ldr	r0, [pc, #204]	; (80228dc <ClearPassHistory+0xf0>)
 802280e:	7723      	strb	r3, [r4, #28]
 8022810:	f003 fbaa 	bl	8025f68 <printf_>
 8022814:	7f23      	ldrb	r3, [r4, #28]
 8022816:	0759      	lsls	r1, r3, #29
 8022818:	d505      	bpl.n	8022826 <ClearPassHistory+0x3a>
 802281a:	f36f 0382 	bfc	r3, #2, #1
 802281e:	4830      	ldr	r0, [pc, #192]	; (80228e0 <ClearPassHistory+0xf4>)
 8022820:	7723      	strb	r3, [r4, #28]
 8022822:	f003 fba1 	bl	8025f68 <printf_>
 8022826:	482f      	ldr	r0, [pc, #188]	; (80228e4 <ClearPassHistory+0xf8>)
 8022828:	f007 fb0a 	bl	8029e40 <ResetTimer>
 802282c:	7a23      	ldrb	r3, [r4, #8]
 802282e:	f013 0f70 	tst.w	r3, #112	; 0x70
 8022832:	d01c      	beq.n	802286e <ClearPassHistory+0x82>
 8022834:	4a28      	ldr	r2, [pc, #160]	; (80228d8 <ClearPassHistory+0xec>)
 8022836:	7852      	ldrb	r2, [r2, #1]
 8022838:	b9ca      	cbnz	r2, 802286e <ClearPassHistory+0x82>
 802283a:	f362 1306 	bfi	r3, r2, #4, #3
 802283e:	7223      	strb	r3, [r4, #8]
 8022840:	f994 301c 	ldrsb.w	r3, [r4, #28]
 8022844:	2b00      	cmp	r3, #0
 8022846:	da06      	bge.n	8022856 <ClearPassHistory+0x6a>
 8022848:	7f23      	ldrb	r3, [r4, #28]
 802284a:	4827      	ldr	r0, [pc, #156]	; (80228e8 <ClearPassHistory+0xfc>)
 802284c:	f362 13c7 	bfi	r3, r2, #7, #1
 8022850:	7723      	strb	r3, [r4, #28]
 8022852:	f003 fb89 	bl	8025f68 <printf_>
 8022856:	7f23      	ldrb	r3, [r4, #28]
 8022858:	065a      	lsls	r2, r3, #25
 802285a:	d505      	bpl.n	8022868 <ClearPassHistory+0x7c>
 802285c:	f36f 1386 	bfc	r3, #6, #1
 8022860:	4822      	ldr	r0, [pc, #136]	; (80228ec <ClearPassHistory+0x100>)
 8022862:	7723      	strb	r3, [r4, #28]
 8022864:	f003 fb80 	bl	8025f68 <printf_>
 8022868:	481e      	ldr	r0, [pc, #120]	; (80228e4 <ClearPassHistory+0xf8>)
 802286a:	f007 fae9 	bl	8029e40 <ResetTimer>
 802286e:	4b20      	ldr	r3, [pc, #128]	; (80228f0 <ClearPassHistory+0x104>)
 8022870:	781b      	ldrb	r3, [r3, #0]
 8022872:	bb73      	cbnz	r3, 80228d2 <ClearPassHistory+0xe6>
 8022874:	4a1f      	ldr	r2, [pc, #124]	; (80228f4 <ClearPassHistory+0x108>)
 8022876:	4b20      	ldr	r3, [pc, #128]	; (80228f8 <ClearPassHistory+0x10c>)
 8022878:	7811      	ldrb	r1, [r2, #0]
 802287a:	4d20      	ldr	r5, [pc, #128]	; (80228fc <ClearPassHistory+0x110>)
 802287c:	4e20      	ldr	r6, [pc, #128]	; (8022900 <ClearPassHistory+0x114>)
 802287e:	b119      	cbz	r1, 8022888 <ClearPassHistory+0x9c>
 8022880:	7960      	ldrb	r0, [r4, #5]
 8022882:	b1e0      	cbz	r0, 80228be <ClearPassHistory+0xd2>
 8022884:	2901      	cmp	r1, #1
 8022886:	d11a      	bne.n	80228be <ClearPassHistory+0xd2>
 8022888:	2102      	movs	r1, #2
 802288a:	7019      	strb	r1, [r3, #0]
 802288c:	2100      	movs	r1, #0
 802288e:	7029      	strb	r1, [r5, #0]
 8022890:	7851      	ldrb	r1, [r2, #1]
 8022892:	4a1c      	ldr	r2, [pc, #112]	; (8022904 <ClearPassHistory+0x118>)
 8022894:	b119      	cbz	r1, 802289e <ClearPassHistory+0xb2>
 8022896:	7920      	ldrb	r0, [r4, #4]
 8022898:	b1b0      	cbz	r0, 80228c8 <ClearPassHistory+0xdc>
 802289a:	2901      	cmp	r1, #1
 802289c:	d114      	bne.n	80228c8 <ClearPassHistory+0xdc>
 802289e:	2102      	movs	r1, #2
 80228a0:	7011      	strb	r1, [r2, #0]
 80228a2:	2100      	movs	r1, #0
 80228a4:	7031      	strb	r1, [r6, #0]
 80228a6:	7811      	ldrb	r1, [r2, #0]
 80228a8:	7818      	ldrb	r0, [r3, #0]
 80228aa:	f7fe fab5 	bl	8020e18 <ControlDirectionLED>
 80228ae:	2300      	movs	r3, #0
 80228b0:	7831      	ldrb	r1, [r6, #0]
 80228b2:	7828      	ldrb	r0, [r5, #0]
 80228b4:	461a      	mov	r2, r3
 80228b6:	e8bd 4070 	ldmia.w	sp!, {r4, r5, r6, lr}
 80228ba:	f7fe badd 	b.w	8020e78 <ControlIndicator>
 80228be:	2101      	movs	r1, #1
 80228c0:	7019      	strb	r1, [r3, #0]
 80228c2:	2100      	movs	r1, #0
 80228c4:	7031      	strb	r1, [r6, #0]
 80228c6:	e7e3      	b.n	8022890 <ClearPassHistory+0xa4>
 80228c8:	2101      	movs	r1, #1
 80228ca:	7011      	strb	r1, [r2, #0]
 80228cc:	2100      	movs	r1, #0
 80228ce:	7029      	strb	r1, [r5, #0]
 80228d0:	e7e9      	b.n	80228a6 <ClearPassHistory+0xba>
 80228d2:	bd70      	pop	{r4, r5, r6, pc}
 80228d4:	24000410 	.word	0x24000410
 80228d8:	240003fc 	.word	0x240003fc
 80228dc:	0802b5ca 	.word	0x0802b5ca
 80228e0:	0802b5e6 	.word	0x0802b5e6
 80228e4:	240001ac 	.word	0x240001ac
 80228e8:	0802b602 	.word	0x0802b602
 80228ec:	0802b61e 	.word	0x0802b61e
 80228f0:	24000124 	.word	0x24000124
 80228f4:	24000404 	.word	0x24000404
 80228f8:	24000129 	.word	0x24000129
 80228fc:	24000126 	.word	0x24000126
 8022900:	24000127 	.word	0x24000127
 8022904:	2400012a 	.word	0x2400012a

08022908 <CheckEntranceSwing>:
 8022908:	b538      	push	{r3, r4, r5, lr}
 802290a:	4b44      	ldr	r3, [pc, #272]	; (8022a1c <CheckEntranceSwing+0x114>)
 802290c:	4c44      	ldr	r4, [pc, #272]	; (8022a20 <CheckEntranceSwing+0x118>)
 802290e:	781a      	ldrb	r2, [r3, #0]
 8022910:	2a00      	cmp	r2, #0
 8022912:	d046      	beq.n	80229a2 <CheckEntranceSwing+0x9a>
 8022914:	4a43      	ldr	r2, [pc, #268]	; (8022a24 <CheckEntranceSwing+0x11c>)
 8022916:	7963      	ldrb	r3, [r4, #5]
 8022918:	7815      	ldrb	r5, [r2, #0]
 802291a:	2b00      	cmp	r3, #0
 802291c:	d030      	beq.n	8022980 <CheckEntranceSwing+0x78>
 802291e:	f015 05f3 	ands.w	r5, r5, #243	; 0xf3
 8022922:	d10f      	bne.n	8022944 <CheckEntranceSwing+0x3c>
 8022924:	4840      	ldr	r0, [pc, #256]	; (8022a28 <CheckEntranceSwing+0x120>)
 8022926:	f007 fa8b 	bl	8029e40 <ResetTimer>
 802292a:	4b40      	ldr	r3, [pc, #256]	; (8022a2c <CheckEntranceSwing+0x124>)
 802292c:	701d      	strb	r5, [r3, #0]
 802292e:	7a23      	ldrb	r3, [r4, #8]
 8022930:	f365 13c7 	bfi	r3, r5, #7, #1
 8022934:	7223      	strb	r3, [r4, #8]
 8022936:	4b3e      	ldr	r3, [pc, #248]	; (8022a30 <CheckEntranceSwing+0x128>)
 8022938:	701d      	strb	r5, [r3, #0]
 802293a:	f7ff ff57 	bl	80227ec <ClearPassHistory>
 802293e:	483d      	ldr	r0, [pc, #244]	; (8022a34 <CheckEntranceSwing+0x12c>)
 8022940:	f003 fb12 	bl	8025f68 <printf_>
 8022944:	4b3c      	ldr	r3, [pc, #240]	; (8022a38 <CheckEntranceSwing+0x130>)
 8022946:	781a      	ldrb	r2, [r3, #0]
 8022948:	2a00      	cmp	r2, #0
 802294a:	d050      	beq.n	80229ee <CheckEntranceSwing+0xe6>
 802294c:	4a35      	ldr	r2, [pc, #212]	; (8022a24 <CheckEntranceSwing+0x11c>)
 802294e:	7923      	ldrb	r3, [r4, #4]
 8022950:	7855      	ldrb	r5, [r2, #1]
 8022952:	2b00      	cmp	r3, #0
 8022954:	d03b      	beq.n	80229ce <CheckEntranceSwing+0xc6>
 8022956:	f015 05f3 	ands.w	r5, r5, #243	; 0xf3
 802295a:	d15e      	bne.n	8022a1a <CheckEntranceSwing+0x112>
 802295c:	4837      	ldr	r0, [pc, #220]	; (8022a3c <CheckEntranceSwing+0x134>)
 802295e:	f007 fa6f 	bl	8029e40 <ResetTimer>
 8022962:	4b37      	ldr	r3, [pc, #220]	; (8022a40 <CheckEntranceSwing+0x138>)
 8022964:	701d      	strb	r5, [r3, #0]
 8022966:	7a23      	ldrb	r3, [r4, #8]
 8022968:	f365 03c3 	bfi	r3, r5, #3, #1
 802296c:	7223      	strb	r3, [r4, #8]
 802296e:	4b30      	ldr	r3, [pc, #192]	; (8022a30 <CheckEntranceSwing+0x128>)
 8022970:	701d      	strb	r5, [r3, #0]
 8022972:	f7ff ff3b 	bl	80227ec <ClearPassHistory>
 8022976:	4833      	ldr	r0, [pc, #204]	; (8022a44 <CheckEntranceSwing+0x13c>)
 8022978:	e8bd 4038 	ldmia.w	sp!, {r3, r4, r5, lr}
 802297c:	f003 baf4 	b.w	8025f68 <printf_>
 8022980:	2d00      	cmp	r5, #0
 8022982:	d1df      	bne.n	8022944 <CheckEntranceSwing+0x3c>
 8022984:	4828      	ldr	r0, [pc, #160]	; (8022a28 <CheckEntranceSwing+0x120>)
 8022986:	f007 fa5b 	bl	8029e40 <ResetTimer>
 802298a:	4b28      	ldr	r3, [pc, #160]	; (8022a2c <CheckEntranceSwing+0x124>)
 802298c:	701d      	strb	r5, [r3, #0]
 802298e:	7a23      	ldrb	r3, [r4, #8]
 8022990:	f365 13c7 	bfi	r3, r5, #7, #1
 8022994:	7223      	strb	r3, [r4, #8]
 8022996:	4b26      	ldr	r3, [pc, #152]	; (8022a30 <CheckEntranceSwing+0x128>)
 8022998:	701d      	strb	r5, [r3, #0]
 802299a:	f7ff ff27 	bl	80227ec <ClearPassHistory>
 802299e:	482a      	ldr	r0, [pc, #168]	; (8022a48 <CheckEntranceSwing+0x140>)
 80229a0:	e7ce      	b.n	8022940 <CheckEntranceSwing+0x38>
 80229a2:	f994 2008 	ldrsb.w	r2, [r4, #8]
 80229a6:	2a00      	cmp	r2, #0
 80229a8:	dbcc      	blt.n	8022944 <CheckEntranceSwing+0x3c>
 80229aa:	4a1e      	ldr	r2, [pc, #120]	; (8022a24 <CheckEntranceSwing+0x11c>)
 80229ac:	7811      	ldrb	r1, [r2, #0]
 80229ae:	0788      	lsls	r0, r1, #30
 80229b0:	d0c8      	beq.n	8022944 <CheckEntranceSwing+0x3c>
 80229b2:	4a1e      	ldr	r2, [pc, #120]	; (8022a2c <CheckEntranceSwing+0x124>)
 80229b4:	f001 0103 	and.w	r1, r1, #3
 80229b8:	7810      	ldrb	r0, [r2, #0]
 80229ba:	4301      	orrs	r1, r0
 80229bc:	2901      	cmp	r1, #1
 80229be:	7011      	strb	r1, [r2, #0]
 80229c0:	d9c0      	bls.n	8022944 <CheckEntranceSwing+0x3c>
 80229c2:	2201      	movs	r2, #1
 80229c4:	4821      	ldr	r0, [pc, #132]	; (8022a4c <CheckEntranceSwing+0x144>)
 80229c6:	701a      	strb	r2, [r3, #0]
 80229c8:	f003 face 	bl	8025f68 <printf_>
 80229cc:	e7ba      	b.n	8022944 <CheckEntranceSwing+0x3c>
 80229ce:	bb25      	cbnz	r5, 8022a1a <CheckEntranceSwing+0x112>
 80229d0:	481a      	ldr	r0, [pc, #104]	; (8022a3c <CheckEntranceSwing+0x134>)
 80229d2:	f007 fa35 	bl	8029e40 <ResetTimer>
 80229d6:	4b1a      	ldr	r3, [pc, #104]	; (8022a40 <CheckEntranceSwing+0x138>)
 80229d8:	701d      	strb	r5, [r3, #0]
 80229da:	7a23      	ldrb	r3, [r4, #8]
 80229dc:	f365 03c3 	bfi	r3, r5, #3, #1
 80229e0:	7223      	strb	r3, [r4, #8]
 80229e2:	4b13      	ldr	r3, [pc, #76]	; (8022a30 <CheckEntranceSwing+0x128>)
 80229e4:	701d      	strb	r5, [r3, #0]
 80229e6:	f7ff ff01 	bl	80227ec <ClearPassHistory>
 80229ea:	4819      	ldr	r0, [pc, #100]	; (8022a50 <CheckEntranceSwing+0x148>)
 80229ec:	e7c4      	b.n	8022978 <CheckEntranceSwing+0x70>
 80229ee:	7a22      	ldrb	r2, [r4, #8]
 80229f0:	0711      	lsls	r1, r2, #28
 80229f2:	d412      	bmi.n	8022a1a <CheckEntranceSwing+0x112>
 80229f4:	4a0b      	ldr	r2, [pc, #44]	; (8022a24 <CheckEntranceSwing+0x11c>)
 80229f6:	7851      	ldrb	r1, [r2, #1]
 80229f8:	078a      	lsls	r2, r1, #30
 80229fa:	d00e      	beq.n	8022a1a <CheckEntranceSwing+0x112>
 80229fc:	4a10      	ldr	r2, [pc, #64]	; (8022a40 <CheckEntranceSwing+0x138>)
 80229fe:	f001 0103 	and.w	r1, r1, #3
 8022a02:	7810      	ldrb	r0, [r2, #0]
 8022a04:	4301      	orrs	r1, r0
 8022a06:	2901      	cmp	r1, #1
 8022a08:	7011      	strb	r1, [r2, #0]
 8022a0a:	d906      	bls.n	8022a1a <CheckEntranceSwing+0x112>
 8022a0c:	2201      	movs	r2, #1
 8022a0e:	4811      	ldr	r0, [pc, #68]	; (8022a54 <CheckEntranceSwing+0x14c>)
 8022a10:	701a      	strb	r2, [r3, #0]
 8022a12:	e8bd 4038 	ldmia.w	sp!, {r3, r4, r5, lr}
 8022a16:	f003 baa7 	b.w	8025f68 <printf_>
 8022a1a:	bd38      	pop	{r3, r4, r5, pc}
 8022a1c:	24000453 	.word	0x24000453
 8022a20:	24000410 	.word	0x24000410
 8022a24:	240003fc 	.word	0x240003fc
 8022a28:	240001ac 	.word	0x240001ac
 8022a2c:	240003e0 	.word	0x240003e0
 8022a30:	240003e5 	.word	0x240003e5
 8022a34:	0802b63a 	.word	0x0802b63a
 8022a38:	24000454 	.word	0x24000454
 8022a3c:	240001b8 	.word	0x240001b8
 8022a40:	240003e1 	.word	0x240003e1
 8022a44:	0802b693 	.word	0x0802b693
 8022a48:	0802b660 	.word	0x0802b660
 8022a4c:	0802b67d 	.word	0x0802b67d
 8022a50:	0802b6ba 	.word	0x0802b6ba
 8022a54:	0802b6d7 	.word	0x0802b6d7

08022a58 <CheckPassReadySwing>:
 8022a58:	b570      	push	{r4, r5, r6, lr}
 8022a5a:	4d26      	ldr	r5, [pc, #152]	; (8022af4 <CheckPassReadySwing+0x9c>)
 8022a5c:	782b      	ldrb	r3, [r5, #0]
 8022a5e:	b30b      	cbz	r3, 8022aa4 <CheckPassReadySwing+0x4c>
 8022a60:	4c25      	ldr	r4, [pc, #148]	; (8022af8 <CheckPassReadySwing+0xa0>)
 8022a62:	7963      	ldrb	r3, [r4, #5]
 8022a64:	b1f3      	cbz	r3, 8022aa4 <CheckPassReadySwing+0x4c>
 8022a66:	4b25      	ldr	r3, [pc, #148]	; (8022afc <CheckPassReadySwing+0xa4>)
 8022a68:	781e      	ldrb	r6, [r3, #0]
 8022a6a:	b95e      	cbnz	r6, 8022a84 <CheckPassReadySwing+0x2c>
 8022a6c:	4b24      	ldr	r3, [pc, #144]	; (8022b00 <CheckPassReadySwing+0xa8>)
 8022a6e:	785b      	ldrb	r3, [r3, #1]
 8022a70:	f013 0fc8 	tst.w	r3, #200	; 0xc8
 8022a74:	d006      	beq.n	8022a84 <CheckPassReadySwing+0x2c>
 8022a76:	4823      	ldr	r0, [pc, #140]	; (8022b04 <CheckPassReadySwing+0xac>)
 8022a78:	f003 fa76 	bl	8025f68 <printf_>
 8022a7c:	4b22      	ldr	r3, [pc, #136]	; (8022b08 <CheckPassReadySwing+0xb0>)
 8022a7e:	2201      	movs	r2, #1
 8022a80:	702e      	strb	r6, [r5, #0]
 8022a82:	701a      	strb	r2, [r3, #0]
 8022a84:	7963      	ldrb	r3, [r4, #5]
 8022a86:	b16b      	cbz	r3, 8022aa4 <CheckPassReadySwing+0x4c>
 8022a88:	4b1d      	ldr	r3, [pc, #116]	; (8022b00 <CheckPassReadySwing+0xa8>)
 8022a8a:	785b      	ldrb	r3, [r3, #1]
 8022a8c:	0799      	lsls	r1, r3, #30
 8022a8e:	d009      	beq.n	8022aa4 <CheckPassReadySwing+0x4c>
 8022a90:	f003 0334 	and.w	r3, r3, #52	; 0x34
 8022a94:	2b30      	cmp	r3, #48	; 0x30
 8022a96:	d105      	bne.n	8022aa4 <CheckPassReadySwing+0x4c>
 8022a98:	4b1c      	ldr	r3, [pc, #112]	; (8022b0c <CheckPassReadySwing+0xb4>)
 8022a9a:	2201      	movs	r2, #1
 8022a9c:	481c      	ldr	r0, [pc, #112]	; (8022b10 <CheckPassReadySwing+0xb8>)
 8022a9e:	701a      	strb	r2, [r3, #0]
 8022aa0:	f003 fa62 	bl	8025f68 <printf_>
 8022aa4:	4d1b      	ldr	r5, [pc, #108]	; (8022b14 <CheckPassReadySwing+0xbc>)
 8022aa6:	782b      	ldrb	r3, [r5, #0]
 8022aa8:	b31b      	cbz	r3, 8022af2 <CheckPassReadySwing+0x9a>
 8022aaa:	4c13      	ldr	r4, [pc, #76]	; (8022af8 <CheckPassReadySwing+0xa0>)
 8022aac:	7923      	ldrb	r3, [r4, #4]
 8022aae:	b303      	cbz	r3, 8022af2 <CheckPassReadySwing+0x9a>
 8022ab0:	4b15      	ldr	r3, [pc, #84]	; (8022b08 <CheckPassReadySwing+0xb0>)
 8022ab2:	781e      	ldrb	r6, [r3, #0]
 8022ab4:	b95e      	cbnz	r6, 8022ace <CheckPassReadySwing+0x76>
 8022ab6:	4b12      	ldr	r3, [pc, #72]	; (8022b00 <CheckPassReadySwing+0xa8>)
 8022ab8:	781b      	ldrb	r3, [r3, #0]
 8022aba:	f013 0fc8 	tst.w	r3, #200	; 0xc8
 8022abe:	d006      	beq.n	8022ace <CheckPassReadySwing+0x76>
 8022ac0:	4815      	ldr	r0, [pc, #84]	; (8022b18 <CheckPassReadySwing+0xc0>)
 8022ac2:	f003 fa51 	bl	8025f68 <printf_>
 8022ac6:	4b0d      	ldr	r3, [pc, #52]	; (8022afc <CheckPassReadySwing+0xa4>)
 8022ac8:	2201      	movs	r2, #1
 8022aca:	702e      	strb	r6, [r5, #0]
 8022acc:	701a      	strb	r2, [r3, #0]
 8022ace:	7923      	ldrb	r3, [r4, #4]
 8022ad0:	b17b      	cbz	r3, 8022af2 <CheckPassReadySwing+0x9a>
 8022ad2:	4b0b      	ldr	r3, [pc, #44]	; (8022b00 <CheckPassReadySwing+0xa8>)
 8022ad4:	781b      	ldrb	r3, [r3, #0]
 8022ad6:	079a      	lsls	r2, r3, #30
 8022ad8:	d00b      	beq.n	8022af2 <CheckPassReadySwing+0x9a>
 8022ada:	f003 030d 	and.w	r3, r3, #13
 8022ade:	2b0c      	cmp	r3, #12
 8022ae0:	d107      	bne.n	8022af2 <CheckPassReadySwing+0x9a>
 8022ae2:	4b0e      	ldr	r3, [pc, #56]	; (8022b1c <CheckPassReadySwing+0xc4>)
 8022ae4:	2201      	movs	r2, #1
 8022ae6:	480e      	ldr	r0, [pc, #56]	; (8022b20 <CheckPassReadySwing+0xc8>)
 8022ae8:	701a      	strb	r2, [r3, #0]
 8022aea:	e8bd 4070 	ldmia.w	sp!, {r4, r5, r6, lr}
 8022aee:	f003 ba3b 	b.w	8025f68 <printf_>
 8022af2:	bd70      	pop	{r4, r5, r6, pc}
 8022af4:	24000454 	.word	0x24000454
 8022af8:	24000410 	.word	0x24000410
 8022afc:	240003ea 	.word	0x240003ea
 8022b00:	240003fc 	.word	0x240003fc
 8022b04:	0802b6ed 	.word	0x0802b6ed
 8022b08:	240003eb 	.word	0x240003eb
 8022b0c:	240003e7 	.word	0x240003e7
 8022b10:	0802b700 	.word	0x0802b700
 8022b14:	24000453 	.word	0x24000453
 8022b18:	0802b718 	.word	0x0802b718
 8022b1c:	240003e6 	.word	0x240003e6
 8022b20:	0802b72b 	.word	0x0802b72b

08022b24 <CheckPassOverSensor>:
 8022b24:	b538      	push	{r3, r4, r5, lr}
 8022b26:	4b19      	ldr	r3, [pc, #100]	; (8022b8c <CheckPassOverSensor+0x68>)
 8022b28:	781c      	ldrb	r4, [r3, #0]
 8022b2a:	4b19      	ldr	r3, [pc, #100]	; (8022b90 <CheckPassOverSensor+0x6c>)
 8022b2c:	795b      	ldrb	r3, [r3, #5]
 8022b2e:	2b01      	cmp	r3, #1
 8022b30:	d117      	bne.n	8022b62 <CheckPassOverSensor+0x3e>
 8022b32:	b14c      	cbz	r4, 8022b48 <CheckPassOverSensor+0x24>
 8022b34:	4b17      	ldr	r3, [pc, #92]	; (8022b94 <CheckPassOverSensor+0x70>)
 8022b36:	785b      	ldrb	r3, [r3, #1]
 8022b38:	f013 0301 	ands.w	r3, r3, #1
 8022b3c:	d023      	beq.n	8022b86 <CheckPassOverSensor+0x62>
 8022b3e:	4816      	ldr	r0, [pc, #88]	; (8022b98 <CheckPassOverSensor+0x74>)
 8022b40:	f003 fa12 	bl	8025f68 <printf_>
 8022b44:	4620      	mov	r0, r4
 8022b46:	bd38      	pop	{r3, r4, r5, pc}
 8022b48:	4b14      	ldr	r3, [pc, #80]	; (8022b9c <CheckPassOverSensor+0x78>)
 8022b4a:	781d      	ldrb	r5, [r3, #0]
 8022b4c:	2d00      	cmp	r5, #0
 8022b4e:	d0f9      	beq.n	8022b44 <CheckPassOverSensor+0x20>
 8022b50:	4b10      	ldr	r3, [pc, #64]	; (8022b94 <CheckPassOverSensor+0x70>)
 8022b52:	781b      	ldrb	r3, [r3, #0]
 8022b54:	07da      	lsls	r2, r3, #31
 8022b56:	d5f5      	bpl.n	8022b44 <CheckPassOverSensor+0x20>
 8022b58:	4811      	ldr	r0, [pc, #68]	; (8022ba0 <CheckPassOverSensor+0x7c>)
 8022b5a:	462c      	mov	r4, r5
 8022b5c:	f003 fa04 	bl	8025f68 <printf_>
 8022b60:	e7f0      	b.n	8022b44 <CheckPassOverSensor+0x20>
 8022b62:	b134      	cbz	r4, 8022b72 <CheckPassOverSensor+0x4e>
 8022b64:	4b0b      	ldr	r3, [pc, #44]	; (8022b94 <CheckPassOverSensor+0x70>)
 8022b66:	785b      	ldrb	r3, [r3, #1]
 8022b68:	f013 0303 	ands.w	r3, r3, #3
 8022b6c:	d00b      	beq.n	8022b86 <CheckPassOverSensor+0x62>
 8022b6e:	480d      	ldr	r0, [pc, #52]	; (8022ba4 <CheckPassOverSensor+0x80>)
 8022b70:	e7e6      	b.n	8022b40 <CheckPassOverSensor+0x1c>
 8022b72:	4b0a      	ldr	r3, [pc, #40]	; (8022b9c <CheckPassOverSensor+0x78>)
 8022b74:	781d      	ldrb	r5, [r3, #0]
 8022b76:	2d00      	cmp	r5, #0
 8022b78:	d0e4      	beq.n	8022b44 <CheckPassOverSensor+0x20>
 8022b7a:	4b06      	ldr	r3, [pc, #24]	; (8022b94 <CheckPassOverSensor+0x70>)
 8022b7c:	781b      	ldrb	r3, [r3, #0]
 8022b7e:	079b      	lsls	r3, r3, #30
 8022b80:	d0e0      	beq.n	8022b44 <CheckPassOverSensor+0x20>
 8022b82:	4809      	ldr	r0, [pc, #36]	; (8022ba8 <CheckPassOverSensor+0x84>)
 8022b84:	e7e9      	b.n	8022b5a <CheckPassOverSensor+0x36>
 8022b86:	461c      	mov	r4, r3
 8022b88:	e7dc      	b.n	8022b44 <CheckPassOverSensor+0x20>
 8022b8a:	bf00      	nop
 8022b8c:	240003e8 	.word	0x240003e8
 8022b90:	24000408 	.word	0x24000408
 8022b94:	240003fc 	.word	0x240003fc
 8022b98:	0802b745 	.word	0x0802b745
 8022b9c:	240003e9 	.word	0x240003e9
 8022ba0:	0802b762 	.word	0x0802b762
 8022ba4:	0802b77f 	.word	0x0802b77f
 8022ba8:	0802b7a0 	.word	0x0802b7a0

08022bac <CheckPassingSwing>:
 8022bac:	b570      	push	{r4, r5, r6, lr}
 8022bae:	4e48      	ldr	r6, [pc, #288]	; (8022cd0 <CheckPassingSwing+0x124>)
 8022bb0:	7833      	ldrb	r3, [r6, #0]
 8022bb2:	b34b      	cbz	r3, 8022c08 <CheckPassingSwing+0x5c>
 8022bb4:	4d47      	ldr	r5, [pc, #284]	; (8022cd4 <CheckPassingSwing+0x128>)
 8022bb6:	782b      	ldrb	r3, [r5, #0]
 8022bb8:	2b00      	cmp	r3, #0
 8022bba:	d04b      	beq.n	8022c54 <CheckPassingSwing+0xa8>
 8022bbc:	f7ff ffb2 	bl	8022b24 <CheckPassOverSensor>
 8022bc0:	b310      	cbz	r0, 8022c08 <CheckPassingSwing+0x5c>
 8022bc2:	4c45      	ldr	r4, [pc, #276]	; (8022cd8 <CheckPassingSwing+0x12c>)
 8022bc4:	4845      	ldr	r0, [pc, #276]	; (8022cdc <CheckPassingSwing+0x130>)
 8022bc6:	7921      	ldrb	r1, [r4, #4]
 8022bc8:	f003 f9ce 	bl	8025f68 <printf_>
 8022bcc:	2300      	movs	r3, #0
 8022bce:	7033      	strb	r3, [r6, #0]
 8022bd0:	702b      	strb	r3, [r5, #0]
 8022bd2:	7923      	ldrb	r3, [r4, #4]
 8022bd4:	2b01      	cmp	r3, #1
 8022bd6:	7923      	ldrb	r3, [r4, #4]
 8022bd8:	d10c      	bne.n	8022bf4 <CheckPassingSwing+0x48>
 8022bda:	3b01      	subs	r3, #1
 8022bdc:	2003      	movs	r0, #3
 8022bde:	b2db      	uxtb	r3, r3
 8022be0:	7123      	strb	r3, [r4, #4]
 8022be2:	f7fe f8d3 	bl	8020d8c <ControlBarrier>
 8022be6:	483e      	ldr	r0, [pc, #248]	; (8022ce0 <CheckPassingSwing+0x134>)
 8022be8:	f007 f92a 	bl	8029e40 <ResetTimer>
 8022bec:	483d      	ldr	r0, [pc, #244]	; (8022ce4 <CheckPassingSwing+0x138>)
 8022bee:	f003 f9bb 	bl	8025f68 <printf_>
 8022bf2:	e009      	b.n	8022c08 <CheckPassingSwing+0x5c>
 8022bf4:	2b01      	cmp	r3, #1
 8022bf6:	d907      	bls.n	8022c08 <CheckPassingSwing+0x5c>
 8022bf8:	7923      	ldrb	r3, [r4, #4]
 8022bfa:	3b01      	subs	r3, #1
 8022bfc:	b2db      	uxtb	r3, r3
 8022bfe:	7123      	strb	r3, [r4, #4]
 8022c00:	f7fe fd9a 	bl	8021738 <SetAuthTimer>
 8022c04:	2301      	movs	r3, #1
 8022c06:	7033      	strb	r3, [r6, #0]
 8022c08:	4e37      	ldr	r6, [pc, #220]	; (8022ce8 <CheckPassingSwing+0x13c>)
 8022c0a:	7833      	ldrb	r3, [r6, #0]
 8022c0c:	2b00      	cmp	r3, #0
 8022c0e:	d044      	beq.n	8022c9a <CheckPassingSwing+0xee>
 8022c10:	4d36      	ldr	r5, [pc, #216]	; (8022cec <CheckPassingSwing+0x140>)
 8022c12:	782b      	ldrb	r3, [r5, #0]
 8022c14:	2b00      	cmp	r3, #0
 8022c16:	d041      	beq.n	8022c9c <CheckPassingSwing+0xf0>
 8022c18:	f7ff ff84 	bl	8022b24 <CheckPassOverSensor>
 8022c1c:	2800      	cmp	r0, #0
 8022c1e:	d03c      	beq.n	8022c9a <CheckPassingSwing+0xee>
 8022c20:	4c2d      	ldr	r4, [pc, #180]	; (8022cd8 <CheckPassingSwing+0x12c>)
 8022c22:	4833      	ldr	r0, [pc, #204]	; (8022cf0 <CheckPassingSwing+0x144>)
 8022c24:	7961      	ldrb	r1, [r4, #5]
 8022c26:	f003 f99f 	bl	8025f68 <printf_>
 8022c2a:	2300      	movs	r3, #0
 8022c2c:	7033      	strb	r3, [r6, #0]
 8022c2e:	702b      	strb	r3, [r5, #0]
 8022c30:	7963      	ldrb	r3, [r4, #5]
 8022c32:	2b01      	cmp	r3, #1
 8022c34:	7963      	ldrb	r3, [r4, #5]
 8022c36:	d126      	bne.n	8022c86 <CheckPassingSwing+0xda>
 8022c38:	3b01      	subs	r3, #1
 8022c3a:	2003      	movs	r0, #3
 8022c3c:	b2db      	uxtb	r3, r3
 8022c3e:	7163      	strb	r3, [r4, #5]
 8022c40:	f7fe f8a4 	bl	8020d8c <ControlBarrier>
 8022c44:	4826      	ldr	r0, [pc, #152]	; (8022ce0 <CheckPassingSwing+0x134>)
 8022c46:	f007 f8fb 	bl	8029e40 <ResetTimer>
 8022c4a:	482a      	ldr	r0, [pc, #168]	; (8022cf4 <CheckPassingSwing+0x148>)
 8022c4c:	e8bd 4070 	ldmia.w	sp!, {r4, r5, r6, lr}
 8022c50:	f003 b98a 	b.w	8025f68 <printf_>
 8022c54:	4b28      	ldr	r3, [pc, #160]	; (8022cf8 <CheckPassingSwing+0x14c>)
 8022c56:	785b      	ldrb	r3, [r3, #1]
 8022c58:	06d9      	lsls	r1, r3, #27
 8022c5a:	d4d5      	bmi.n	8022c08 <CheckPassingSwing+0x5c>
 8022c5c:	f013 0ff0 	tst.w	r3, #240	; 0xf0
 8022c60:	d0d2      	beq.n	8022c08 <CheckPassingSwing+0x5c>
 8022c62:	4826      	ldr	r0, [pc, #152]	; (8022cfc <CheckPassingSwing+0x150>)
 8022c64:	f003 f980 	bl	8025f68 <printf_>
 8022c68:	4b1b      	ldr	r3, [pc, #108]	; (8022cd8 <CheckPassingSwing+0x12c>)
 8022c6a:	7f1a      	ldrb	r2, [r3, #28]
 8022c6c:	7919      	ldrb	r1, [r3, #4]
 8022c6e:	f002 0201 	and.w	r2, r2, #1
 8022c72:	430a      	orrs	r2, r1
 8022c74:	d0c8      	beq.n	8022c08 <CheckPassingSwing+0x5c>
 8022c76:	2201      	movs	r2, #1
 8022c78:	4821      	ldr	r0, [pc, #132]	; (8022d00 <CheckPassingSwing+0x154>)
 8022c7a:	702a      	strb	r2, [r5, #0]
 8022c7c:	7a1a      	ldrb	r2, [r3, #8]
 8022c7e:	f042 0208 	orr.w	r2, r2, #8
 8022c82:	721a      	strb	r2, [r3, #8]
 8022c84:	e7b3      	b.n	8022bee <CheckPassingSwing+0x42>
 8022c86:	2b01      	cmp	r3, #1
 8022c88:	d907      	bls.n	8022c9a <CheckPassingSwing+0xee>
 8022c8a:	7963      	ldrb	r3, [r4, #5]
 8022c8c:	3b01      	subs	r3, #1
 8022c8e:	b2db      	uxtb	r3, r3
 8022c90:	7163      	strb	r3, [r4, #5]
 8022c92:	f7fe fd51 	bl	8021738 <SetAuthTimer>
 8022c96:	2301      	movs	r3, #1
 8022c98:	7033      	strb	r3, [r6, #0]
 8022c9a:	bd70      	pop	{r4, r5, r6, pc}
 8022c9c:	4b16      	ldr	r3, [pc, #88]	; (8022cf8 <CheckPassingSwing+0x14c>)
 8022c9e:	781b      	ldrb	r3, [r3, #0]
 8022ca0:	06da      	lsls	r2, r3, #27
 8022ca2:	d4fa      	bmi.n	8022c9a <CheckPassingSwing+0xee>
 8022ca4:	f013 0ff0 	tst.w	r3, #240	; 0xf0
 8022ca8:	d0f7      	beq.n	8022c9a <CheckPassingSwing+0xee>
 8022caa:	4816      	ldr	r0, [pc, #88]	; (8022d04 <CheckPassingSwing+0x158>)
 8022cac:	f003 f95c 	bl	8025f68 <printf_>
 8022cb0:	4b09      	ldr	r3, [pc, #36]	; (8022cd8 <CheckPassingSwing+0x12c>)
 8022cb2:	7f1a      	ldrb	r2, [r3, #28]
 8022cb4:	7959      	ldrb	r1, [r3, #5]
 8022cb6:	f002 0210 	and.w	r2, r2, #16
 8022cba:	430a      	orrs	r2, r1
 8022cbc:	d0ed      	beq.n	8022c9a <CheckPassingSwing+0xee>
 8022cbe:	2201      	movs	r2, #1
 8022cc0:	4811      	ldr	r0, [pc, #68]	; (8022d08 <CheckPassingSwing+0x15c>)
 8022cc2:	702a      	strb	r2, [r5, #0]
 8022cc4:	7a1a      	ldrb	r2, [r3, #8]
 8022cc6:	f042 0280 	orr.w	r2, r2, #128	; 0x80
 8022cca:	721a      	strb	r2, [r3, #8]
 8022ccc:	e7be      	b.n	8022c4c <CheckPassingSwing+0xa0>
 8022cce:	bf00      	nop
 8022cd0:	240003ea 	.word	0x240003ea
 8022cd4:	240003e8 	.word	0x240003e8
 8022cd8:	24000410 	.word	0x24000410
 8022cdc:	0802b7c1 	.word	0x0802b7c1
 8022ce0:	24000158 	.word	0x24000158
 8022ce4:	0802b7d7 	.word	0x0802b7d7
 8022ce8:	240003eb 	.word	0x240003eb
 8022cec:	240003e9 	.word	0x240003e9
 8022cf0:	0802b814 	.word	0x0802b814
 8022cf4:	0802b82a 	.word	0x0802b82a
 8022cf8:	240003fc 	.word	0x240003fc
 8022cfc:	0802b7ed 	.word	0x0802b7ed
 8022d00:	0802b804 	.word	0x0802b804
 8022d04:	0802b840 	.word	0x0802b840
 8022d08:	0802b857 	.word	0x0802b857

08022d0c <CheckCounterEnterTimer>:
 8022d0c:	b510      	push	{r4, lr}
 8022d0e:	4c1c      	ldr	r4, [pc, #112]	; (8022d80 <CheckCounterEnterTimer+0x74>)
 8022d10:	7823      	ldrb	r3, [r4, #0]
 8022d12:	b343      	cbz	r3, 8022d66 <CheckCounterEnterTimer+0x5a>
 8022d14:	4b1b      	ldr	r3, [pc, #108]	; (8022d84 <CheckCounterEnterTimer+0x78>)
 8022d16:	2164      	movs	r1, #100	; 0x64
 8022d18:	4620      	mov	r0, r4
 8022d1a:	681b      	ldr	r3, [r3, #0]
 8022d1c:	4359      	muls	r1, r3
 8022d1e:	f007 f893 	bl	8029e48 <IsTimeout>
 8022d22:	b300      	cbz	r0, 8022d66 <CheckCounterEnterTimer+0x5a>
 8022d24:	4620      	mov	r0, r4
 8022d26:	f007 f88b 	bl	8029e40 <ResetTimer>
 8022d2a:	4b17      	ldr	r3, [pc, #92]	; (8022d88 <CheckCounterEnterTimer+0x7c>)
 8022d2c:	7f1b      	ldrb	r3, [r3, #28]
 8022d2e:	071a      	lsls	r2, r3, #28
 8022d30:	d51a      	bpl.n	8022d68 <CheckCounterEnterTimer+0x5c>
 8022d32:	4b16      	ldr	r3, [pc, #88]	; (8022d8c <CheckCounterEnterTimer+0x80>)
 8022d34:	785b      	ldrb	r3, [r3, #1]
 8022d36:	f013 0ff3 	tst.w	r3, #243	; 0xf3
 8022d3a:	d00c      	beq.n	8022d56 <CheckCounterEnterTimer+0x4a>
 8022d3c:	4b14      	ldr	r3, [pc, #80]	; (8022d90 <CheckCounterEnterTimer+0x84>)
 8022d3e:	4815      	ldr	r0, [pc, #84]	; (8022d94 <CheckCounterEnterTimer+0x88>)
 8022d40:	7819      	ldrb	r1, [r3, #0]
 8022d42:	f003 f911 	bl	8025f68 <printf_>
 8022d46:	2001      	movs	r0, #1
 8022d48:	f7ff fab2 	bl	80222b0 <StopBarrierForSwing>
 8022d4c:	4620      	mov	r0, r4
 8022d4e:	e8bd 4010 	ldmia.w	sp!, {r4, lr}
 8022d52:	f007 b86d 	b.w	8029e30 <SetTimer>
 8022d56:	2000      	movs	r0, #0
 8022d58:	f7ff faaa 	bl	80222b0 <StopBarrierForSwing>
 8022d5c:	f7fd fcd2 	bl	8020704 <Brr_CloseBarrier>
 8022d60:	4b0d      	ldr	r3, [pc, #52]	; (8022d98 <CheckCounterEnterTimer+0x8c>)
 8022d62:	2200      	movs	r2, #0
 8022d64:	701a      	strb	r2, [r3, #0]
 8022d66:	bd10      	pop	{r4, pc}
 8022d68:	061b      	lsls	r3, r3, #24
 8022d6a:	d5fc      	bpl.n	8022d66 <CheckCounterEnterTimer+0x5a>
 8022d6c:	4b07      	ldr	r3, [pc, #28]	; (8022d8c <CheckCounterEnterTimer+0x80>)
 8022d6e:	781b      	ldrb	r3, [r3, #0]
 8022d70:	f013 0ff3 	tst.w	r3, #243	; 0xf3
 8022d74:	d0ef      	beq.n	8022d56 <CheckCounterEnterTimer+0x4a>
 8022d76:	4b06      	ldr	r3, [pc, #24]	; (8022d90 <CheckCounterEnterTimer+0x84>)
 8022d78:	4808      	ldr	r0, [pc, #32]	; (8022d9c <CheckCounterEnterTimer+0x90>)
 8022d7a:	7819      	ldrb	r1, [r3, #0]
 8022d7c:	e7e1      	b.n	8022d42 <CheckCounterEnterTimer+0x36>
 8022d7e:	bf00      	nop
 8022d80:	240001d0 	.word	0x240001d0
 8022d84:	24000014 	.word	0x24000014
 8022d88:	24000410 	.word	0x24000410
 8022d8c:	240003fc 	.word	0x240003fc
 8022d90:	24000450 	.word	0x24000450
 8022d94:	0802b866 	.word	0x0802b866
 8022d98:	240003e5 	.word	0x240003e5
 8022d9c:	0802b894 	.word	0x0802b894

08022da0 <CheckIllegalEnter>:
 8022da0:	4b32      	ldr	r3, [pc, #200]	; (8022e6c <CheckIllegalEnter+0xcc>)
 8022da2:	781b      	ldrb	r3, [r3, #0]
 8022da4:	b510      	push	{r4, lr}
 8022da6:	b333      	cbz	r3, 8022df6 <CheckIllegalEnter+0x56>
 8022da8:	4c31      	ldr	r4, [pc, #196]	; (8022e70 <CheckIllegalEnter+0xd0>)
 8022daa:	f994 3008 	ldrsb.w	r3, [r4, #8]
 8022dae:	2b00      	cmp	r3, #0
 8022db0:	db21      	blt.n	8022df6 <CheckIllegalEnter+0x56>
 8022db2:	7963      	ldrb	r3, [r4, #5]
 8022db4:	2b00      	cmp	r3, #0
 8022db6:	d049      	beq.n	8022e4c <CheckIllegalEnter+0xac>
 8022db8:	f994 301c 	ldrsb.w	r3, [r4, #28]
 8022dbc:	2b00      	cmp	r3, #0
 8022dbe:	db1a      	blt.n	8022df6 <CheckIllegalEnter+0x56>
 8022dc0:	4b2c      	ldr	r3, [pc, #176]	; (8022e74 <CheckIllegalEnter+0xd4>)
 8022dc2:	781b      	ldrb	r3, [r3, #0]
 8022dc4:	b9bb      	cbnz	r3, 8022df6 <CheckIllegalEnter+0x56>
 8022dc6:	4b2c      	ldr	r3, [pc, #176]	; (8022e78 <CheckIllegalEnter+0xd8>)
 8022dc8:	781b      	ldrb	r3, [r3, #0]
 8022dca:	0798      	lsls	r0, r3, #30
 8022dcc:	d513      	bpl.n	8022df6 <CheckIllegalEnter+0x56>
 8022dce:	4b2b      	ldr	r3, [pc, #172]	; (8022e7c <CheckIllegalEnter+0xdc>)
 8022dd0:	781a      	ldrb	r2, [r3, #0]
 8022dd2:	b982      	cbnz	r2, 8022df6 <CheckIllegalEnter+0x56>
 8022dd4:	2001      	movs	r0, #1
 8022dd6:	7018      	strb	r0, [r3, #0]
 8022dd8:	f7fe fab8 	bl	802134c <InhibitPass>
 8022ddc:	7a23      	ldrb	r3, [r4, #8]
 8022dde:	2202      	movs	r2, #2
 8022de0:	7961      	ldrb	r1, [r4, #5]
 8022de2:	f362 1306 	bfi	r3, r2, #4, #3
 8022de6:	4826      	ldr	r0, [pc, #152]	; (8022e80 <CheckIllegalEnter+0xe0>)
 8022de8:	7223      	strb	r3, [r4, #8]
 8022dea:	7f23      	ldrb	r3, [r4, #28]
 8022dec:	f043 0380 	orr.w	r3, r3, #128	; 0x80
 8022df0:	7723      	strb	r3, [r4, #28]
 8022df2:	f003 f8b9 	bl	8025f68 <printf_>
 8022df6:	4b23      	ldr	r3, [pc, #140]	; (8022e84 <CheckIllegalEnter+0xe4>)
 8022df8:	781b      	ldrb	r3, [r3, #0]
 8022dfa:	2b00      	cmp	r3, #0
 8022dfc:	d034      	beq.n	8022e68 <CheckIllegalEnter+0xc8>
 8022dfe:	4c1c      	ldr	r4, [pc, #112]	; (8022e70 <CheckIllegalEnter+0xd0>)
 8022e00:	7a23      	ldrb	r3, [r4, #8]
 8022e02:	0719      	lsls	r1, r3, #28
 8022e04:	d430      	bmi.n	8022e68 <CheckIllegalEnter+0xc8>
 8022e06:	7923      	ldrb	r3, [r4, #4]
 8022e08:	b33b      	cbz	r3, 8022e5a <CheckIllegalEnter+0xba>
 8022e0a:	7f23      	ldrb	r3, [r4, #28]
 8022e0c:	071a      	lsls	r2, r3, #28
 8022e0e:	d42b      	bmi.n	8022e68 <CheckIllegalEnter+0xc8>
 8022e10:	4b1d      	ldr	r3, [pc, #116]	; (8022e88 <CheckIllegalEnter+0xe8>)
 8022e12:	781b      	ldrb	r3, [r3, #0]
 8022e14:	bb43      	cbnz	r3, 8022e68 <CheckIllegalEnter+0xc8>
 8022e16:	4b18      	ldr	r3, [pc, #96]	; (8022e78 <CheckIllegalEnter+0xd8>)
 8022e18:	785b      	ldrb	r3, [r3, #1]
 8022e1a:	071b      	lsls	r3, r3, #28
 8022e1c:	d524      	bpl.n	8022e68 <CheckIllegalEnter+0xc8>
 8022e1e:	4b17      	ldr	r3, [pc, #92]	; (8022e7c <CheckIllegalEnter+0xdc>)
 8022e20:	781a      	ldrb	r2, [r3, #0]
 8022e22:	bb0a      	cbnz	r2, 8022e68 <CheckIllegalEnter+0xc8>
 8022e24:	2201      	movs	r2, #1
 8022e26:	2002      	movs	r0, #2
 8022e28:	701a      	strb	r2, [r3, #0]
 8022e2a:	f7fe fa8f 	bl	802134c <InhibitPass>
 8022e2e:	7a23      	ldrb	r3, [r4, #8]
 8022e30:	2202      	movs	r2, #2
 8022e32:	7921      	ldrb	r1, [r4, #4]
 8022e34:	f362 0302 	bfi	r3, r2, #0, #3
 8022e38:	4814      	ldr	r0, [pc, #80]	; (8022e8c <CheckIllegalEnter+0xec>)
 8022e3a:	7223      	strb	r3, [r4, #8]
 8022e3c:	7f23      	ldrb	r3, [r4, #28]
 8022e3e:	f043 0308 	orr.w	r3, r3, #8
 8022e42:	7723      	strb	r3, [r4, #28]
 8022e44:	e8bd 4010 	ldmia.w	sp!, {r4, lr}
 8022e48:	f003 b88e 	b.w	8025f68 <printf_>
 8022e4c:	7923      	ldrb	r3, [r4, #4]
 8022e4e:	2b00      	cmp	r3, #0
 8022e50:	d1d1      	bne.n	8022df6 <CheckIllegalEnter+0x56>
 8022e52:	2001      	movs	r0, #1
 8022e54:	f7fe fc0a 	bl	802166c <CheckIllegalEnterTimer>
 8022e58:	e7cd      	b.n	8022df6 <CheckIllegalEnter+0x56>
 8022e5a:	7963      	ldrb	r3, [r4, #5]
 8022e5c:	b923      	cbnz	r3, 8022e68 <CheckIllegalEnter+0xc8>
 8022e5e:	2002      	movs	r0, #2
 8022e60:	e8bd 4010 	ldmia.w	sp!, {r4, lr}
 8022e64:	f7fe bc02 	b.w	802166c <CheckIllegalEnterTimer>
 8022e68:	bd10      	pop	{r4, pc}
 8022e6a:	bf00      	nop
 8022e6c:	24000453 	.word	0x24000453
 8022e70:	24000410 	.word	0x24000410
 8022e74:	240003eb 	.word	0x240003eb
 8022e78:	240003fc 	.word	0x240003fc
 8022e7c:	240003e5 	.word	0x240003e5
 8022e80:	0802b8c2 	.word	0x0802b8c2
 8022e84:	24000454 	.word	0x24000454
 8022e88:	240003ea 	.word	0x240003ea
 8022e8c:	0802b8eb 	.word	0x0802b8eb

08022e90 <CheckTGTimerForSwing>:
 8022e90:	b510      	push	{r4, lr}
 8022e92:	4c21      	ldr	r4, [pc, #132]	; (8022f18 <CheckTGTimerForSwing+0x88>)
 8022e94:	7823      	ldrb	r3, [r4, #0]
 8022e96:	2b00      	cmp	r3, #0
 8022e98:	d03d      	beq.n	8022f16 <CheckTGTimerForSwing+0x86>
 8022e9a:	4b20      	ldr	r3, [pc, #128]	; (8022f1c <CheckTGTimerForSwing+0x8c>)
 8022e9c:	2164      	movs	r1, #100	; 0x64
 8022e9e:	4620      	mov	r0, r4
 8022ea0:	681b      	ldr	r3, [r3, #0]
 8022ea2:	4359      	muls	r1, r3
 8022ea4:	f006 ffd0 	bl	8029e48 <IsTimeout>
 8022ea8:	2800      	cmp	r0, #0
 8022eaa:	d034      	beq.n	8022f16 <CheckTGTimerForSwing+0x86>
 8022eac:	4620      	mov	r0, r4
 8022eae:	4c1c      	ldr	r4, [pc, #112]	; (8022f20 <CheckTGTimerForSwing+0x90>)
 8022eb0:	f006 ffc6 	bl	8029e40 <ResetTimer>
 8022eb4:	7923      	ldrb	r3, [r4, #4]
 8022eb6:	b90b      	cbnz	r3, 8022ebc <CheckTGTimerForSwing+0x2c>
 8022eb8:	7963      	ldrb	r3, [r4, #5]
 8022eba:	b363      	cbz	r3, 8022f16 <CheckTGTimerForSwing+0x86>
 8022ebc:	4b19      	ldr	r3, [pc, #100]	; (8022f24 <CheckTGTimerForSwing+0x94>)
 8022ebe:	881b      	ldrh	r3, [r3, #0]
 8022ec0:	f423 6370 	bic.w	r3, r3, #3840	; 0xf00
 8022ec4:	f023 030f 	bic.w	r3, r3, #15
 8022ec8:	b29b      	uxth	r3, r3
 8022eca:	b9e3      	cbnz	r3, 8022f06 <CheckTGTimerForSwing+0x76>
 8022ecc:	7921      	ldrb	r1, [r4, #4]
 8022ece:	4816      	ldr	r0, [pc, #88]	; (8022f28 <CheckTGTimerForSwing+0x98>)
 8022ed0:	7962      	ldrb	r2, [r4, #5]
 8022ed2:	f003 f849 	bl	8025f68 <printf_>
 8022ed6:	7923      	ldrb	r3, [r4, #4]
 8022ed8:	b16b      	cbz	r3, 8022ef6 <CheckTGTimerForSwing+0x66>
 8022eda:	7923      	ldrb	r3, [r4, #4]
 8022edc:	3b01      	subs	r3, #1
 8022ede:	b2db      	uxtb	r3, r3
 8022ee0:	7123      	strb	r3, [r4, #4]
 8022ee2:	f7ff f9c3 	bl	802226c <CheckZeroAuthCount>
 8022ee6:	b1b0      	cbz	r0, 8022f16 <CheckTGTimerForSwing+0x86>
 8022ee8:	f7ff fb3c 	bl	8022564 <CloseBarrierForSwing>
 8022eec:	480f      	ldr	r0, [pc, #60]	; (8022f2c <CheckTGTimerForSwing+0x9c>)
 8022eee:	e8bd 4010 	ldmia.w	sp!, {r4, lr}
 8022ef2:	f003 b839 	b.w	8025f68 <printf_>
 8022ef6:	7963      	ldrb	r3, [r4, #5]
 8022ef8:	2b00      	cmp	r3, #0
 8022efa:	d0f2      	beq.n	8022ee2 <CheckTGTimerForSwing+0x52>
 8022efc:	7963      	ldrb	r3, [r4, #5]
 8022efe:	3b01      	subs	r3, #1
 8022f00:	b2db      	uxtb	r3, r3
 8022f02:	7163      	strb	r3, [r4, #5]
 8022f04:	e7ed      	b.n	8022ee2 <CheckTGTimerForSwing+0x52>
 8022f06:	480a      	ldr	r0, [pc, #40]	; (8022f30 <CheckTGTimerForSwing+0xa0>)
 8022f08:	f003 f82e 	bl	8025f68 <printf_>
 8022f0c:	4802      	ldr	r0, [pc, #8]	; (8022f18 <CheckTGTimerForSwing+0x88>)
 8022f0e:	e8bd 4010 	ldmia.w	sp!, {r4, lr}
 8022f12:	f006 bf8d 	b.w	8029e30 <SetTimer>
 8022f16:	bd10      	pop	{r4, pc}
 8022f18:	2400023c 	.word	0x2400023c
 8022f1c:	24000020 	.word	0x24000020
 8022f20:	24000410 	.word	0x24000410
 8022f24:	240003fc 	.word	0x240003fc
 8022f28:	0802b914 	.word	0x0802b914
 8022f2c:	0802b942 	.word	0x0802b942
 8022f30:	0802b96b 	.word	0x0802b96b

08022f34 <CheckSafetyTimerForSwing>:
 8022f34:	b5f7      	push	{r0, r1, r2, r4, r5, r6, r7, lr}
 8022f36:	4895      	ldr	r0, [pc, #596]	; (802318c <CheckSafetyTimerForSwing+0x258>)
 8022f38:	7804      	ldrb	r4, [r0, #0]
 8022f3a:	b1f4      	cbz	r4, 8022f7a <CheckSafetyTimerForSwing+0x46>
 8022f3c:	4b94      	ldr	r3, [pc, #592]	; (8023190 <CheckSafetyTimerForSwing+0x25c>)
 8022f3e:	2164      	movs	r1, #100	; 0x64
 8022f40:	681b      	ldr	r3, [r3, #0]
 8022f42:	4359      	muls	r1, r3
 8022f44:	f006 ff80 	bl	8029e48 <IsTimeout>
 8022f48:	2800      	cmp	r0, #0
 8022f4a:	d03b      	beq.n	8022fc4 <CheckSafetyTimerForSwing+0x90>
 8022f4c:	4891      	ldr	r0, [pc, #580]	; (8023194 <CheckSafetyTimerForSwing+0x260>)
 8022f4e:	f003 f80b 	bl	8025f68 <printf_>
 8022f52:	4b91      	ldr	r3, [pc, #580]	; (8023198 <CheckSafetyTimerForSwing+0x264>)
 8022f54:	8818      	ldrh	r0, [r3, #0]
 8022f56:	f420 6070 	bic.w	r0, r0, #3840	; 0xf00
 8022f5a:	f020 000f 	bic.w	r0, r0, #15
 8022f5e:	b280      	uxth	r0, r0
 8022f60:	b908      	cbnz	r0, 8022f66 <CheckSafetyTimerForSwing+0x32>
 8022f62:	f7ff f9a5 	bl	80222b0 <StopBarrierForSwing>
 8022f66:	4889      	ldr	r0, [pc, #548]	; (802318c <CheckSafetyTimerForSwing+0x258>)
 8022f68:	f006 ff6a 	bl	8029e40 <ResetTimer>
 8022f6c:	488b      	ldr	r0, [pc, #556]	; (802319c <CheckSafetyTimerForSwing+0x268>)
 8022f6e:	f006 ff5f 	bl	8029e30 <SetTimer>
 8022f72:	4b8b      	ldr	r3, [pc, #556]	; (80231a0 <CheckSafetyTimerForSwing+0x26c>)
 8022f74:	2200      	movs	r2, #0
 8022f76:	701a      	strb	r2, [r3, #0]
 8022f78:	e024      	b.n	8022fc4 <CheckSafetyTimerForSwing+0x90>
 8022f7a:	4d88      	ldr	r5, [pc, #544]	; (802319c <CheckSafetyTimerForSwing+0x268>)
 8022f7c:	782b      	ldrb	r3, [r5, #0]
 8022f7e:	b30b      	cbz	r3, 8022fc4 <CheckSafetyTimerForSwing+0x90>
 8022f80:	4b88      	ldr	r3, [pc, #544]	; (80231a4 <CheckSafetyTimerForSwing+0x270>)
 8022f82:	2164      	movs	r1, #100	; 0x64
 8022f84:	4628      	mov	r0, r5
 8022f86:	681b      	ldr	r3, [r3, #0]
 8022f88:	4359      	muls	r1, r3
 8022f8a:	f006 ff5d 	bl	8029e48 <IsTimeout>
 8022f8e:	b1d8      	cbz	r0, 8022fc8 <CheckSafetyTimerForSwing+0x94>
 8022f90:	4e85      	ldr	r6, [pc, #532]	; (80231a8 <CheckSafetyTimerForSwing+0x274>)
 8022f92:	4886      	ldr	r0, [pc, #536]	; (80231ac <CheckSafetyTimerForSwing+0x278>)
 8022f94:	7831      	ldrb	r1, [r6, #0]
 8022f96:	f002 ffe7 	bl	8025f68 <printf_>
 8022f9a:	4628      	mov	r0, r5
 8022f9c:	f006 ff50 	bl	8029e40 <ResetTimer>
 8022fa0:	4a7f      	ldr	r2, [pc, #508]	; (80231a0 <CheckSafetyTimerForSwing+0x26c>)
 8022fa2:	7813      	ldrb	r3, [r2, #0]
 8022fa4:	b92b      	cbnz	r3, 8022fb2 <CheckSafetyTimerForSwing+0x7e>
 8022fa6:	4628      	mov	r0, r5
 8022fa8:	b003      	add	sp, #12
 8022faa:	e8bd 40f0 	ldmia.w	sp!, {r4, r5, r6, r7, lr}
 8022fae:	f006 bf3f 	b.w	8029e30 <SetTimer>
 8022fb2:	497f      	ldr	r1, [pc, #508]	; (80231b0 <CheckSafetyTimerForSwing+0x27c>)
 8022fb4:	7034      	strb	r4, [r6, #0]
 8022fb6:	7a0b      	ldrb	r3, [r1, #8]
 8022fb8:	7014      	strb	r4, [r2, #0]
 8022fba:	f003 0377 	and.w	r3, r3, #119	; 0x77
 8022fbe:	720b      	strb	r3, [r1, #8]
 8022fc0:	4b7c      	ldr	r3, [pc, #496]	; (80231b4 <CheckSafetyTimerForSwing+0x280>)
 8022fc2:	701c      	strb	r4, [r3, #0]
 8022fc4:	b003      	add	sp, #12
 8022fc6:	bdf0      	pop	{r4, r5, r6, r7, pc}
 8022fc8:	4b7b      	ldr	r3, [pc, #492]	; (80231b8 <CheckSafetyTimerForSwing+0x284>)
 8022fca:	781b      	ldrb	r3, [r3, #0]
 8022fcc:	b11b      	cbz	r3, 8022fd6 <CheckSafetyTimerForSwing+0xa2>
 8022fce:	4b7b      	ldr	r3, [pc, #492]	; (80231bc <CheckSafetyTimerForSwing+0x288>)
 8022fd0:	781b      	ldrb	r3, [r3, #0]
 8022fd2:	2b00      	cmp	r3, #0
 8022fd4:	d0f6      	beq.n	8022fc4 <CheckSafetyTimerForSwing+0x90>
 8022fd6:	4b74      	ldr	r3, [pc, #464]	; (80231a8 <CheckSafetyTimerForSwing+0x274>)
 8022fd8:	781c      	ldrb	r4, [r3, #0]
 8022fda:	4b6f      	ldr	r3, [pc, #444]	; (8023198 <CheckSafetyTimerForSwing+0x264>)
 8022fdc:	2c01      	cmp	r4, #1
 8022fde:	d15e      	bne.n	802309e <CheckSafetyTimerForSwing+0x16a>
 8022fe0:	4a77      	ldr	r2, [pc, #476]	; (80231c0 <CheckSafetyTimerForSwing+0x28c>)
 8022fe2:	4e73      	ldr	r6, [pc, #460]	; (80231b0 <CheckSafetyTimerForSwing+0x27c>)
 8022fe4:	7955      	ldrb	r5, [r2, #5]
 8022fe6:	74f4      	strb	r4, [r6, #19]
 8022fe8:	2d01      	cmp	r5, #1
 8022fea:	d12e      	bne.n	802304a <CheckSafetyTimerForSwing+0x116>
 8022fec:	881a      	ldrh	r2, [r3, #0]
 8022fee:	f422 6277 	bic.w	r2, r2, #3952	; 0xf70
 8022ff2:	f022 0207 	bic.w	r2, r2, #7
 8022ff6:	b292      	uxth	r2, r2
 8022ff8:	b1a2      	cbz	r2, 8023024 <CheckSafetyTimerForSwing+0xf0>
 8022ffa:	781a      	ldrb	r2, [r3, #0]
 8022ffc:	7859      	ldrb	r1, [r3, #1]
 8022ffe:	4871      	ldr	r0, [pc, #452]	; (80231c4 <CheckSafetyTimerForSwing+0x290>)
 8023000:	09d3      	lsrs	r3, r2, #7
 8023002:	0909      	lsrs	r1, r1, #4
 8023004:	f3c2 02c0 	ubfx	r2, r2, #3, #1
 8023008:	f002 ffae 	bl	8025f68 <printf_>
 802300c:	4628      	mov	r0, r5
 802300e:	f7ff f94f 	bl	80222b0 <StopBarrierForSwing>
 8023012:	4862      	ldr	r0, [pc, #392]	; (802319c <CheckSafetyTimerForSwing+0x268>)
 8023014:	f006 ff14 	bl	8029e40 <ResetTimer>
 8023018:	485c      	ldr	r0, [pc, #368]	; (802318c <CheckSafetyTimerForSwing+0x258>)
 802301a:	f006 ff09 	bl	8029e30 <SetTimer>
 802301e:	4b65      	ldr	r3, [pc, #404]	; (80231b4 <CheckSafetyTimerForSwing+0x280>)
 8023020:	701d      	strb	r5, [r3, #0]
 8023022:	e7cf      	b.n	8022fc4 <CheckSafetyTimerForSwing+0x90>
 8023024:	4c5e      	ldr	r4, [pc, #376]	; (80231a0 <CheckSafetyTimerForSwing+0x26c>)
 8023026:	7823      	ldrb	r3, [r4, #0]
 8023028:	2b00      	cmp	r3, #0
 802302a:	d1cb      	bne.n	8022fc4 <CheckSafetyTimerForSwing+0x90>
 802302c:	4b66      	ldr	r3, [pc, #408]	; (80231c8 <CheckSafetyTimerForSwing+0x294>)
 802302e:	7819      	ldrb	r1, [r3, #0]
 8023030:	f011 0704 	ands.w	r7, r1, #4
 8023034:	d1c6      	bne.n	8022fc4 <CheckSafetyTimerForSwing+0x90>
 8023036:	4865      	ldr	r0, [pc, #404]	; (80231cc <CheckSafetyTimerForSwing+0x298>)
 8023038:	f002 ff96 	bl	8025f68 <printf_>
 802303c:	74f7      	strb	r7, [r6, #19]
 802303e:	7025      	strb	r5, [r4, #0]
 8023040:	b003      	add	sp, #12
 8023042:	e8bd 40f0 	ldmia.w	sp!, {r4, r5, r6, r7, lr}
 8023046:	f7ff ba8d 	b.w	8022564 <CloseBarrierForSwing>
 802304a:	7859      	ldrb	r1, [r3, #1]
 802304c:	f011 0fe4 	tst.w	r1, #228	; 0xe4
 8023050:	d016      	beq.n	8023080 <CheckSafetyTimerForSwing+0x14c>
 8023052:	09cb      	lsrs	r3, r1, #7
 8023054:	f3c1 1240 	ubfx	r2, r1, #5, #1
 8023058:	485d      	ldr	r0, [pc, #372]	; (80231d0 <CheckSafetyTimerForSwing+0x29c>)
 802305a:	9300      	str	r3, [sp, #0]
 802305c:	f3c1 1380 	ubfx	r3, r1, #6, #1
 8023060:	f3c1 0180 	ubfx	r1, r1, #2, #1
 8023064:	f002 ff80 	bl	8025f68 <printf_>
 8023068:	4620      	mov	r0, r4
 802306a:	f7ff f921 	bl	80222b0 <StopBarrierForSwing>
 802306e:	484b      	ldr	r0, [pc, #300]	; (802319c <CheckSafetyTimerForSwing+0x268>)
 8023070:	f006 fee6 	bl	8029e40 <ResetTimer>
 8023074:	4845      	ldr	r0, [pc, #276]	; (802318c <CheckSafetyTimerForSwing+0x258>)
 8023076:	f006 fedb 	bl	8029e30 <SetTimer>
 802307a:	4b4e      	ldr	r3, [pc, #312]	; (80231b4 <CheckSafetyTimerForSwing+0x280>)
 802307c:	701c      	strb	r4, [r3, #0]
 802307e:	e7a1      	b.n	8022fc4 <CheckSafetyTimerForSwing+0x90>
 8023080:	4d47      	ldr	r5, [pc, #284]	; (80231a0 <CheckSafetyTimerForSwing+0x26c>)
 8023082:	782b      	ldrb	r3, [r5, #0]
 8023084:	2b00      	cmp	r3, #0
 8023086:	d19d      	bne.n	8022fc4 <CheckSafetyTimerForSwing+0x90>
 8023088:	4b4f      	ldr	r3, [pc, #316]	; (80231c8 <CheckSafetyTimerForSwing+0x294>)
 802308a:	7819      	ldrb	r1, [r3, #0]
 802308c:	f011 0704 	ands.w	r7, r1, #4
 8023090:	d198      	bne.n	8022fc4 <CheckSafetyTimerForSwing+0x90>
 8023092:	484e      	ldr	r0, [pc, #312]	; (80231cc <CheckSafetyTimerForSwing+0x298>)
 8023094:	f002 ff68 	bl	8025f68 <printf_>
 8023098:	74f7      	strb	r7, [r6, #19]
 802309a:	702c      	strb	r4, [r5, #0]
 802309c:	e7d0      	b.n	8023040 <CheckSafetyTimerForSwing+0x10c>
 802309e:	2c02      	cmp	r4, #2
 80230a0:	d14c      	bne.n	802313c <CheckSafetyTimerForSwing+0x208>
 80230a2:	4a47      	ldr	r2, [pc, #284]	; (80231c0 <CheckSafetyTimerForSwing+0x28c>)
 80230a4:	2401      	movs	r4, #1
 80230a6:	4e42      	ldr	r6, [pc, #264]	; (80231b0 <CheckSafetyTimerForSwing+0x27c>)
 80230a8:	7955      	ldrb	r5, [r2, #5]
 80230aa:	74f4      	strb	r4, [r6, #19]
 80230ac:	42a5      	cmp	r5, r4
 80230ae:	d11b      	bne.n	80230e8 <CheckSafetyTimerForSwing+0x1b4>
 80230b0:	881a      	ldrh	r2, [r3, #0]
 80230b2:	f422 42ee 	bic.w	r2, r2, #30464	; 0x7700
 80230b6:	f022 020f 	bic.w	r2, r2, #15
 80230ba:	b292      	uxth	r2, r2
 80230bc:	b13a      	cbz	r2, 80230ce <CheckSafetyTimerForSwing+0x19a>
 80230be:	785a      	ldrb	r2, [r3, #1]
 80230c0:	7819      	ldrb	r1, [r3, #0]
 80230c2:	4844      	ldr	r0, [pc, #272]	; (80231d4 <CheckSafetyTimerForSwing+0x2a0>)
 80230c4:	09d3      	lsrs	r3, r2, #7
 80230c6:	0909      	lsrs	r1, r1, #4
 80230c8:	f3c2 02c0 	ubfx	r2, r2, #3, #1
 80230cc:	e79c      	b.n	8023008 <CheckSafetyTimerForSwing+0xd4>
 80230ce:	4c34      	ldr	r4, [pc, #208]	; (80231a0 <CheckSafetyTimerForSwing+0x26c>)
 80230d0:	7823      	ldrb	r3, [r4, #0]
 80230d2:	2b00      	cmp	r3, #0
 80230d4:	f47f af76 	bne.w	8022fc4 <CheckSafetyTimerForSwing+0x90>
 80230d8:	4b3b      	ldr	r3, [pc, #236]	; (80231c8 <CheckSafetyTimerForSwing+0x294>)
 80230da:	7819      	ldrb	r1, [r3, #0]
 80230dc:	f011 0702 	ands.w	r7, r1, #2
 80230e0:	f47f af70 	bne.w	8022fc4 <CheckSafetyTimerForSwing+0x90>
 80230e4:	483c      	ldr	r0, [pc, #240]	; (80231d8 <CheckSafetyTimerForSwing+0x2a4>)
 80230e6:	e7a7      	b.n	8023038 <CheckSafetyTimerForSwing+0x104>
 80230e8:	7819      	ldrb	r1, [r3, #0]
 80230ea:	4d2d      	ldr	r5, [pc, #180]	; (80231a0 <CheckSafetyTimerForSwing+0x26c>)
 80230ec:	f011 0fe4 	tst.w	r1, #228	; 0xe4
 80230f0:	d018      	beq.n	8023124 <CheckSafetyTimerForSwing+0x1f0>
 80230f2:	09cb      	lsrs	r3, r1, #7
 80230f4:	f3c1 1240 	ubfx	r2, r1, #5, #1
 80230f8:	4838      	ldr	r0, [pc, #224]	; (80231dc <CheckSafetyTimerForSwing+0x2a8>)
 80230fa:	9300      	str	r3, [sp, #0]
 80230fc:	f3c1 1380 	ubfx	r3, r1, #6, #1
 8023100:	f3c1 0180 	ubfx	r1, r1, #2, #1
 8023104:	f002 ff30 	bl	8025f68 <printf_>
 8023108:	4620      	mov	r0, r4
 802310a:	f7ff f8d1 	bl	80222b0 <StopBarrierForSwing>
 802310e:	4823      	ldr	r0, [pc, #140]	; (802319c <CheckSafetyTimerForSwing+0x268>)
 8023110:	f006 fe96 	bl	8029e40 <ResetTimer>
 8023114:	481d      	ldr	r0, [pc, #116]	; (802318c <CheckSafetyTimerForSwing+0x258>)
 8023116:	f006 fe8b 	bl	8029e30 <SetTimer>
 802311a:	4b26      	ldr	r3, [pc, #152]	; (80231b4 <CheckSafetyTimerForSwing+0x280>)
 802311c:	701c      	strb	r4, [r3, #0]
 802311e:	2300      	movs	r3, #0
 8023120:	702b      	strb	r3, [r5, #0]
 8023122:	e74f      	b.n	8022fc4 <CheckSafetyTimerForSwing+0x90>
 8023124:	782b      	ldrb	r3, [r5, #0]
 8023126:	2b00      	cmp	r3, #0
 8023128:	f47f af4c 	bne.w	8022fc4 <CheckSafetyTimerForSwing+0x90>
 802312c:	4b26      	ldr	r3, [pc, #152]	; (80231c8 <CheckSafetyTimerForSwing+0x294>)
 802312e:	7819      	ldrb	r1, [r3, #0]
 8023130:	f011 0702 	ands.w	r7, r1, #2
 8023134:	f47f af46 	bne.w	8022fc4 <CheckSafetyTimerForSwing+0x90>
 8023138:	4827      	ldr	r0, [pc, #156]	; (80231d8 <CheckSafetyTimerForSwing+0x2a4>)
 802313a:	e7ab      	b.n	8023094 <CheckSafetyTimerForSwing+0x160>
 802313c:	881b      	ldrh	r3, [r3, #0]
 802313e:	f423 6350 	bic.w	r3, r3, #3328	; 0xd00
 8023142:	f023 030d 	bic.w	r3, r3, #13
 8023146:	b29b      	uxth	r3, r3
 8023148:	b18b      	cbz	r3, 802316e <CheckSafetyTimerForSwing+0x23a>
 802314a:	2401      	movs	r4, #1
 802314c:	4824      	ldr	r0, [pc, #144]	; (80231e0 <CheckSafetyTimerForSwing+0x2ac>)
 802314e:	f002 ff0b 	bl	8025f68 <printf_>
 8023152:	4b17      	ldr	r3, [pc, #92]	; (80231b0 <CheckSafetyTimerForSwing+0x27c>)
 8023154:	4620      	mov	r0, r4
 8023156:	74dc      	strb	r4, [r3, #19]
 8023158:	f7ff f8aa 	bl	80222b0 <StopBarrierForSwing>
 802315c:	480f      	ldr	r0, [pc, #60]	; (802319c <CheckSafetyTimerForSwing+0x268>)
 802315e:	f006 fe6f 	bl	8029e40 <ResetTimer>
 8023162:	480a      	ldr	r0, [pc, #40]	; (802318c <CheckSafetyTimerForSwing+0x258>)
 8023164:	f006 fe64 	bl	8029e30 <SetTimer>
 8023168:	4b12      	ldr	r3, [pc, #72]	; (80231b4 <CheckSafetyTimerForSwing+0x280>)
 802316a:	701c      	strb	r4, [r3, #0]
 802316c:	e701      	b.n	8022f72 <CheckSafetyTimerForSwing+0x3e>
 802316e:	4b16      	ldr	r3, [pc, #88]	; (80231c8 <CheckSafetyTimerForSwing+0x294>)
 8023170:	781b      	ldrb	r3, [r3, #0]
 8023172:	07db      	lsls	r3, r3, #31
 8023174:	f53f af26 	bmi.w	8022fc4 <CheckSafetyTimerForSwing+0x90>
 8023178:	4b09      	ldr	r3, [pc, #36]	; (80231a0 <CheckSafetyTimerForSwing+0x26c>)
 802317a:	781a      	ldrb	r2, [r3, #0]
 802317c:	2a00      	cmp	r2, #0
 802317e:	f47f af21 	bne.w	8022fc4 <CheckSafetyTimerForSwing+0x90>
 8023182:	490b      	ldr	r1, [pc, #44]	; (80231b0 <CheckSafetyTimerForSwing+0x27c>)
 8023184:	74ca      	strb	r2, [r1, #19]
 8023186:	2201      	movs	r2, #1
 8023188:	701a      	strb	r2, [r3, #0]
 802318a:	e759      	b.n	8023040 <CheckSafetyTimerForSwing+0x10c>
 802318c:	2400017c 	.word	0x2400017c
 8023190:	2400000c 	.word	0x2400000c
 8023194:	0802b99e 	.word	0x0802b99e
 8023198:	240003fc 	.word	0x240003fc
 802319c:	24000218 	.word	0x24000218
 80231a0:	240003ee 	.word	0x240003ee
 80231a4:	24000148 	.word	0x24000148
 80231a8:	24000123 	.word	0x24000123
 80231ac:	0802b9d0 	.word	0x0802b9d0
 80231b0:	24000410 	.word	0x24000410
 80231b4:	240003ec 	.word	0x240003ec
 80231b8:	24000124 	.word	0x24000124
 80231bc:	24000452 	.word	0x24000452
 80231c0:	24000408 	.word	0x24000408
 80231c4:	0802ba06 	.word	0x0802ba06
 80231c8:	24000450 	.word	0x24000450
 80231cc:	0802ba31 	.word	0x0802ba31
 80231d0:	0802ba54 	.word	0x0802ba54
 80231d4:	0802ba84 	.word	0x0802ba84
 80231d8:	0802baaf 	.word	0x0802baaf
 80231dc:	0802bad2 	.word	0x0802bad2
 80231e0:	0802bb02 	.word	0x0802bb02

080231e4 <CheckResetTimer>:
 80231e4:	e92d 43f8 	stmdb	sp!, {r3, r4, r5, r6, r7, r8, r9, lr}
 80231e8:	4d3a      	ldr	r5, [pc, #232]	; (80232d4 <CheckResetTimer+0xf0>)
 80231ea:	782a      	ldrb	r2, [r5, #0]
 80231ec:	2a00      	cmp	r2, #0
 80231ee:	d057      	beq.n	80232a0 <CheckResetTimer+0xbc>
 80231f0:	f44f 717a 	mov.w	r1, #1000	; 0x3e8
 80231f4:	4838      	ldr	r0, [pc, #224]	; (80232d8 <CheckResetTimer+0xf4>)
 80231f6:	f003 fa2d 	bl	8026654 <mstimeout>
 80231fa:	2800      	cmp	r0, #0
 80231fc:	d04e      	beq.n	802329c <CheckResetTimer+0xb8>
 80231fe:	f8df 8104 	ldr.w	r8, [pc, #260]	; 8023304 <CheckResetTimer+0x120>
 8023202:	2164      	movs	r1, #100	; 0x64
 8023204:	4628      	mov	r0, r5
 8023206:	f8d8 3000 	ldr.w	r3, [r8]
 802320a:	4359      	muls	r1, r3
 802320c:	f006 fe1c 	bl	8029e48 <IsTimeout>
 8023210:	2800      	cmp	r0, #0
 8023212:	d043      	beq.n	802329c <CheckResetTimer+0xb8>
 8023214:	f8df 90f0 	ldr.w	r9, [pc, #240]	; 8023308 <CheckResetTimer+0x124>
 8023218:	4628      	mov	r0, r5
 802321a:	f006 fe11 	bl	8029e40 <ResetTimer>
 802321e:	f899 6000 	ldrb.w	r6, [r9]
 8023222:	2e01      	cmp	r6, #1
 8023224:	d131      	bne.n	802328a <CheckResetTimer+0xa6>
 8023226:	4b2d      	ldr	r3, [pc, #180]	; (80232dc <CheckResetTimer+0xf8>)
 8023228:	4f2d      	ldr	r7, [pc, #180]	; (80232e0 <CheckResetTimer+0xfc>)
 802322a:	881c      	ldrh	r4, [r3, #0]
 802322c:	f024 040c 	bic.w	r4, r4, #12
 8023230:	b2a4      	uxth	r4, r4
 8023232:	b9dc      	cbnz	r4, 802326c <CheckResetTimer+0x88>
 8023234:	482b      	ldr	r0, [pc, #172]	; (80232e4 <CheckResetTimer+0x100>)
 8023236:	f002 fe97 	bl	8025f68 <printf_>
 802323a:	4b2b      	ldr	r3, [pc, #172]	; (80232e8 <CheckResetTimer+0x104>)
 802323c:	4620      	mov	r0, r4
 802323e:	701e      	strb	r6, [r3, #0]
 8023240:	f7fd fa7a 	bl	8020738 <Brr_StopBarrier>
 8023244:	4620      	mov	r0, r4
 8023246:	703c      	strb	r4, [r7, #0]
 8023248:	f7fd fa1c 	bl	8020684 <Brr_SetEmergency>
 802324c:	4620      	mov	r0, r4
 802324e:	f889 4000 	strb.w	r4, [r9]
 8023252:	f7fd fe61 	bl	8020f18 <ControlIndicatorBlink>
 8023256:	4b25      	ldr	r3, [pc, #148]	; (80232ec <CheckResetTimer+0x108>)
 8023258:	2203      	movs	r2, #3
 802325a:	4628      	mov	r0, r5
 802325c:	701a      	strb	r2, [r3, #0]
 802325e:	235a      	movs	r3, #90	; 0x5a
 8023260:	f8c8 3000 	str.w	r3, [r8]
 8023264:	e8bd 43f8 	ldmia.w	sp!, {r3, r4, r5, r6, r7, r8, r9, lr}
 8023268:	f006 bde2 	b.w	8029e30 <SetTimer>
 802326c:	4820      	ldr	r0, [pc, #128]	; (80232f0 <CheckResetTimer+0x10c>)
 802326e:	f002 fe7b 	bl	8025f68 <printf_>
 8023272:	4a20      	ldr	r2, [pc, #128]	; (80232f4 <CheckResetTimer+0x110>)
 8023274:	703e      	strb	r6, [r7, #0]
 8023276:	7b13      	ldrb	r3, [r2, #12]
 8023278:	f023 030f 	bic.w	r3, r3, #15
 802327c:	f043 030a 	orr.w	r3, r3, #10
 8023280:	7313      	strb	r3, [r2, #12]
 8023282:	e8bd 43f8 	ldmia.w	sp!, {r3, r4, r5, r6, r7, r8, r9, lr}
 8023286:	f7ff b835 	b.w	80222f4 <InitPassageModeForSwing>
 802328a:	481b      	ldr	r0, [pc, #108]	; (80232f8 <CheckResetTimer+0x114>)
 802328c:	f002 fe6c 	bl	8025f68 <printf_>
 8023290:	4b1a      	ldr	r3, [pc, #104]	; (80232fc <CheckResetTimer+0x118>)
 8023292:	2201      	movs	r2, #1
 8023294:	701a      	strb	r2, [r3, #0]
 8023296:	2200      	movs	r2, #0
 8023298:	4b19      	ldr	r3, [pc, #100]	; (8023300 <CheckResetTimer+0x11c>)
 802329a:	601a      	str	r2, [r3, #0]
 802329c:	e8bd 83f8 	ldmia.w	sp!, {r3, r4, r5, r6, r7, r8, r9, pc}
 80232a0:	4916      	ldr	r1, [pc, #88]	; (80232fc <CheckResetTimer+0x118>)
 80232a2:	780b      	ldrb	r3, [r1, #0]
 80232a4:	2b00      	cmp	r3, #0
 80232a6:	d0f9      	beq.n	802329c <CheckResetTimer+0xb8>
 80232a8:	4c15      	ldr	r4, [pc, #84]	; (8023300 <CheckResetTimer+0x11c>)
 80232aa:	6823      	ldr	r3, [r4, #0]
 80232ac:	f5b3 7f96 	cmp.w	r3, #300	; 0x12c
 80232b0:	dc0b      	bgt.n	80232ca <CheckResetTimer+0xe6>
 80232b2:	2214      	movs	r2, #20
 80232b4:	fb93 f1f2 	sdiv	r1, r3, r2
 80232b8:	fb02 3311 	mls	r3, r2, r1, r3
 80232bc:	b90b      	cbnz	r3, 80232c2 <CheckResetTimer+0xde>
 80232be:	f7fd fa21 	bl	8020704 <Brr_CloseBarrier>
 80232c2:	6823      	ldr	r3, [r4, #0]
 80232c4:	3301      	adds	r3, #1
 80232c6:	6023      	str	r3, [r4, #0]
 80232c8:	e7e8      	b.n	802329c <CheckResetTimer+0xb8>
 80232ca:	4b07      	ldr	r3, [pc, #28]	; (80232e8 <CheckResetTimer+0x104>)
 80232cc:	6022      	str	r2, [r4, #0]
 80232ce:	700a      	strb	r2, [r1, #0]
 80232d0:	701a      	strb	r2, [r3, #0]
 80232d2:	e7d6      	b.n	8023282 <CheckResetTimer+0x9e>
 80232d4:	2400020c 	.word	0x2400020c
 80232d8:	240003f0 	.word	0x240003f0
 80232dc:	240003fc 	.word	0x240003fc
 80232e0:	240003ed 	.word	0x240003ed
 80232e4:	0802bb1f 	.word	0x0802bb1f
 80232e8:	240003e4 	.word	0x240003e4
 80232ec:	24000028 	.word	0x24000028
 80232f0:	0802bb42 	.word	0x0802bb42
 80232f4:	24000410 	.word	0x24000410
 80232f8:	0802bb65 	.word	0x0802bb65
 80232fc:	240003e3 	.word	0x240003e3
 8023300:	240003f8 	.word	0x240003f8
 8023304:	24000018 	.word	0x24000018
 8023308:	24000124 	.word	0x24000124

0802330c <CheckTailgateFilterTimer>:
 802330c:	b510      	push	{r4, lr}
 802330e:	4c30      	ldr	r4, [pc, #192]	; (80233d0 <CheckTailgateFilterTimer+0xc4>)
 8023310:	7823      	ldrb	r3, [r4, #0]
 8023312:	2b00      	cmp	r3, #0
 8023314:	d05b      	beq.n	80233ce <CheckTailgateFilterTimer+0xc2>
 8023316:	4b2f      	ldr	r3, [pc, #188]	; (80233d4 <CheckTailgateFilterTimer+0xc8>)
 8023318:	2164      	movs	r1, #100	; 0x64
 802331a:	4620      	mov	r0, r4
 802331c:	681b      	ldr	r3, [r3, #0]
 802331e:	4359      	muls	r1, r3
 8023320:	f006 fd92 	bl	8029e48 <IsTimeout>
 8023324:	2800      	cmp	r0, #0
 8023326:	d038      	beq.n	802339a <CheckTailgateFilterTimer+0x8e>
 8023328:	4620      	mov	r0, r4
 802332a:	f006 fd89 	bl	8029e40 <ResetTimer>
 802332e:	4b2a      	ldr	r3, [pc, #168]	; (80233d8 <CheckTailgateFilterTimer+0xcc>)
 8023330:	781b      	ldrb	r3, [r3, #0]
 8023332:	b123      	cbz	r3, 802333e <CheckTailgateFilterTimer+0x32>
 8023334:	4829      	ldr	r0, [pc, #164]	; (80233dc <CheckTailgateFilterTimer+0xd0>)
 8023336:	e8bd 4010 	ldmia.w	sp!, {r4, lr}
 802333a:	f002 be15 	b.w	8025f68 <printf_>
 802333e:	4b28      	ldr	r3, [pc, #160]	; (80233e0 <CheckTailgateFilterTimer+0xd4>)
 8023340:	781b      	ldrb	r3, [r3, #0]
 8023342:	b10b      	cbz	r3, 8023348 <CheckTailgateFilterTimer+0x3c>
 8023344:	4827      	ldr	r0, [pc, #156]	; (80233e4 <CheckTailgateFilterTimer+0xd8>)
 8023346:	e7f6      	b.n	8023336 <CheckTailgateFilterTimer+0x2a>
 8023348:	2102      	movs	r1, #2
 802334a:	4608      	mov	r0, r1
 802334c:	f7fd fd64 	bl	8020e18 <ControlDirectionLED>
 8023350:	2001      	movs	r0, #1
 8023352:	f7fd fde1 	bl	8020f18 <ControlIndicatorBlink>
 8023356:	4b24      	ldr	r3, [pc, #144]	; (80233e8 <CheckTailgateFilterTimer+0xdc>)
 8023358:	2001      	movs	r0, #1
 802335a:	78d9      	ldrb	r1, [r3, #3]
 802335c:	f7fd fd3c 	bl	8020dd8 <ControlBuzzer>
 8023360:	f7fe fa4a 	bl	80217f8 <SetTailgatingTimer>
 8023364:	4b21      	ldr	r3, [pc, #132]	; (80233ec <CheckTailgateFilterTimer+0xe0>)
 8023366:	791a      	ldrb	r2, [r3, #4]
 8023368:	b152      	cbz	r2, 8023380 <CheckTailgateFilterTimer+0x74>
 802336a:	7a1a      	ldrb	r2, [r3, #8]
 802336c:	2103      	movs	r1, #3
 802336e:	4820      	ldr	r0, [pc, #128]	; (80233f0 <CheckTailgateFilterTimer+0xe4>)
 8023370:	f361 0202 	bfi	r2, r1, #0, #3
 8023374:	721a      	strb	r2, [r3, #8]
 8023376:	7f1a      	ldrb	r2, [r3, #28]
 8023378:	f042 0201 	orr.w	r2, r2, #1
 802337c:	771a      	strb	r2, [r3, #28]
 802337e:	e7da      	b.n	8023336 <CheckTailgateFilterTimer+0x2a>
 8023380:	795a      	ldrb	r2, [r3, #5]
 8023382:	b322      	cbz	r2, 80233ce <CheckTailgateFilterTimer+0xc2>
 8023384:	7a1a      	ldrb	r2, [r3, #8]
 8023386:	2103      	movs	r1, #3
 8023388:	481a      	ldr	r0, [pc, #104]	; (80233f4 <CheckTailgateFilterTimer+0xe8>)
 802338a:	f361 1206 	bfi	r2, r1, #4, #3
 802338e:	721a      	strb	r2, [r3, #8]
 8023390:	7f1a      	ldrb	r2, [r3, #28]
 8023392:	f042 0210 	orr.w	r2, r2, #16
 8023396:	771a      	strb	r2, [r3, #28]
 8023398:	e7cd      	b.n	8023336 <CheckTailgateFilterTimer+0x2a>
 802339a:	4b14      	ldr	r3, [pc, #80]	; (80233ec <CheckTailgateFilterTimer+0xe0>)
 802339c:	791a      	ldrb	r2, [r3, #4]
 802339e:	b15a      	cbz	r2, 80233b8 <CheckTailgateFilterTimer+0xac>
 80233a0:	4a15      	ldr	r2, [pc, #84]	; (80233f8 <CheckTailgateFilterTimer+0xec>)
 80233a2:	7852      	ldrb	r2, [r2, #1]
 80233a4:	06d2      	lsls	r2, r2, #27
 80233a6:	d507      	bpl.n	80233b8 <CheckTailgateFilterTimer+0xac>
 80233a8:	4814      	ldr	r0, [pc, #80]	; (80233fc <CheckTailgateFilterTimer+0xf0>)
 80233aa:	f002 fddd 	bl	8025f68 <printf_>
 80233ae:	4620      	mov	r0, r4
 80233b0:	e8bd 4010 	ldmia.w	sp!, {r4, lr}
 80233b4:	f006 bd44 	b.w	8029e40 <ResetTimer>
 80233b8:	795b      	ldrb	r3, [r3, #5]
 80233ba:	b143      	cbz	r3, 80233ce <CheckTailgateFilterTimer+0xc2>
 80233bc:	4b0e      	ldr	r3, [pc, #56]	; (80233f8 <CheckTailgateFilterTimer+0xec>)
 80233be:	781b      	ldrb	r3, [r3, #0]
 80233c0:	06db      	lsls	r3, r3, #27
 80233c2:	d504      	bpl.n	80233ce <CheckTailgateFilterTimer+0xc2>
 80233c4:	480e      	ldr	r0, [pc, #56]	; (8023400 <CheckTailgateFilterTimer+0xf4>)
 80233c6:	f002 fdcf 	bl	8025f68 <printf_>
 80233ca:	4801      	ldr	r0, [pc, #4]	; (80233d0 <CheckTailgateFilterTimer+0xc4>)
 80233cc:	e7f0      	b.n	80233b0 <CheckTailgateFilterTimer+0xa4>
 80233ce:	bd10      	pop	{r4, pc}
 80233d0:	24000248 	.word	0x24000248
 80233d4:	24000024 	.word	0x24000024
 80233d8:	240003e6 	.word	0x240003e6
 80233dc:	0802bb88 	.word	0x0802bb88
 80233e0:	240003e7 	.word	0x240003e7
 80233e4:	0802bbcb 	.word	0x0802bbcb
 80233e8:	24000408 	.word	0x24000408
 80233ec:	24000410 	.word	0x24000410
 80233f0:	0802bc0e 	.word	0x0802bc0e
 80233f4:	0802bc2b 	.word	0x0802bc2b
 80233f8:	240003fc 	.word	0x240003fc
 80233fc:	0802bc48 	.word	0x0802bc48
 8023400:	0802bc84 	.word	0x0802bc84

08023404 <CheckCloseWaitTimer>:
 8023404:	b508      	push	{r3, lr}
 8023406:	4b08      	ldr	r3, [pc, #32]	; (8023428 <CheckCloseWaitTimer+0x24>)
 8023408:	2164      	movs	r1, #100	; 0x64
 802340a:	4808      	ldr	r0, [pc, #32]	; (802342c <CheckCloseWaitTimer+0x28>)
 802340c:	681b      	ldr	r3, [r3, #0]
 802340e:	4359      	muls	r1, r3
 8023410:	f006 fd1a 	bl	8029e48 <IsTimeout>
 8023414:	b138      	cbz	r0, 8023426 <CheckCloseWaitTimer+0x22>
 8023416:	4805      	ldr	r0, [pc, #20]	; (802342c <CheckCloseWaitTimer+0x28>)
 8023418:	f006 fd12 	bl	8029e40 <ResetTimer>
 802341c:	2003      	movs	r0, #3
 802341e:	e8bd 4008 	ldmia.w	sp!, {r3, lr}
 8023422:	f7fd bcb3 	b.w	8020d8c <ControlBarrier>
 8023426:	bd08      	pop	{r3, pc}
 8023428:	24000010 	.word	0x24000010
 802342c:	240001a0 	.word	0x240001a0

08023430 <CheckStopHoldingTimer>:
 8023430:	b508      	push	{r3, lr}
 8023432:	4b09      	ldr	r3, [pc, #36]	; (8023458 <CheckStopHoldingTimer+0x28>)
 8023434:	f242 7110 	movw	r1, #10000	; 0x2710
 8023438:	4808      	ldr	r0, [pc, #32]	; (802345c <CheckStopHoldingTimer+0x2c>)
 802343a:	681b      	ldr	r3, [r3, #0]
 802343c:	4359      	muls	r1, r3
 802343e:	f006 fd03 	bl	8029e48 <IsTimeout>
 8023442:	b138      	cbz	r0, 8023454 <CheckStopHoldingTimer+0x24>
 8023444:	4805      	ldr	r0, [pc, #20]	; (802345c <CheckStopHoldingTimer+0x2c>)
 8023446:	f006 fcfb 	bl	8029e40 <ResetTimer>
 802344a:	2000      	movs	r0, #0
 802344c:	e8bd 4008 	ldmia.w	sp!, {r3, lr}
 8023450:	f7fd b972 	b.w	8020738 <Brr_StopBarrier>
 8023454:	bd08      	pop	{r3, pc}
 8023456:	bf00      	nop
 8023458:	2400001c 	.word	0x2400001c
 802345c:	24000224 	.word	0x24000224

08023460 <PassageProcessForSwing>:
 8023460:	b5f8      	push	{r3, r4, r5, r6, r7, lr}
 8023462:	f7fe ff0f 	bl	8022284 <UpdateSensorData>
 8023466:	4b37      	ldr	r3, [pc, #220]	; (8023544 <PassageProcessForSwing+0xe4>)
 8023468:	4f37      	ldr	r7, [pc, #220]	; (8023548 <PassageProcessForSwing+0xe8>)
 802346a:	781a      	ldrb	r2, [r3, #0]
 802346c:	4b37      	ldr	r3, [pc, #220]	; (802354c <PassageProcessForSwing+0xec>)
 802346e:	4d38      	ldr	r5, [pc, #224]	; (8023550 <PassageProcessForSwing+0xf0>)
 8023470:	751a      	strb	r2, [r3, #20]
 8023472:	f7ff f89b 	bl	80225ac <CheckBarrierOperation>
 8023476:	f7ff fd5d 	bl	8022f34 <CheckSafetyTimerForSwing>
 802347a:	f7fd fe97 	bl	80211ac <CheckIndicatorTimer>
 802347e:	f7fe f8c9 	bl	8021614 <CheckBlinkTimer>
 8023482:	f7fd fe7d 	bl	8021180 <CheckBuzzerTimer>
 8023486:	f7fd fdfb 	bl	8021080 <CheckEmergencySignal>
 802348a:	f7fd fd6d 	bl	8020f68 <CheckUPSStatus>
 802348e:	f7ff fea9 	bl	80231e4 <CheckResetTimer>
 8023492:	f7ff ffb7 	bl	8023404 <CheckCloseWaitTimer>
 8023496:	f7ff ffcb 	bl	8023430 <CheckStopHoldingTimer>
 802349a:	2204      	movs	r2, #4
 802349c:	492d      	ldr	r1, [pc, #180]	; (8023554 <PassageProcessForSwing+0xf4>)
 802349e:	4638      	mov	r0, r7
 80234a0:	f006 fd22 	bl	8029ee8 <memcmp>
 80234a4:	b338      	cbz	r0, 80234f6 <PassageProcessForSwing+0x96>
 80234a6:	482c      	ldr	r0, [pc, #176]	; (8023558 <PassageProcessForSwing+0xf8>)
 80234a8:	f006 fcca 	bl	8029e40 <ResetTimer>
 80234ac:	78ab      	ldrb	r3, [r5, #2]
 80234ae:	b963      	cbnz	r3, 80234ca <PassageProcessForSwing+0x6a>
 80234b0:	4b2a      	ldr	r3, [pc, #168]	; (802355c <PassageProcessForSwing+0xfc>)
 80234b2:	781b      	ldrb	r3, [r3, #0]
 80234b4:	b18b      	cbz	r3, 80234da <PassageProcessForSwing+0x7a>
 80234b6:	f7ff ff29 	bl	802330c <CheckTailgateFilterTimer>
 80234ba:	f7ff fc27 	bl	8022d0c <CheckCounterEnterTimer>
 80234be:	f7ff fc6f 	bl	8022da0 <CheckIllegalEnter>
 80234c2:	f7ff fce5 	bl	8022e90 <CheckTGTimerForSwing>
 80234c6:	f7fe f859 	bl	802157c <CheckIllegalAlarmTimer>
 80234ca:	683a      	ldr	r2, [r7, #0]
 80234cc:	2001      	movs	r0, #1
 80234ce:	4b21      	ldr	r3, [pc, #132]	; (8023554 <PassageProcessForSwing+0xf4>)
 80234d0:	601a      	str	r2, [r3, #0]
 80234d2:	e8bd 40f8 	ldmia.w	sp!, {r3, r4, r5, r6, r7, lr}
 80234d6:	f7fd be89 	b.w	80211ec <CheckPassSenError>
 80234da:	782a      	ldrb	r2, [r5, #0]
 80234dc:	786b      	ldrb	r3, [r5, #1]
 80234de:	4313      	orrs	r3, r2
 80234e0:	d0e9      	beq.n	80234b6 <PassageProcessForSwing+0x56>
 80234e2:	f7ff fa11 	bl	8022908 <CheckEntranceSwing>
 80234e6:	f7ff fab7 	bl	8022a58 <CheckPassReadySwing>
 80234ea:	f7ff fb5f 	bl	8022bac <CheckPassingSwing>
 80234ee:	78ab      	ldrb	r3, [r5, #2]
 80234f0:	2b00      	cmp	r3, #0
 80234f2:	d1ea      	bne.n	80234ca <PassageProcessForSwing+0x6a>
 80234f4:	e7df      	b.n	80234b6 <PassageProcessForSwing+0x56>
 80234f6:	883c      	ldrh	r4, [r7, #0]
 80234f8:	f024 040c 	bic.w	r4, r4, #12
 80234fc:	b2a4      	uxth	r4, r4
 80234fe:	b13c      	cbz	r4, 8023510 <PassageProcessForSwing+0xb0>
 8023500:	4815      	ldr	r0, [pc, #84]	; (8023558 <PassageProcessForSwing+0xf8>)
 8023502:	f006 fc9d 	bl	8029e40 <ResetTimer>
 8023506:	f7fe f803 	bl	8021510 <CheckAuthTimeout>
 802350a:	f7fd fb53 	bl	8020bb4 <CheckModeChange>
 802350e:	e7ee      	b.n	80234ee <PassageProcessForSwing+0x8e>
 8023510:	4e11      	ldr	r6, [pc, #68]	; (8023558 <PassageProcessForSwing+0xf8>)
 8023512:	7833      	ldrb	r3, [r6, #0]
 8023514:	b193      	cbz	r3, 802353c <PassageProcessForSwing+0xdc>
 8023516:	f44f 61fa 	mov.w	r1, #2000	; 0x7d0
 802351a:	4630      	mov	r0, r6
 802351c:	f006 fc94 	bl	8029e48 <IsTimeout>
 8023520:	2800      	cmp	r0, #0
 8023522:	d0f0      	beq.n	8023506 <PassageProcessForSwing+0xa6>
 8023524:	4b0e      	ldr	r3, [pc, #56]	; (8023560 <PassageProcessForSwing+0x100>)
 8023526:	701c      	strb	r4, [r3, #0]
 8023528:	4b0e      	ldr	r3, [pc, #56]	; (8023564 <PassageProcessForSwing+0x104>)
 802352a:	701c      	strb	r4, [r3, #0]
 802352c:	4b0e      	ldr	r3, [pc, #56]	; (8023568 <PassageProcessForSwing+0x108>)
 802352e:	701c      	strb	r4, [r3, #0]
 8023530:	4b0e      	ldr	r3, [pc, #56]	; (802356c <PassageProcessForSwing+0x10c>)
 8023532:	701c      	strb	r4, [r3, #0]
 8023534:	f7fd ffa8 	bl	8021488 <ClearPassageAlarm>
 8023538:	4630      	mov	r0, r6
 802353a:	e7e2      	b.n	8023502 <PassageProcessForSwing+0xa2>
 802353c:	4630      	mov	r0, r6
 802353e:	f006 fc77 	bl	8029e30 <SetTimer>
 8023542:	e7e0      	b.n	8023506 <PassageProcessForSwing+0xa6>
 8023544:	60000500 	.word	0x60000500
 8023548:	240003fc 	.word	0x240003fc
 802354c:	24000410 	.word	0x24000410
 8023550:	24000404 	.word	0x24000404
 8023554:	24000400 	.word	0x24000400
 8023558:	240001f4 	.word	0x240001f4
 802355c:	24000451 	.word	0x24000451
 8023560:	240003ea 	.word	0x240003ea
 8023564:	240003eb 	.word	0x240003eb
 8023568:	240003e6 	.word	0x240003e6
 802356c:	240003e7 	.word	0x240003e7

08023570 <TestDirection>:
 8023570:	4b17      	ldr	r3, [pc, #92]	; (80235d0 <TestDirection+0x60>)
 8023572:	4918      	ldr	r1, [pc, #96]	; (80235d4 <TestDirection+0x64>)
 8023574:	681a      	ldr	r2, [r3, #0]
 8023576:	b510      	push	{r4, lr}
 8023578:	b312      	cbz	r2, 80235c0 <TestDirection+0x50>
 802357a:	680c      	ldr	r4, [r1, #0]
 802357c:	f344 0440 	sbfx	r4, r4, #1, #1
 8023580:	b264      	sxtb	r4, r4
 8023582:	b944      	cbnz	r4, 8023596 <TestDirection+0x26>
 8023584:	601c      	str	r4, [r3, #0]
 8023586:	4620      	mov	r0, r4
 8023588:	f000 fb10 	bl	8023bac <ControlStatusLED_Ex>
 802358c:	4620      	mov	r0, r4
 802358e:	e8bd 4010 	ldmia.w	sp!, {r4, lr}
 8023592:	f000 baf9 	b.w	8023b88 <ControlStatusLED_En>
 8023596:	3a01      	subs	r2, #1
 8023598:	2a03      	cmp	r2, #3
 802359a:	d809      	bhi.n	80235b0 <TestDirection+0x40>
 802359c:	e8df f002 	tbb	[pc, r2]
 80235a0:	0e0a0602 	.word	0x0e0a0602
 80235a4:	2202      	movs	r2, #2
 80235a6:	2401      	movs	r4, #1
 80235a8:	601a      	str	r2, [r3, #0]
 80235aa:	e7ec      	b.n	8023586 <TestDirection+0x16>
 80235ac:	2203      	movs	r2, #3
 80235ae:	601a      	str	r2, [r3, #0]
 80235b0:	2400      	movs	r4, #0
 80235b2:	e7e8      	b.n	8023586 <TestDirection+0x16>
 80235b4:	2204      	movs	r2, #4
 80235b6:	2402      	movs	r4, #2
 80235b8:	601a      	str	r2, [r3, #0]
 80235ba:	e7e4      	b.n	8023586 <TestDirection+0x16>
 80235bc:	2201      	movs	r2, #1
 80235be:	e7f6      	b.n	80235ae <TestDirection+0x3e>
 80235c0:	680a      	ldr	r2, [r1, #0]
 80235c2:	f342 0240 	sbfx	r2, r2, #1, #1
 80235c6:	b252      	sxtb	r2, r2
 80235c8:	b10a      	cbz	r2, 80235ce <TestDirection+0x5e>
 80235ca:	2201      	movs	r2, #1
 80235cc:	601a      	str	r2, [r3, #0]
 80235ce:	bd10      	pop	{r4, pc}
 80235d0:	240004bc 	.word	0x240004bc
 80235d4:	240004b0 	.word	0x240004b0

080235d8 <TestOverHeadDirection>:
 80235d8:	4b17      	ldr	r3, [pc, #92]	; (8023638 <TestOverHeadDirection+0x60>)
 80235da:	4918      	ldr	r1, [pc, #96]	; (802363c <TestOverHeadDirection+0x64>)
 80235dc:	681a      	ldr	r2, [r3, #0]
 80235de:	b510      	push	{r4, lr}
 80235e0:	b312      	cbz	r2, 8023628 <TestOverHeadDirection+0x50>
 80235e2:	680c      	ldr	r4, [r1, #0]
 80235e4:	f344 1400 	sbfx	r4, r4, #4, #1
 80235e8:	b264      	sxtb	r4, r4
 80235ea:	b944      	cbnz	r4, 80235fe <TestOverHeadDirection+0x26>
 80235ec:	601c      	str	r4, [r3, #0]
 80235ee:	4620      	mov	r0, r4
 80235f0:	f000 fb04 	bl	8023bfc <ControlOverHeadDisplay_Ex>
 80235f4:	4620      	mov	r0, r4
 80235f6:	e8bd 4010 	ldmia.w	sp!, {r4, lr}
 80235fa:	f000 baeb 	b.w	8023bd4 <ControlOverHeadDisplay_En>
 80235fe:	3a01      	subs	r2, #1
 8023600:	2a03      	cmp	r2, #3
 8023602:	d809      	bhi.n	8023618 <TestOverHeadDirection+0x40>
 8023604:	e8df f002 	tbb	[pc, r2]
 8023608:	0e0a0602 	.word	0x0e0a0602
 802360c:	2202      	movs	r2, #2
 802360e:	2401      	movs	r4, #1
 8023610:	601a      	str	r2, [r3, #0]
 8023612:	e7ec      	b.n	80235ee <TestOverHeadDirection+0x16>
 8023614:	2203      	movs	r2, #3
 8023616:	601a      	str	r2, [r3, #0]
 8023618:	2400      	movs	r4, #0
 802361a:	e7e8      	b.n	80235ee <TestOverHeadDirection+0x16>
 802361c:	2204      	movs	r2, #4
 802361e:	2402      	movs	r4, #2
 8023620:	601a      	str	r2, [r3, #0]
 8023622:	e7e4      	b.n	80235ee <TestOverHeadDirection+0x16>
 8023624:	2201      	movs	r2, #1
 8023626:	e7f6      	b.n	8023616 <TestOverHeadDirection+0x3e>
 8023628:	680a      	ldr	r2, [r1, #0]
 802362a:	f342 1200 	sbfx	r2, r2, #4, #1
 802362e:	b252      	sxtb	r2, r2
 8023630:	b10a      	cbz	r2, 8023636 <TestOverHeadDirection+0x5e>
 8023632:	2201      	movs	r2, #1
 8023634:	601a      	str	r2, [r3, #0]
 8023636:	bd10      	pop	{r4, pc}
 8023638:	240004d4 	.word	0x240004d4
 802363c:	240004b0 	.word	0x240004b0

08023640 <TestLamp>:
 8023640:	4b20      	ldr	r3, [pc, #128]	; (80236c4 <TestLamp+0x84>)
 8023642:	4921      	ldr	r1, [pc, #132]	; (80236c8 <TestLamp+0x88>)
 8023644:	681a      	ldr	r2, [r3, #0]
 8023646:	b510      	push	{r4, lr}
 8023648:	2a00      	cmp	r2, #0
 802364a:	d032      	beq.n	80236b2 <TestLamp+0x72>
 802364c:	680c      	ldr	r4, [r1, #0]
 802364e:	f344 0480 	sbfx	r4, r4, #2, #1
 8023652:	b264      	sxtb	r4, r4
 8023654:	b90c      	cbnz	r4, 802365a <TestLamp+0x1a>
 8023656:	601c      	str	r4, [r3, #0]
 8023658:	e00b      	b.n	8023672 <TestLamp+0x32>
 802365a:	3a01      	subs	r2, #1
 802365c:	2a06      	cmp	r2, #6
 802365e:	d826      	bhi.n	80236ae <TestLamp+0x6e>
 8023660:	e8df f002 	tbb	[pc, r2]
 8023664:	15130f04 	.word	0x15130f04
 8023668:	1d19      	.short	0x1d19
 802366a:	21          	.byte	0x21
 802366b:	00          	.byte	0x00
 802366c:	2202      	movs	r2, #2
 802366e:	2401      	movs	r4, #1
 8023670:	601a      	str	r2, [r3, #0]
 8023672:	4620      	mov	r0, r4
 8023674:	f000 fad6 	bl	8023c24 <ControlIndicatorLight_En>
 8023678:	4620      	mov	r0, r4
 802367a:	e8bd 4010 	ldmia.w	sp!, {r4, lr}
 802367e:	f000 bae5 	b.w	8023c4c <ControlIndicatorLight_Ex>
 8023682:	2203      	movs	r2, #3
 8023684:	2402      	movs	r4, #2
 8023686:	601a      	str	r2, [r3, #0]
 8023688:	e7f3      	b.n	8023672 <TestLamp+0x32>
 802368a:	2404      	movs	r4, #4
 802368c:	e7e3      	b.n	8023656 <TestLamp+0x16>
 802368e:	2205      	movs	r2, #5
 8023690:	2403      	movs	r4, #3
 8023692:	601a      	str	r2, [r3, #0]
 8023694:	e7ed      	b.n	8023672 <TestLamp+0x32>
 8023696:	2206      	movs	r2, #6
 8023698:	2405      	movs	r4, #5
 802369a:	601a      	str	r2, [r3, #0]
 802369c:	e7e9      	b.n	8023672 <TestLamp+0x32>
 802369e:	2207      	movs	r2, #7
 80236a0:	2406      	movs	r4, #6
 80236a2:	601a      	str	r2, [r3, #0]
 80236a4:	e7e5      	b.n	8023672 <TestLamp+0x32>
 80236a6:	2201      	movs	r2, #1
 80236a8:	2407      	movs	r4, #7
 80236aa:	601a      	str	r2, [r3, #0]
 80236ac:	e7e1      	b.n	8023672 <TestLamp+0x32>
 80236ae:	2400      	movs	r4, #0
 80236b0:	e7df      	b.n	8023672 <TestLamp+0x32>
 80236b2:	680a      	ldr	r2, [r1, #0]
 80236b4:	f342 0280 	sbfx	r2, r2, #2, #1
 80236b8:	b252      	sxtb	r2, r2
 80236ba:	b10a      	cbz	r2, 80236c0 <TestLamp+0x80>
 80236bc:	2201      	movs	r2, #1
 80236be:	601a      	str	r2, [r3, #0]
 80236c0:	bd10      	pop	{r4, pc}
 80236c2:	bf00      	nop
 80236c4:	240004c8 	.word	0x240004c8
 80236c8:	240004b0 	.word	0x240004b0

080236cc <TestDoor_P>:
 80236cc:	4b19      	ldr	r3, [pc, #100]	; (8023734 <TestDoor_P+0x68>)
 80236ce:	4a1a      	ldr	r2, [pc, #104]	; (8023738 <TestDoor_P+0x6c>)
 80236d0:	6818      	ldr	r0, [r3, #0]
 80236d2:	b510      	push	{r4, lr}
 80236d4:	b310      	cbz	r0, 802371c <TestDoor_P+0x50>
 80236d6:	6814      	ldr	r4, [r2, #0]
 80236d8:	f344 1440 	sbfx	r4, r4, #5, #1
 80236dc:	b264      	sxtb	r4, r4
 80236de:	b92c      	cbnz	r4, 80236ec <TestDoor_P+0x20>
 80236e0:	2001      	movs	r0, #1
 80236e2:	601c      	str	r4, [r3, #0]
 80236e4:	f000 fac6 	bl	8023c74 <Brr_SetEmergency_P>
 80236e8:	2000      	movs	r0, #0
 80236ea:	e00c      	b.n	8023706 <TestDoor_P+0x3a>
 80236ec:	3801      	subs	r0, #1
 80236ee:	2803      	cmp	r0, #3
 80236f0:	d8fa      	bhi.n	80236e8 <TestDoor_P+0x1c>
 80236f2:	e8df f000 	tbb	[pc, r0]
 80236f6:	0502      	.short	0x0502
 80236f8:	100c      	.short	0x100c
 80236fa:	2202      	movs	r2, #2
 80236fc:	601a      	str	r2, [r3, #0]
 80236fe:	e7f3      	b.n	80236e8 <TestDoor_P+0x1c>
 8023700:	2203      	movs	r2, #3
 8023702:	2001      	movs	r0, #1
 8023704:	601a      	str	r2, [r3, #0]
 8023706:	e8bd 4010 	ldmia.w	sp!, {r4, lr}
 802370a:	f000 baf3 	b.w	8023cf4 <Brr_ControlBarrier_P>
 802370e:	2204      	movs	r2, #4
 8023710:	2002      	movs	r0, #2
 8023712:	601a      	str	r2, [r3, #0]
 8023714:	e7f7      	b.n	8023706 <TestDoor_P+0x3a>
 8023716:	2001      	movs	r0, #1
 8023718:	6018      	str	r0, [r3, #0]
 802371a:	e7f4      	b.n	8023706 <TestDoor_P+0x3a>
 802371c:	6812      	ldr	r2, [r2, #0]
 802371e:	f342 1240 	sbfx	r2, r2, #5, #1
 8023722:	b252      	sxtb	r2, r2
 8023724:	b12a      	cbz	r2, 8023732 <TestDoor_P+0x66>
 8023726:	2201      	movs	r2, #1
 8023728:	e8bd 4010 	ldmia.w	sp!, {r4, lr}
 802372c:	601a      	str	r2, [r3, #0]
 802372e:	f000 baa1 	b.w	8023c74 <Brr_SetEmergency_P>
 8023732:	bd10      	pop	{r4, pc}
 8023734:	240004d8 	.word	0x240004d8
 8023738:	240004b0 	.word	0x240004b0

0802373c <TestDoor_S>:
 802373c:	4b19      	ldr	r3, [pc, #100]	; (80237a4 <TestDoor_S+0x68>)
 802373e:	4a1a      	ldr	r2, [pc, #104]	; (80237a8 <TestDoor_S+0x6c>)
 8023740:	6818      	ldr	r0, [r3, #0]
 8023742:	b510      	push	{r4, lr}
 8023744:	b310      	cbz	r0, 802378c <TestDoor_S+0x50>
 8023746:	6814      	ldr	r4, [r2, #0]
 8023748:	f344 1440 	sbfx	r4, r4, #5, #1
 802374c:	b264      	sxtb	r4, r4
 802374e:	b92c      	cbnz	r4, 802375c <TestDoor_S+0x20>
 8023750:	2001      	movs	r0, #1
 8023752:	601c      	str	r4, [r3, #0]
 8023754:	f000 fa9e 	bl	8023c94 <Brr_SetEmergency_S>
 8023758:	2000      	movs	r0, #0
 802375a:	e00c      	b.n	8023776 <TestDoor_S+0x3a>
 802375c:	3801      	subs	r0, #1
 802375e:	2803      	cmp	r0, #3
 8023760:	d8fa      	bhi.n	8023758 <TestDoor_S+0x1c>
 8023762:	e8df f000 	tbb	[pc, r0]
 8023766:	0502      	.short	0x0502
 8023768:	100c      	.short	0x100c
 802376a:	2202      	movs	r2, #2
 802376c:	601a      	str	r2, [r3, #0]
 802376e:	e7f3      	b.n	8023758 <TestDoor_S+0x1c>
 8023770:	2203      	movs	r2, #3
 8023772:	2001      	movs	r0, #1
 8023774:	601a      	str	r2, [r3, #0]
 8023776:	e8bd 4010 	ldmia.w	sp!, {r4, lr}
 802377a:	f000 badd 	b.w	8023d38 <Brr_ControlBarrier_S>
 802377e:	2204      	movs	r2, #4
 8023780:	2002      	movs	r0, #2
 8023782:	601a      	str	r2, [r3, #0]
 8023784:	e7f7      	b.n	8023776 <TestDoor_S+0x3a>
 8023786:	2001      	movs	r0, #1
 8023788:	6018      	str	r0, [r3, #0]
 802378a:	e7f4      	b.n	8023776 <TestDoor_S+0x3a>
 802378c:	6812      	ldr	r2, [r2, #0]
 802378e:	f342 1240 	sbfx	r2, r2, #5, #1
 8023792:	b252      	sxtb	r2, r2
 8023794:	b12a      	cbz	r2, 80237a2 <TestDoor_S+0x66>
 8023796:	2201      	movs	r2, #1
 8023798:	e8bd 4010 	ldmia.w	sp!, {r4, lr}
 802379c:	601a      	str	r2, [r3, #0]
 802379e:	f000 ba79 	b.w	8023c94 <Brr_SetEmergency_S>
 80237a2:	bd10      	pop	{r4, pc}
 80237a4:	240004f4 	.word	0x240004f4
 80237a8:	240004b0 	.word	0x240004b0

080237ac <TestAging>:
 80237ac:	b510      	push	{r4, lr}
 80237ae:	4c0e      	ldr	r4, [pc, #56]	; (80237e8 <TestAging+0x3c>)
 80237b0:	6823      	ldr	r3, [r4, #0]
 80237b2:	b97b      	cbnz	r3, 80237d4 <TestAging+0x28>
 80237b4:	4b0d      	ldr	r3, [pc, #52]	; (80237ec <TestAging+0x40>)
 80237b6:	4a0e      	ldr	r2, [pc, #56]	; (80237f0 <TestAging+0x44>)
 80237b8:	691b      	ldr	r3, [r3, #16]
 80237ba:	43db      	mvns	r3, r3
 80237bc:	b2db      	uxtb	r3, r3
 80237be:	7013      	strb	r3, [r2, #0]
 80237c0:	f7ff fed6 	bl	8023570 <TestDirection>
 80237c4:	f7ff ff08 	bl	80235d8 <TestOverHeadDirection>
 80237c8:	f7ff ff3a 	bl	8023640 <TestLamp>
 80237cc:	f7ff ff7e 	bl	80236cc <TestDoor_P>
 80237d0:	f7ff ffb4 	bl	802373c <TestDoor_S>
 80237d4:	6823      	ldr	r3, [r4, #0]
 80237d6:	f640 32b7 	movw	r2, #2999	; 0xbb7
 80237da:	3301      	adds	r3, #1
 80237dc:	4293      	cmp	r3, r2
 80237de:	bf88      	it	hi
 80237e0:	2300      	movhi	r3, #0
 80237e2:	6023      	str	r3, [r4, #0]
 80237e4:	bd10      	pop	{r4, pc}
 80237e6:	bf00      	nop
 80237e8:	240004b4 	.word	0x240004b4
 80237ec:	58020400 	.word	0x58020400
 80237f0:	240004b0 	.word	0x240004b0

080237f4 <TEST_LAMP_P_Cmd>:
 80237f4:	4b14      	ldr	r3, [pc, #80]	; (8023848 <TEST_LAMP_P_Cmd+0x54>)
 80237f6:	681a      	ldr	r2, [r3, #0]
 80237f8:	2a07      	cmp	r2, #7
 80237fa:	d807      	bhi.n	802380c <TEST_LAMP_P_Cmd+0x18>
 80237fc:	e8df f002 	tbb	[pc, r2]
 8023800:	110d0804 	.word	0x110d0804
 8023804:	201c1814 	.word	0x201c1814
 8023808:	2201      	movs	r2, #1
 802380a:	601a      	str	r2, [r3, #0]
 802380c:	2000      	movs	r0, #0
 802380e:	e002      	b.n	8023816 <TEST_LAMP_P_Cmd+0x22>
 8023810:	2202      	movs	r2, #2
 8023812:	2001      	movs	r0, #1
 8023814:	601a      	str	r2, [r3, #0]
 8023816:	f000 ba05 	b.w	8023c24 <ControlIndicatorLight_En>
 802381a:	2203      	movs	r2, #3
 802381c:	2002      	movs	r0, #2
 802381e:	601a      	str	r2, [r3, #0]
 8023820:	e7f9      	b.n	8023816 <TEST_LAMP_P_Cmd+0x22>
 8023822:	2004      	movs	r0, #4
 8023824:	6018      	str	r0, [r3, #0]
 8023826:	e7f6      	b.n	8023816 <TEST_LAMP_P_Cmd+0x22>
 8023828:	2205      	movs	r2, #5
 802382a:	2003      	movs	r0, #3
 802382c:	601a      	str	r2, [r3, #0]
 802382e:	e7f2      	b.n	8023816 <TEST_LAMP_P_Cmd+0x22>
 8023830:	2206      	movs	r2, #6
 8023832:	2005      	movs	r0, #5
 8023834:	601a      	str	r2, [r3, #0]
 8023836:	e7ee      	b.n	8023816 <TEST_LAMP_P_Cmd+0x22>
 8023838:	2207      	movs	r2, #7
 802383a:	2006      	movs	r0, #6
 802383c:	601a      	str	r2, [r3, #0]
 802383e:	e7ea      	b.n	8023816 <TEST_LAMP_P_Cmd+0x22>
 8023840:	2200      	movs	r2, #0
 8023842:	2007      	movs	r0, #7
 8023844:	601a      	str	r2, [r3, #0]
 8023846:	e7e6      	b.n	8023816 <TEST_LAMP_P_Cmd+0x22>
 8023848:	240004d0 	.word	0x240004d0

0802384c <TEST_LAMP_S_Cmd>:
 802384c:	4b14      	ldr	r3, [pc, #80]	; (80238a0 <TEST_LAMP_S_Cmd+0x54>)
 802384e:	681a      	ldr	r2, [r3, #0]
 8023850:	2a07      	cmp	r2, #7
 8023852:	d807      	bhi.n	8023864 <TEST_LAMP_S_Cmd+0x18>
 8023854:	e8df f002 	tbb	[pc, r2]
 8023858:	110d0804 	.word	0x110d0804
 802385c:	201c1814 	.word	0x201c1814
 8023860:	2201      	movs	r2, #1
 8023862:	601a      	str	r2, [r3, #0]
 8023864:	2000      	movs	r0, #0
 8023866:	e002      	b.n	802386e <TEST_LAMP_S_Cmd+0x22>
 8023868:	2202      	movs	r2, #2
 802386a:	2001      	movs	r0, #1
 802386c:	601a      	str	r2, [r3, #0]
 802386e:	f000 b9ed 	b.w	8023c4c <ControlIndicatorLight_Ex>
 8023872:	2203      	movs	r2, #3
 8023874:	2002      	movs	r0, #2
 8023876:	601a      	str	r2, [r3, #0]
 8023878:	e7f9      	b.n	802386e <TEST_LAMP_S_Cmd+0x22>
 802387a:	2004      	movs	r0, #4
 802387c:	6018      	str	r0, [r3, #0]
 802387e:	e7f6      	b.n	802386e <TEST_LAMP_S_Cmd+0x22>
 8023880:	2205      	movs	r2, #5
 8023882:	2003      	movs	r0, #3
 8023884:	601a      	str	r2, [r3, #0]
 8023886:	e7f2      	b.n	802386e <TEST_LAMP_S_Cmd+0x22>
 8023888:	2206      	movs	r2, #6
 802388a:	2005      	movs	r0, #5
 802388c:	601a      	str	r2, [r3, #0]
 802388e:	e7ee      	b.n	802386e <TEST_LAMP_S_Cmd+0x22>
 8023890:	2207      	movs	r2, #7
 8023892:	2006      	movs	r0, #6
 8023894:	601a      	str	r2, [r3, #0]
 8023896:	e7ea      	b.n	802386e <TEST_LAMP_S_Cmd+0x22>
 8023898:	2200      	movs	r2, #0
 802389a:	2007      	movs	r0, #7
 802389c:	601a      	str	r2, [r3, #0]
 802389e:	e7e6      	b.n	802386e <TEST_LAMP_S_Cmd+0x22>
 80238a0:	240004cc 	.word	0x240004cc

080238a4 <TEST_Barrier_P_Cmd>:
 80238a4:	4b0a      	ldr	r3, [pc, #40]	; (80238d0 <TEST_Barrier_P_Cmd+0x2c>)
 80238a6:	681a      	ldr	r2, [r3, #0]
 80238a8:	2a03      	cmp	r2, #3
 80238aa:	d80f      	bhi.n	80238cc <TEST_Barrier_P_Cmd+0x28>
 80238ac:	e8df f002 	tbb	[pc, r2]
 80238b0:	0c080602 	.word	0x0c080602
 80238b4:	2001      	movs	r0, #1
 80238b6:	6018      	str	r0, [r3, #0]
 80238b8:	f000 ba1c 	b.w	8023cf4 <Brr_ControlBarrier_P>
 80238bc:	2002      	movs	r0, #2
 80238be:	e7fa      	b.n	80238b6 <TEST_Barrier_P_Cmd+0x12>
 80238c0:	2203      	movs	r2, #3
 80238c2:	2001      	movs	r0, #1
 80238c4:	601a      	str	r2, [r3, #0]
 80238c6:	e7f7      	b.n	80238b8 <TEST_Barrier_P_Cmd+0x14>
 80238c8:	2000      	movs	r0, #0
 80238ca:	e7f4      	b.n	80238b6 <TEST_Barrier_P_Cmd+0x12>
 80238cc:	2000      	movs	r0, #0
 80238ce:	e7f3      	b.n	80238b8 <TEST_Barrier_P_Cmd+0x14>
 80238d0:	240004e8 	.word	0x240004e8

080238d4 <TEST_Barrier_S_Cmd>:
 80238d4:	4b0a      	ldr	r3, [pc, #40]	; (8023900 <TEST_Barrier_S_Cmd+0x2c>)
 80238d6:	681a      	ldr	r2, [r3, #0]
 80238d8:	2a03      	cmp	r2, #3
 80238da:	d80f      	bhi.n	80238fc <TEST_Barrier_S_Cmd+0x28>
 80238dc:	e8df f002 	tbb	[pc, r2]
 80238e0:	0c080602 	.word	0x0c080602
 80238e4:	2001      	movs	r0, #1
 80238e6:	6018      	str	r0, [r3, #0]
 80238e8:	f000 ba26 	b.w	8023d38 <Brr_ControlBarrier_S>
 80238ec:	2002      	movs	r0, #2
 80238ee:	e7fa      	b.n	80238e6 <TEST_Barrier_S_Cmd+0x12>
 80238f0:	2203      	movs	r2, #3
 80238f2:	2001      	movs	r0, #1
 80238f4:	601a      	str	r2, [r3, #0]
 80238f6:	e7f7      	b.n	80238e8 <TEST_Barrier_S_Cmd+0x14>
 80238f8:	2000      	movs	r0, #0
 80238fa:	e7f4      	b.n	80238e6 <TEST_Barrier_S_Cmd+0x12>
 80238fc:	2000      	movs	r0, #0
 80238fe:	e7f3      	b.n	80238e8 <TEST_Barrier_S_Cmd+0x14>
 8023900:	240004e4 	.word	0x240004e4

08023904 <TEST_OverHeadDirection_Cmd>:
 8023904:	4b0d      	ldr	r3, [pc, #52]	; (802393c <TEST_OverHeadDirection_Cmd+0x38>)
 8023906:	681a      	ldr	r2, [r3, #0]
 8023908:	b510      	push	{r4, lr}
 802390a:	2a03      	cmp	r2, #3
 802390c:	d813      	bhi.n	8023936 <TEST_OverHeadDirection_Cmd+0x32>
 802390e:	e8df f002 	tbb	[pc, r2]
 8023912:	0c02      	.short	0x0c02
 8023914:	100e      	.short	0x100e
 8023916:	2401      	movs	r4, #1
 8023918:	601c      	str	r4, [r3, #0]
 802391a:	4620      	mov	r0, r4
 802391c:	f000 f96e 	bl	8023bfc <ControlOverHeadDisplay_Ex>
 8023920:	4620      	mov	r0, r4
 8023922:	e8bd 4010 	ldmia.w	sp!, {r4, lr}
 8023926:	f000 b955 	b.w	8023bd4 <ControlOverHeadDisplay_En>
 802392a:	2402      	movs	r4, #2
 802392c:	e7f4      	b.n	8023918 <TEST_OverHeadDirection_Cmd+0x14>
 802392e:	2403      	movs	r4, #3
 8023930:	e7f2      	b.n	8023918 <TEST_OverHeadDirection_Cmd+0x14>
 8023932:	2400      	movs	r4, #0
 8023934:	e7f0      	b.n	8023918 <TEST_OverHeadDirection_Cmd+0x14>
 8023936:	2400      	movs	r4, #0
 8023938:	e7ef      	b.n	802391a <TEST_OverHeadDirection_Cmd+0x16>
 802393a:	bf00      	nop
 802393c:	240004c0 	.word	0x240004c0

08023940 <TEST_Direction_Cmd>:
 8023940:	4b0d      	ldr	r3, [pc, #52]	; (8023978 <TEST_Direction_Cmd+0x38>)
 8023942:	681a      	ldr	r2, [r3, #0]
 8023944:	b510      	push	{r4, lr}
 8023946:	2a03      	cmp	r2, #3
 8023948:	d813      	bhi.n	8023972 <TEST_Direction_Cmd+0x32>
 802394a:	e8df f002 	tbb	[pc, r2]
 802394e:	0c02      	.short	0x0c02
 8023950:	100e      	.short	0x100e
 8023952:	2401      	movs	r4, #1
 8023954:	601c      	str	r4, [r3, #0]
 8023956:	4620      	mov	r0, r4
 8023958:	f000 f928 	bl	8023bac <ControlStatusLED_Ex>
 802395c:	4620      	mov	r0, r4
 802395e:	e8bd 4010 	ldmia.w	sp!, {r4, lr}
 8023962:	f000 b911 	b.w	8023b88 <ControlStatusLED_En>
 8023966:	2402      	movs	r4, #2
 8023968:	e7f4      	b.n	8023954 <TEST_Direction_Cmd+0x14>
 802396a:	2403      	movs	r4, #3
 802396c:	e7f2      	b.n	8023954 <TEST_Direction_Cmd+0x14>
 802396e:	2400      	movs	r4, #0
 8023970:	e7f0      	b.n	8023954 <TEST_Direction_Cmd+0x14>
 8023972:	2400      	movs	r4, #0
 8023974:	e7ef      	b.n	8023956 <TEST_Direction_Cmd+0x16>
 8023976:	bf00      	nop
 8023978:	240004c4 	.word	0x240004c4

0802397c <TEST_Buzzer_Cmd>:
 802397c:	4b08      	ldr	r3, [pc, #32]	; (80239a0 <TEST_Buzzer_Cmd+0x24>)
 802397e:	681a      	ldr	r2, [r3, #0]
 8023980:	b132      	cbz	r2, 8023990 <TEST_Buzzer_Cmd+0x14>
 8023982:	2a01      	cmp	r2, #1
 8023984:	d007      	beq.n	8023996 <TEST_Buzzer_Cmd+0x1a>
 8023986:	681b      	ldr	r3, [r3, #0]
 8023988:	2b01      	cmp	r3, #1
 802398a:	d106      	bne.n	802399a <TEST_Buzzer_Cmd+0x1e>
 802398c:	f000 b8e2 	b.w	8023b54 <BuzzerOn>
 8023990:	2201      	movs	r2, #1
 8023992:	601a      	str	r2, [r3, #0]
 8023994:	e7f7      	b.n	8023986 <TEST_Buzzer_Cmd+0xa>
 8023996:	2200      	movs	r2, #0
 8023998:	e7fb      	b.n	8023992 <TEST_Buzzer_Cmd+0x16>
 802399a:	f000 b8ed 	b.w	8023b78 <BuzzerOff>
 802399e:	bf00      	nop
 80239a0:	240004b8 	.word	0x240004b8

080239a4 <TEST_Barrier_P_E_Cmd>:
 80239a4:	4b07      	ldr	r3, [pc, #28]	; (80239c4 <TEST_Barrier_P_E_Cmd+0x20>)
 80239a6:	681a      	ldr	r2, [r3, #0]
 80239a8:	b13a      	cbz	r2, 80239ba <TEST_Barrier_P_E_Cmd+0x16>
 80239aa:	2a01      	cmp	r2, #1
 80239ac:	d008      	beq.n	80239c0 <TEST_Barrier_P_E_Cmd+0x1c>
 80239ae:	6818      	ldr	r0, [r3, #0]
 80239b0:	2801      	cmp	r0, #1
 80239b2:	bf18      	it	ne
 80239b4:	2000      	movne	r0, #0
 80239b6:	f000 b95d 	b.w	8023c74 <Brr_SetEmergency_P>
 80239ba:	2201      	movs	r2, #1
 80239bc:	601a      	str	r2, [r3, #0]
 80239be:	e7f6      	b.n	80239ae <TEST_Barrier_P_E_Cmd+0xa>
 80239c0:	2200      	movs	r2, #0
 80239c2:	e7fb      	b.n	80239bc <TEST_Barrier_P_E_Cmd+0x18>
 80239c4:	240004f0 	.word	0x240004f0

080239c8 <TEST_Barrier_S_E_Cmd>:
 80239c8:	4b07      	ldr	r3, [pc, #28]	; (80239e8 <TEST_Barrier_S_E_Cmd+0x20>)
 80239ca:	681a      	ldr	r2, [r3, #0]
 80239cc:	b13a      	cbz	r2, 80239de <TEST_Barrier_S_E_Cmd+0x16>
 80239ce:	2a01      	cmp	r2, #1
 80239d0:	d008      	beq.n	80239e4 <TEST_Barrier_S_E_Cmd+0x1c>
 80239d2:	6818      	ldr	r0, [r3, #0]
 80239d4:	2801      	cmp	r0, #1
 80239d6:	bf18      	it	ne
 80239d8:	2000      	movne	r0, #0
 80239da:	f000 b95b 	b.w	8023c94 <Brr_SetEmergency_S>
 80239de:	2201      	movs	r2, #1
 80239e0:	601a      	str	r2, [r3, #0]
 80239e2:	e7f6      	b.n	80239d2 <TEST_Barrier_S_E_Cmd+0xa>
 80239e4:	2200      	movs	r2, #0
 80239e6:	e7fb      	b.n	80239e0 <TEST_Barrier_S_E_Cmd+0x18>
 80239e8:	240004ec 	.word	0x240004ec

080239ec <TEST_Barrier_P_B_Cmd>:
 80239ec:	4b07      	ldr	r3, [pc, #28]	; (8023a0c <TEST_Barrier_P_B_Cmd+0x20>)
 80239ee:	681a      	ldr	r2, [r3, #0]
 80239f0:	b13a      	cbz	r2, 8023a02 <TEST_Barrier_P_B_Cmd+0x16>
 80239f2:	2a01      	cmp	r2, #1
 80239f4:	d008      	beq.n	8023a08 <TEST_Barrier_P_B_Cmd+0x1c>
 80239f6:	6818      	ldr	r0, [r3, #0]
 80239f8:	2801      	cmp	r0, #1
 80239fa:	bf18      	it	ne
 80239fc:	2000      	movne	r0, #0
 80239fe:	f000 b959 	b.w	8023cb4 <Brr_SetBreak_P>
 8023a02:	2201      	movs	r2, #1
 8023a04:	601a      	str	r2, [r3, #0]
 8023a06:	e7f6      	b.n	80239f6 <TEST_Barrier_P_B_Cmd+0xa>
 8023a08:	2200      	movs	r2, #0
 8023a0a:	e7fb      	b.n	8023a04 <TEST_Barrier_P_B_Cmd+0x18>
 8023a0c:	240004dc 	.word	0x240004dc

08023a10 <TEST_Barrier_S_B_Cmd>:
 8023a10:	4b07      	ldr	r3, [pc, #28]	; (8023a30 <TEST_Barrier_S_B_Cmd+0x20>)
 8023a12:	681a      	ldr	r2, [r3, #0]
 8023a14:	b13a      	cbz	r2, 8023a26 <TEST_Barrier_S_B_Cmd+0x16>
 8023a16:	2a01      	cmp	r2, #1
 8023a18:	d008      	beq.n	8023a2c <TEST_Barrier_S_B_Cmd+0x1c>
 8023a1a:	6818      	ldr	r0, [r3, #0]
 8023a1c:	2801      	cmp	r0, #1
 8023a1e:	bf18      	it	ne
 8023a20:	2000      	movne	r0, #0
 8023a22:	f000 b957 	b.w	8023cd4 <Brr_SetBreak_S>
 8023a26:	2201      	movs	r2, #1
 8023a28:	601a      	str	r2, [r3, #0]
 8023a2a:	e7f6      	b.n	8023a1a <TEST_Barrier_S_B_Cmd+0xa>
 8023a2c:	2200      	movs	r2, #0
 8023a2e:	e7fb      	b.n	8023a28 <TEST_Barrier_S_B_Cmd+0x18>
 8023a30:	240004e0 	.word	0x240004e0

08023a34 <CMD_Test>:
 8023a34:	284e      	cmp	r0, #78	; 0x4e
 8023a36:	b508      	push	{r3, lr}
 8023a38:	d816      	bhi.n	8023a68 <CMD_Test+0x34>
 8023a3a:	282f      	cmp	r0, #47	; 0x2f
 8023a3c:	d91d      	bls.n	8023a7a <CMD_Test+0x46>
 8023a3e:	3830      	subs	r0, #48	; 0x30
 8023a40:	281e      	cmp	r0, #30
 8023a42:	d81a      	bhi.n	8023a7a <CMD_Test+0x46>
 8023a44:	e8df f000 	tbb	[pc, r0]
 8023a48:	241e1978 	.word	0x241e1978
 8023a4c:	34302c28 	.word	0x34302c28
 8023a50:	19191919 	.word	0x19191919
 8023a54:	19191919 	.word	0x19191919
 8023a58:	44381919 	.word	0x44381919
 8023a5c:	19193e19 	.word	0x19193e19
 8023a60:	19191919 	.word	0x19191919
 8023a64:	1919      	.short	0x1919
 8023a66:	58          	.byte	0x58
 8023a67:	00          	.byte	0x00
 8023a68:	2865      	cmp	r0, #101	; 0x65
 8023a6a:	d02b      	beq.n	8023ac4 <CMD_Test+0x90>
 8023a6c:	d806      	bhi.n	8023a7c <CMD_Test+0x48>
 8023a6e:	2862      	cmp	r0, #98	; 0x62
 8023a70:	d022      	beq.n	8023ab8 <CMD_Test+0x84>
 8023a72:	2863      	cmp	r0, #99	; 0x63
 8023a74:	d02c      	beq.n	8023ad0 <CMD_Test+0x9c>
 8023a76:	2858      	cmp	r0, #88	; 0x58
 8023a78:	d04e      	beq.n	8023b18 <CMD_Test+0xe4>
 8023a7a:	bd08      	pop	{r3, pc}
 8023a7c:	286e      	cmp	r0, #110	; 0x6e
 8023a7e:	d03b      	beq.n	8023af8 <CMD_Test+0xc4>
 8023a80:	2878      	cmp	r0, #120	; 0x78
 8023a82:	e7f9      	b.n	8023a78 <CMD_Test+0x44>
 8023a84:	f7ff feb6 	bl	80237f4 <TEST_LAMP_P_Cmd>
 8023a88:	e8bd 4008 	ldmia.w	sp!, {r3, lr}
 8023a8c:	f7ff bede 	b.w	802384c <TEST_LAMP_S_Cmd>
 8023a90:	e8bd 4008 	ldmia.w	sp!, {r3, lr}
 8023a94:	f7ff bf54 	b.w	8023940 <TEST_Direction_Cmd>
 8023a98:	e8bd 4008 	ldmia.w	sp!, {r3, lr}
 8023a9c:	f7ff bf32 	b.w	8023904 <TEST_OverHeadDirection_Cmd>
 8023aa0:	e8bd 4008 	ldmia.w	sp!, {r3, lr}
 8023aa4:	f7ff befe 	b.w	80238a4 <TEST_Barrier_P_Cmd>
 8023aa8:	e8bd 4008 	ldmia.w	sp!, {r3, lr}
 8023aac:	f7ff bf12 	b.w	80238d4 <TEST_Barrier_S_Cmd>
 8023ab0:	e8bd 4008 	ldmia.w	sp!, {r3, lr}
 8023ab4:	f7ff bf62 	b.w	802397c <TEST_Buzzer_Cmd>
 8023ab8:	f7ff ffaa 	bl	8023a10 <TEST_Barrier_S_B_Cmd>
 8023abc:	e8bd 4008 	ldmia.w	sp!, {r3, lr}
 8023ac0:	f7ff bf94 	b.w	80239ec <TEST_Barrier_P_B_Cmd>
 8023ac4:	f7ff ff80 	bl	80239c8 <TEST_Barrier_S_E_Cmd>
 8023ac8:	e8bd 4008 	ldmia.w	sp!, {r3, lr}
 8023acc:	f7ff bf6a 	b.w	80239a4 <TEST_Barrier_P_E_Cmd>
 8023ad0:	4b1b      	ldr	r3, [pc, #108]	; (8023b40 <CMD_Test+0x10c>)
 8023ad2:	781b      	ldrb	r3, [r3, #0]
 8023ad4:	f013 0f88 	tst.w	r3, #136	; 0x88
 8023ad8:	d004      	beq.n	8023ae4 <CMD_Test+0xb0>
 8023ada:	481a      	ldr	r0, [pc, #104]	; (8023b44 <CMD_Test+0x110>)
 8023adc:	e8bd 4008 	ldmia.w	sp!, {r3, lr}
 8023ae0:	f002 ba42 	b.w	8025f68 <printf_>
 8023ae4:	f013 0f22 	tst.w	r3, #34	; 0x22
 8023ae8:	d001      	beq.n	8023aee <CMD_Test+0xba>
 8023aea:	4817      	ldr	r0, [pc, #92]	; (8023b48 <CMD_Test+0x114>)
 8023aec:	e7f6      	b.n	8023adc <CMD_Test+0xa8>
 8023aee:	2001      	movs	r0, #1
 8023af0:	e8bd 4008 	ldmia.w	sp!, {r3, lr}
 8023af4:	f000 b942 	b.w	8023d7c <Brr_ControlBarrier_All_OPnC_Dir>
 8023af8:	4b11      	ldr	r3, [pc, #68]	; (8023b40 <CMD_Test+0x10c>)
 8023afa:	781b      	ldrb	r3, [r3, #0]
 8023afc:	f013 0f88 	tst.w	r3, #136	; 0x88
 8023b00:	d1eb      	bne.n	8023ada <CMD_Test+0xa6>
 8023b02:	f013 0f22 	tst.w	r3, #34	; 0x22
 8023b06:	d1f0      	bne.n	8023aea <CMD_Test+0xb6>
 8023b08:	2004      	movs	r0, #4
 8023b0a:	f000 f937 	bl	8023d7c <Brr_ControlBarrier_All_OPnC_Dir>
 8023b0e:	2008      	movs	r0, #8
 8023b10:	f000 f954 	bl	8023dbc <Brr_ControlBarrier_All_Dir>
 8023b14:	480d      	ldr	r0, [pc, #52]	; (8023b4c <CMD_Test+0x118>)
 8023b16:	e7e1      	b.n	8023adc <CMD_Test+0xa8>
 8023b18:	4b09      	ldr	r3, [pc, #36]	; (8023b40 <CMD_Test+0x10c>)
 8023b1a:	781b      	ldrb	r3, [r3, #0]
 8023b1c:	f013 0f88 	tst.w	r3, #136	; 0x88
 8023b20:	d1db      	bne.n	8023ada <CMD_Test+0xa6>
 8023b22:	f013 0f22 	tst.w	r3, #34	; 0x22
 8023b26:	d1e0      	bne.n	8023aea <CMD_Test+0xb6>
 8023b28:	2004      	movs	r0, #4
 8023b2a:	f000 f927 	bl	8023d7c <Brr_ControlBarrier_All_OPnC_Dir>
 8023b2e:	2010      	movs	r0, #16
 8023b30:	f000 f944 	bl	8023dbc <Brr_ControlBarrier_All_Dir>
 8023b34:	4806      	ldr	r0, [pc, #24]	; (8023b50 <CMD_Test+0x11c>)
 8023b36:	e7d1      	b.n	8023adc <CMD_Test+0xa8>
 8023b38:	e8bd 4008 	ldmia.w	sp!, {r3, lr}
 8023b3c:	f000 b960 	b.w	8023e00 <Barrier_Val>
 8023b40:	240004fa 	.word	0x240004fa
 8023b44:	0802bcc1 	.word	0x0802bcc1
 8023b48:	0802bcd1 	.word	0x0802bcd1
 8023b4c:	0802bce5 	.word	0x0802bce5
 8023b50:	0802bd03 	.word	0x0802bd03

08023b54 <BuzzerOn>:
 8023b54:	b508      	push	{r3, lr}
 8023b56:	f001 fabf 	bl	80250d8 <dip_sw>
 8023b5a:	f010 0f36 	tst.w	r0, #54	; 0x36
 8023b5e:	d107      	bne.n	8023b70 <BuzzerOn+0x1c>
 8023b60:	2201      	movs	r2, #1
 8023b62:	f44f 5180 	mov.w	r1, #4096	; 0x1000
 8023b66:	4803      	ldr	r0, [pc, #12]	; (8023b74 <BuzzerOn+0x20>)
 8023b68:	e8bd 4008 	ldmia.w	sp!, {r3, lr}
 8023b6c:	f003 b922 	b.w	8026db4 <HAL_GPIO_WritePin>
 8023b70:	bd08      	pop	{r3, pc}
 8023b72:	bf00      	nop
 8023b74:	58020000 	.word	0x58020000

08023b78 <BuzzerOff>:
 8023b78:	2200      	movs	r2, #0
 8023b7a:	f44f 5180 	mov.w	r1, #4096	; 0x1000
 8023b7e:	4801      	ldr	r0, [pc, #4]	; (8023b84 <BuzzerOff+0xc>)
 8023b80:	f003 b918 	b.w	8026db4 <HAL_GPIO_WritePin>
 8023b84:	58020000 	.word	0x58020000

08023b88 <ControlStatusLED_En>:
 8023b88:	4907      	ldr	r1, [pc, #28]	; (8023ba8 <ControlStatusLED_En+0x20>)
 8023b8a:	f04f 43c8 	mov.w	r3, #1677721600	; 0x64000000
 8023b8e:	f000 0003 	and.w	r0, r0, #3
 8023b92:	780a      	ldrb	r2, [r1, #0]
 8023b94:	f002 02fc 	and.w	r2, r2, #252	; 0xfc
 8023b98:	700a      	strb	r2, [r1, #0]
 8023b9a:	701a      	strb	r2, [r3, #0]
 8023b9c:	781a      	ldrb	r2, [r3, #0]
 8023b9e:	4310      	orrs	r0, r2
 8023ba0:	7018      	strb	r0, [r3, #0]
 8023ba2:	781b      	ldrb	r3, [r3, #0]
 8023ba4:	700b      	strb	r3, [r1, #0]
 8023ba6:	4770      	bx	lr
 8023ba8:	240004f8 	.word	0x240004f8

08023bac <ControlStatusLED_Ex>:
 8023bac:	4908      	ldr	r1, [pc, #32]	; (8023bd0 <ControlStatusLED_Ex+0x24>)
 8023bae:	f04f 43c8 	mov.w	r3, #1677721600	; 0x64000000
 8023bb2:	0100      	lsls	r0, r0, #4
 8023bb4:	780a      	ldrb	r2, [r1, #0]
 8023bb6:	f000 0030 	and.w	r0, r0, #48	; 0x30
 8023bba:	f002 02cf 	and.w	r2, r2, #207	; 0xcf
 8023bbe:	700a      	strb	r2, [r1, #0]
 8023bc0:	701a      	strb	r2, [r3, #0]
 8023bc2:	781a      	ldrb	r2, [r3, #0]
 8023bc4:	4310      	orrs	r0, r2
 8023bc6:	7018      	strb	r0, [r3, #0]
 8023bc8:	781b      	ldrb	r3, [r3, #0]
 8023bca:	700b      	strb	r3, [r1, #0]
 8023bcc:	4770      	bx	lr
 8023bce:	bf00      	nop
 8023bd0:	240004f8 	.word	0x240004f8

08023bd4 <ControlOverHeadDisplay_En>:
 8023bd4:	4908      	ldr	r1, [pc, #32]	; (8023bf8 <ControlOverHeadDisplay_En+0x24>)
 8023bd6:	f04f 43c8 	mov.w	r3, #1677721600	; 0x64000000
 8023bda:	0080      	lsls	r0, r0, #2
 8023bdc:	780a      	ldrb	r2, [r1, #0]
 8023bde:	f000 000c 	and.w	r0, r0, #12
 8023be2:	f002 02f3 	and.w	r2, r2, #243	; 0xf3
 8023be6:	700a      	strb	r2, [r1, #0]
 8023be8:	701a      	strb	r2, [r3, #0]
 8023bea:	781a      	ldrb	r2, [r3, #0]
 8023bec:	4310      	orrs	r0, r2
 8023bee:	7018      	strb	r0, [r3, #0]
 8023bf0:	781b      	ldrb	r3, [r3, #0]
 8023bf2:	700b      	strb	r3, [r1, #0]
 8023bf4:	4770      	bx	lr
 8023bf6:	bf00      	nop
 8023bf8:	240004f8 	.word	0x240004f8

08023bfc <ControlOverHeadDisplay_Ex>:
 8023bfc:	b510      	push	{r4, lr}
 8023bfe:	4c08      	ldr	r4, [pc, #32]	; (8023c20 <ControlOverHeadDisplay_Ex+0x24>)
 8023c00:	f04f 42c8 	mov.w	r2, #1677721600	; 0x64000000
 8023c04:	7821      	ldrb	r1, [r4, #0]
 8023c06:	f001 013f 	and.w	r1, r1, #63	; 0x3f
 8023c0a:	7021      	strb	r1, [r4, #0]
 8023c0c:	7011      	strb	r1, [r2, #0]
 8023c0e:	7813      	ldrb	r3, [r2, #0]
 8023c10:	ea43 1080 	orr.w	r0, r3, r0, lsl #6
 8023c14:	b2c0      	uxtb	r0, r0
 8023c16:	7010      	strb	r0, [r2, #0]
 8023c18:	7813      	ldrb	r3, [r2, #0]
 8023c1a:	7023      	strb	r3, [r4, #0]
 8023c1c:	bd10      	pop	{r4, pc}
 8023c1e:	bf00      	nop
 8023c20:	240004f8 	.word	0x240004f8

08023c24 <ControlIndicatorLight_En>:
 8023c24:	4907      	ldr	r1, [pc, #28]	; (8023c44 <ControlIndicatorLight_En+0x20>)
 8023c26:	f000 0007 	and.w	r0, r0, #7
 8023c2a:	4b07      	ldr	r3, [pc, #28]	; (8023c48 <ControlIndicatorLight_En+0x24>)
 8023c2c:	780a      	ldrb	r2, [r1, #0]
 8023c2e:	f002 02f8 	and.w	r2, r2, #248	; 0xf8
 8023c32:	700a      	strb	r2, [r1, #0]
 8023c34:	701a      	strb	r2, [r3, #0]
 8023c36:	781a      	ldrb	r2, [r3, #0]
 8023c38:	4310      	orrs	r0, r2
 8023c3a:	7018      	strb	r0, [r3, #0]
 8023c3c:	781b      	ldrb	r3, [r3, #0]
 8023c3e:	700b      	strb	r3, [r1, #0]
 8023c40:	4770      	bx	lr
 8023c42:	bf00      	nop
 8023c44:	240004f9 	.word	0x240004f9
 8023c48:	64000100 	.word	0x64000100

08023c4c <ControlIndicatorLight_Ex>:
 8023c4c:	4907      	ldr	r1, [pc, #28]	; (8023c6c <ControlIndicatorLight_Ex+0x20>)
 8023c4e:	0100      	lsls	r0, r0, #4
 8023c50:	4b07      	ldr	r3, [pc, #28]	; (8023c70 <ControlIndicatorLight_Ex+0x24>)
 8023c52:	780a      	ldrb	r2, [r1, #0]
 8023c54:	f000 0070 	and.w	r0, r0, #112	; 0x70
 8023c58:	f002 028f 	and.w	r2, r2, #143	; 0x8f
 8023c5c:	700a      	strb	r2, [r1, #0]
 8023c5e:	701a      	strb	r2, [r3, #0]
 8023c60:	781a      	ldrb	r2, [r3, #0]
 8023c62:	4310      	orrs	r0, r2
 8023c64:	7018      	strb	r0, [r3, #0]
 8023c66:	781b      	ldrb	r3, [r3, #0]
 8023c68:	700b      	strb	r3, [r1, #0]
 8023c6a:	4770      	bx	lr
 8023c6c:	240004f9 	.word	0x240004f9
 8023c70:	64000100 	.word	0x64000100

08023c74 <Brr_SetEmergency_P>:
 8023c74:	4a05      	ldr	r2, [pc, #20]	; (8023c8c <Brr_SetEmergency_P+0x18>)
 8023c76:	7813      	ldrb	r3, [r2, #0]
 8023c78:	b128      	cbz	r0, 8023c86 <Brr_SetEmergency_P+0x12>
 8023c7a:	f043 0302 	orr.w	r3, r3, #2
 8023c7e:	7013      	strb	r3, [r2, #0]
 8023c80:	4a03      	ldr	r2, [pc, #12]	; (8023c90 <Brr_SetEmergency_P+0x1c>)
 8023c82:	7013      	strb	r3, [r2, #0]
 8023c84:	4770      	bx	lr
 8023c86:	f003 03fd 	and.w	r3, r3, #253	; 0xfd
 8023c8a:	e7f8      	b.n	8023c7e <Brr_SetEmergency_P+0xa>
 8023c8c:	240004fa 	.word	0x240004fa
 8023c90:	64000200 	.word	0x64000200

08023c94 <Brr_SetEmergency_S>:
 8023c94:	4a05      	ldr	r2, [pc, #20]	; (8023cac <Brr_SetEmergency_S+0x18>)
 8023c96:	7813      	ldrb	r3, [r2, #0]
 8023c98:	b128      	cbz	r0, 8023ca6 <Brr_SetEmergency_S+0x12>
 8023c9a:	f043 0320 	orr.w	r3, r3, #32
 8023c9e:	7013      	strb	r3, [r2, #0]
 8023ca0:	4a03      	ldr	r2, [pc, #12]	; (8023cb0 <Brr_SetEmergency_S+0x1c>)
 8023ca2:	7013      	strb	r3, [r2, #0]
 8023ca4:	4770      	bx	lr
 8023ca6:	f003 03df 	and.w	r3, r3, #223	; 0xdf
 8023caa:	e7f8      	b.n	8023c9e <Brr_SetEmergency_S+0xa>
 8023cac:	240004fa 	.word	0x240004fa
 8023cb0:	64000200 	.word	0x64000200

08023cb4 <Brr_SetBreak_P>:
 8023cb4:	4a05      	ldr	r2, [pc, #20]	; (8023ccc <Brr_SetBreak_P+0x18>)
 8023cb6:	7813      	ldrb	r3, [r2, #0]
 8023cb8:	b128      	cbz	r0, 8023cc6 <Brr_SetBreak_P+0x12>
 8023cba:	f043 0308 	orr.w	r3, r3, #8
 8023cbe:	7013      	strb	r3, [r2, #0]
 8023cc0:	4a03      	ldr	r2, [pc, #12]	; (8023cd0 <Brr_SetBreak_P+0x1c>)
 8023cc2:	7013      	strb	r3, [r2, #0]
 8023cc4:	4770      	bx	lr
 8023cc6:	f003 03f7 	and.w	r3, r3, #247	; 0xf7
 8023cca:	e7f8      	b.n	8023cbe <Brr_SetBreak_P+0xa>
 8023ccc:	240004fa 	.word	0x240004fa
 8023cd0:	64000200 	.word	0x64000200

08023cd4 <Brr_SetBreak_S>:
 8023cd4:	4a05      	ldr	r2, [pc, #20]	; (8023cec <Brr_SetBreak_S+0x18>)
 8023cd6:	7813      	ldrb	r3, [r2, #0]
 8023cd8:	b128      	cbz	r0, 8023ce6 <Brr_SetBreak_S+0x12>
 8023cda:	f043 0380 	orr.w	r3, r3, #128	; 0x80
 8023cde:	7013      	strb	r3, [r2, #0]
 8023ce0:	4a03      	ldr	r2, [pc, #12]	; (8023cf0 <Brr_SetBreak_S+0x1c>)
 8023ce2:	7013      	strb	r3, [r2, #0]
 8023ce4:	4770      	bx	lr
 8023ce6:	f003 037f 	and.w	r3, r3, #127	; 0x7f
 8023cea:	e7f8      	b.n	8023cde <Brr_SetBreak_S+0xa>
 8023cec:	240004fa 	.word	0x240004fa
 8023cf0:	64000200 	.word	0x64000200

08023cf4 <Brr_ControlBarrier_P>:
 8023cf4:	490e      	ldr	r1, [pc, #56]	; (8023d30 <Brr_ControlBarrier_P+0x3c>)
 8023cf6:	2801      	cmp	r0, #1
 8023cf8:	4b0e      	ldr	r3, [pc, #56]	; (8023d34 <Brr_ControlBarrier_P+0x40>)
 8023cfa:	780a      	ldrb	r2, [r1, #0]
 8023cfc:	701a      	strb	r2, [r3, #0]
 8023cfe:	d00a      	beq.n	8023d16 <Brr_ControlBarrier_P+0x22>
 8023d00:	2802      	cmp	r0, #2
 8023d02:	d010      	beq.n	8023d26 <Brr_ControlBarrier_P+0x32>
 8023d04:	b958      	cbnz	r0, 8023d1e <Brr_ControlBarrier_P+0x2a>
 8023d06:	781a      	ldrb	r2, [r3, #0]
 8023d08:	f002 02fb 	and.w	r2, r2, #251	; 0xfb
 8023d0c:	701a      	strb	r2, [r3, #0]
 8023d0e:	781a      	ldrb	r2, [r3, #0]
 8023d10:	f002 02fe 	and.w	r2, r2, #254	; 0xfe
 8023d14:	e002      	b.n	8023d1c <Brr_ControlBarrier_P+0x28>
 8023d16:	781a      	ldrb	r2, [r3, #0]
 8023d18:	f042 0201 	orr.w	r2, r2, #1
 8023d1c:	701a      	strb	r2, [r3, #0]
 8023d1e:	4b05      	ldr	r3, [pc, #20]	; (8023d34 <Brr_ControlBarrier_P+0x40>)
 8023d20:	781b      	ldrb	r3, [r3, #0]
 8023d22:	700b      	strb	r3, [r1, #0]
 8023d24:	4770      	bx	lr
 8023d26:	781a      	ldrb	r2, [r3, #0]
 8023d28:	f042 0204 	orr.w	r2, r2, #4
 8023d2c:	e7ee      	b.n	8023d0c <Brr_ControlBarrier_P+0x18>
 8023d2e:	bf00      	nop
 8023d30:	240004fa 	.word	0x240004fa
 8023d34:	64000200 	.word	0x64000200

08023d38 <Brr_ControlBarrier_S>:
 8023d38:	490e      	ldr	r1, [pc, #56]	; (8023d74 <Brr_ControlBarrier_S+0x3c>)
 8023d3a:	2801      	cmp	r0, #1
 8023d3c:	4b0e      	ldr	r3, [pc, #56]	; (8023d78 <Brr_ControlBarrier_S+0x40>)
 8023d3e:	780a      	ldrb	r2, [r1, #0]
 8023d40:	701a      	strb	r2, [r3, #0]
 8023d42:	d00a      	beq.n	8023d5a <Brr_ControlBarrier_S+0x22>
 8023d44:	2802      	cmp	r0, #2
 8023d46:	d010      	beq.n	8023d6a <Brr_ControlBarrier_S+0x32>
 8023d48:	b958      	cbnz	r0, 8023d62 <Brr_ControlBarrier_S+0x2a>
 8023d4a:	781a      	ldrb	r2, [r3, #0]
 8023d4c:	f002 02bf 	and.w	r2, r2, #191	; 0xbf
 8023d50:	701a      	strb	r2, [r3, #0]
 8023d52:	781a      	ldrb	r2, [r3, #0]
 8023d54:	f002 02ef 	and.w	r2, r2, #239	; 0xef
 8023d58:	e002      	b.n	8023d60 <Brr_ControlBarrier_S+0x28>
 8023d5a:	781a      	ldrb	r2, [r3, #0]
 8023d5c:	f042 0210 	orr.w	r2, r2, #16
 8023d60:	701a      	strb	r2, [r3, #0]
 8023d62:	4b05      	ldr	r3, [pc, #20]	; (8023d78 <Brr_ControlBarrier_S+0x40>)
 8023d64:	781b      	ldrb	r3, [r3, #0]
 8023d66:	700b      	strb	r3, [r1, #0]
 8023d68:	4770      	bx	lr
 8023d6a:	781a      	ldrb	r2, [r3, #0]
 8023d6c:	f042 0240 	orr.w	r2, r2, #64	; 0x40
 8023d70:	e7ee      	b.n	8023d50 <Brr_ControlBarrier_S+0x18>
 8023d72:	bf00      	nop
 8023d74:	240004fa 	.word	0x240004fa
 8023d78:	64000200 	.word	0x64000200

08023d7c <Brr_ControlBarrier_All_OPnC_Dir>:
 8023d7c:	490d      	ldr	r1, [pc, #52]	; (8023db4 <Brr_ControlBarrier_All_OPnC_Dir+0x38>)
 8023d7e:	2801      	cmp	r0, #1
 8023d80:	4b0d      	ldr	r3, [pc, #52]	; (8023db8 <Brr_ControlBarrier_All_OPnC_Dir+0x3c>)
 8023d82:	780a      	ldrb	r2, [r1, #0]
 8023d84:	701a      	strb	r2, [r3, #0]
 8023d86:	d00d      	beq.n	8023da4 <Brr_ControlBarrier_All_OPnC_Dir+0x28>
 8023d88:	2804      	cmp	r0, #4
 8023d8a:	d107      	bne.n	8023d9c <Brr_ControlBarrier_All_OPnC_Dir+0x20>
 8023d8c:	781a      	ldrb	r2, [r3, #0]
 8023d8e:	f002 02ef 	and.w	r2, r2, #239	; 0xef
 8023d92:	701a      	strb	r2, [r3, #0]
 8023d94:	781a      	ldrb	r2, [r3, #0]
 8023d96:	f002 02fe 	and.w	r2, r2, #254	; 0xfe
 8023d9a:	701a      	strb	r2, [r3, #0]
 8023d9c:	4b06      	ldr	r3, [pc, #24]	; (8023db8 <Brr_ControlBarrier_All_OPnC_Dir+0x3c>)
 8023d9e:	781b      	ldrb	r3, [r3, #0]
 8023da0:	700b      	strb	r3, [r1, #0]
 8023da2:	4770      	bx	lr
 8023da4:	781a      	ldrb	r2, [r3, #0]
 8023da6:	f042 0210 	orr.w	r2, r2, #16
 8023daa:	701a      	strb	r2, [r3, #0]
 8023dac:	781a      	ldrb	r2, [r3, #0]
 8023dae:	f042 0201 	orr.w	r2, r2, #1
 8023db2:	e7f2      	b.n	8023d9a <Brr_ControlBarrier_All_OPnC_Dir+0x1e>
 8023db4:	240004fa 	.word	0x240004fa
 8023db8:	64000200 	.word	0x64000200

08023dbc <Brr_ControlBarrier_All_Dir>:
 8023dbc:	490e      	ldr	r1, [pc, #56]	; (8023df8 <Brr_ControlBarrier_All_Dir+0x3c>)
 8023dbe:	2808      	cmp	r0, #8
 8023dc0:	4b0e      	ldr	r3, [pc, #56]	; (8023dfc <Brr_ControlBarrier_All_Dir+0x40>)
 8023dc2:	780a      	ldrb	r2, [r1, #0]
 8023dc4:	701a      	strb	r2, [r3, #0]
 8023dc6:	d005      	beq.n	8023dd4 <Brr_ControlBarrier_All_Dir+0x18>
 8023dc8:	2810      	cmp	r0, #16
 8023dca:	d00c      	beq.n	8023de6 <Brr_ControlBarrier_All_Dir+0x2a>
 8023dcc:	4b0b      	ldr	r3, [pc, #44]	; (8023dfc <Brr_ControlBarrier_All_Dir+0x40>)
 8023dce:	781b      	ldrb	r3, [r3, #0]
 8023dd0:	700b      	strb	r3, [r1, #0]
 8023dd2:	4770      	bx	lr
 8023dd4:	781a      	ldrb	r2, [r3, #0]
 8023dd6:	f002 02fb 	and.w	r2, r2, #251	; 0xfb
 8023dda:	701a      	strb	r2, [r3, #0]
 8023ddc:	781a      	ldrb	r2, [r3, #0]
 8023dde:	f002 02bf 	and.w	r2, r2, #191	; 0xbf
 8023de2:	701a      	strb	r2, [r3, #0]
 8023de4:	e7f2      	b.n	8023dcc <Brr_ControlBarrier_All_Dir+0x10>
 8023de6:	781a      	ldrb	r2, [r3, #0]
 8023de8:	f042 0204 	orr.w	r2, r2, #4
 8023dec:	701a      	strb	r2, [r3, #0]
 8023dee:	781a      	ldrb	r2, [r3, #0]
 8023df0:	f042 0240 	orr.w	r2, r2, #64	; 0x40
 8023df4:	e7f5      	b.n	8023de2 <Brr_ControlBarrier_All_Dir+0x26>
 8023df6:	bf00      	nop
 8023df8:	240004fa 	.word	0x240004fa
 8023dfc:	64000200 	.word	0x64000200

08023e00 <Barrier_Val>:
 8023e00:	4b02      	ldr	r3, [pc, #8]	; (8023e0c <Barrier_Val+0xc>)
 8023e02:	4803      	ldr	r0, [pc, #12]	; (8023e10 <Barrier_Val+0x10>)
 8023e04:	7819      	ldrb	r1, [r3, #0]
 8023e06:	f006 b975 	b.w	802a0f4 <iprintf>
 8023e0a:	bf00      	nop
 8023e0c:	240004fa 	.word	0x240004fa
 8023e10:	0802bd20 	.word	0x0802bd20

08023e14 <IUart_Open>:
 8023e14:	2804      	cmp	r0, #4
 8023e16:	b5f8      	push	{r3, r4, r5, r6, r7, lr}
 8023e18:	4605      	mov	r5, r0
 8023e1a:	460f      	mov	r7, r1
 8023e1c:	d870      	bhi.n	8023f00 <IUart_Open+0xec>
 8023e1e:	4c39      	ldr	r4, [pc, #228]	; (8023f04 <IUart_Open+0xf0>)
 8023e20:	2800      	cmp	r0, #0
 8023e22:	d13b      	bne.n	8023e9c <IUart_Open+0x88>
 8023e24:	4b38      	ldr	r3, [pc, #224]	; (8023f08 <IUart_Open+0xf4>)
 8023e26:	2625      	movs	r6, #37	; 0x25
 8023e28:	4838      	ldr	r0, [pc, #224]	; (8023f0c <IUart_Open+0xf8>)
 8023e2a:	f44f 6280 	mov.w	r2, #1024	; 0x400
 8023e2e:	4938      	ldr	r1, [pc, #224]	; (8023f10 <IUart_Open+0xfc>)
 8023e30:	6123      	str	r3, [r4, #16]
 8023e32:	60e0      	str	r0, [r4, #12]
 8023e34:	f000 f9c0 	bl	80241b8 <RBuf_Init>
 8023e38:	2014      	movs	r0, #20
 8023e3a:	230c      	movs	r3, #12
 8023e3c:	fb00 4405 	mla	r4, r0, r5, r4
 8023e40:	2500      	movs	r5, #0
 8023e42:	6920      	ldr	r0, [r4, #16]
 8023e44:	e9c0 3505 	strd	r3, r5, [r0, #20]
 8023e48:	6047      	str	r7, [r0, #4]
 8023e4a:	6105      	str	r5, [r0, #16]
 8023e4c:	6445      	str	r5, [r0, #68]	; 0x44
 8023e4e:	e9c0 5502 	strd	r5, r5, [r0, #8]
 8023e52:	e9c0 5507 	strd	r5, r5, [r0, #28]
 8023e56:	e9c0 5509 	strd	r5, r5, [r0, #36]	; 0x24
 8023e5a:	f005 fe7b 	bl	8029b54 <HAL_UART_Init>
 8023e5e:	2201      	movs	r2, #1
 8023e60:	4629      	mov	r1, r5
 8023e62:	4630      	mov	r0, r6
 8023e64:	f002 fcc0 	bl	80267e8 <HAL_NVIC_SetPriority>
 8023e68:	4630      	mov	r0, r6
 8023e6a:	f002 fcef 	bl	802684c <HAL_NVIC_EnableIRQ>
 8023e6e:	6923      	ldr	r3, [r4, #16]
 8023e70:	681b      	ldr	r3, [r3, #0]
 8023e72:	6a1a      	ldr	r2, [r3, #32]
 8023e74:	f042 0240 	orr.w	r2, r2, #64	; 0x40
 8023e78:	621a      	str	r2, [r3, #32]
 8023e7a:	699a      	ldr	r2, [r3, #24]
 8023e7c:	f042 0208 	orr.w	r2, r2, #8
 8023e80:	619a      	str	r2, [r3, #24]
 8023e82:	6923      	ldr	r3, [r4, #16]
 8023e84:	681a      	ldr	r2, [r3, #0]
 8023e86:	e852 3f00 	ldrex	r3, [r2]
 8023e8a:	f043 0320 	orr.w	r3, r3, #32
 8023e8e:	e842 3100 	strex	r1, r3, [r2]
 8023e92:	2900      	cmp	r1, #0
 8023e94:	d1f5      	bne.n	8023e82 <IUart_Open+0x6e>
 8023e96:	2001      	movs	r0, #1
 8023e98:	7020      	strb	r0, [r4, #0]
 8023e9a:	bdf8      	pop	{r3, r4, r5, r6, r7, pc}
 8023e9c:	2801      	cmp	r0, #1
 8023e9e:	d10a      	bne.n	8023eb6 <IUart_Open+0xa2>
 8023ea0:	4b1c      	ldr	r3, [pc, #112]	; (8023f14 <IUart_Open+0x100>)
 8023ea2:	f44f 6280 	mov.w	r2, #1024	; 0x400
 8023ea6:	481c      	ldr	r0, [pc, #112]	; (8023f18 <IUart_Open+0x104>)
 8023ea8:	2626      	movs	r6, #38	; 0x26
 8023eaa:	491c      	ldr	r1, [pc, #112]	; (8023f1c <IUart_Open+0x108>)
 8023eac:	6263      	str	r3, [r4, #36]	; 0x24
 8023eae:	6220      	str	r0, [r4, #32]
 8023eb0:	f000 f982 	bl	80241b8 <RBuf_Init>
 8023eb4:	e7c0      	b.n	8023e38 <IUart_Open+0x24>
 8023eb6:	2802      	cmp	r0, #2
 8023eb8:	d10a      	bne.n	8023ed0 <IUart_Open+0xbc>
 8023eba:	4b19      	ldr	r3, [pc, #100]	; (8023f20 <IUart_Open+0x10c>)
 8023ebc:	f44f 6280 	mov.w	r2, #1024	; 0x400
 8023ec0:	4818      	ldr	r0, [pc, #96]	; (8023f24 <IUart_Open+0x110>)
 8023ec2:	2627      	movs	r6, #39	; 0x27
 8023ec4:	4918      	ldr	r1, [pc, #96]	; (8023f28 <IUart_Open+0x114>)
 8023ec6:	63a3      	str	r3, [r4, #56]	; 0x38
 8023ec8:	6360      	str	r0, [r4, #52]	; 0x34
 8023eca:	f000 f975 	bl	80241b8 <RBuf_Init>
 8023ece:	e7b3      	b.n	8023e38 <IUart_Open+0x24>
 8023ed0:	2803      	cmp	r0, #3
 8023ed2:	d10a      	bne.n	8023eea <IUart_Open+0xd6>
 8023ed4:	4b15      	ldr	r3, [pc, #84]	; (8023f2c <IUart_Open+0x118>)
 8023ed6:	f44f 6280 	mov.w	r2, #1024	; 0x400
 8023eda:	4815      	ldr	r0, [pc, #84]	; (8023f30 <IUart_Open+0x11c>)
 8023edc:	2634      	movs	r6, #52	; 0x34
 8023ede:	4915      	ldr	r1, [pc, #84]	; (8023f34 <IUart_Open+0x120>)
 8023ee0:	64e3      	str	r3, [r4, #76]	; 0x4c
 8023ee2:	64a0      	str	r0, [r4, #72]	; 0x48
 8023ee4:	f000 f968 	bl	80241b8 <RBuf_Init>
 8023ee8:	e7a6      	b.n	8023e38 <IUart_Open+0x24>
 8023eea:	4b13      	ldr	r3, [pc, #76]	; (8023f38 <IUart_Open+0x124>)
 8023eec:	f44f 6280 	mov.w	r2, #1024	; 0x400
 8023ef0:	4812      	ldr	r0, [pc, #72]	; (8023f3c <IUart_Open+0x128>)
 8023ef2:	2635      	movs	r6, #53	; 0x35
 8023ef4:	4912      	ldr	r1, [pc, #72]	; (8023f40 <IUart_Open+0x12c>)
 8023ef6:	6623      	str	r3, [r4, #96]	; 0x60
 8023ef8:	65e0      	str	r0, [r4, #92]	; 0x5c
 8023efa:	f000 f95d 	bl	80241b8 <RBuf_Init>
 8023efe:	e79b      	b.n	8023e38 <IUart_Open+0x24>
 8023f00:	2000      	movs	r0, #0
 8023f02:	e7ca      	b.n	8023e9a <IUart_Open+0x86>
 8023f04:	240004fc 	.word	0x240004fc
 8023f08:	24001c50 	.word	0x24001c50
 8023f0c:	24001960 	.word	0x24001960
 8023f10:	24000560 	.word	0x24000560
 8023f14:	24001ce4 	.word	0x24001ce4
 8023f18:	24001970 	.word	0x24001970
 8023f1c:	24000960 	.word	0x24000960
 8023f20:	24001d78 	.word	0x24001d78
 8023f24:	24001980 	.word	0x24001980
 8023f28:	24000d60 	.word	0x24000d60
 8023f2c:	24001e0c 	.word	0x24001e0c
 8023f30:	24001990 	.word	0x24001990
 8023f34:	24001160 	.word	0x24001160
 8023f38:	24001ea0 	.word	0x24001ea0
 8023f3c:	240019a0 	.word	0x240019a0
 8023f40:	24001560 	.word	0x24001560

08023f44 <bsp_InitIUart>:
 8023f44:	b570      	push	{r4, r5, r6, lr}
 8023f46:	4828      	ldr	r0, [pc, #160]	; (8023fe8 <bsp_InitIUart+0xa4>)
 8023f48:	f44f 35e1 	mov.w	r5, #115200	; 0x1c200
 8023f4c:	f005 fb26 	bl	802959c <HAL_UART_DeInit>
 8023f50:	4826      	ldr	r0, [pc, #152]	; (8023fec <bsp_InitIUart+0xa8>)
 8023f52:	f005 fb23 	bl	802959c <HAL_UART_DeInit>
 8023f56:	4826      	ldr	r0, [pc, #152]	; (8023ff0 <bsp_InitIUart+0xac>)
 8023f58:	f005 fb20 	bl	802959c <HAL_UART_DeInit>
 8023f5c:	4825      	ldr	r0, [pc, #148]	; (8023ff4 <bsp_InitIUart+0xb0>)
 8023f5e:	f005 fb1d 	bl	802959c <HAL_UART_DeInit>
 8023f62:	4825      	ldr	r0, [pc, #148]	; (8023ff8 <bsp_InitIUart+0xb4>)
 8023f64:	f005 fb1a 	bl	802959c <HAL_UART_DeInit>
 8023f68:	4824      	ldr	r0, [pc, #144]	; (8023ffc <bsp_InitIUart+0xb8>)
 8023f6a:	2100      	movs	r1, #0
 8023f6c:	f44f 4416 	mov.w	r4, #38400	; 0x9600
 8023f70:	4603      	mov	r3, r0
 8023f72:	f44f 4661 	mov.w	r6, #57600	; 0xe100
 8023f76:	460a      	mov	r2, r1
 8023f78:	2902      	cmp	r1, #2
 8023f7a:	d122      	bne.n	8023fc2 <bsp_InitIUart+0x7e>
 8023f7c:	f883 2028 	strb.w	r2, [r3, #40]	; 0x28
 8023f80:	62de      	str	r6, [r3, #44]	; 0x2c
 8023f82:	639a      	str	r2, [r3, #56]	; 0x38
 8023f84:	3101      	adds	r1, #1
 8023f86:	3014      	adds	r0, #20
 8023f88:	2905      	cmp	r1, #5
 8023f8a:	d1f5      	bne.n	8023f78 <bsp_InitIUart+0x34>
 8023f8c:	f44f 31e1 	mov.w	r1, #115200	; 0x1c200
 8023f90:	2000      	movs	r0, #0
 8023f92:	f7ff ff3f 	bl	8023e14 <IUart_Open>
 8023f96:	f44f 31e1 	mov.w	r1, #115200	; 0x1c200
 8023f9a:	2001      	movs	r0, #1
 8023f9c:	f7ff ff3a 	bl	8023e14 <IUart_Open>
 8023fa0:	f44f 4161 	mov.w	r1, #57600	; 0xe100
 8023fa4:	2002      	movs	r0, #2
 8023fa6:	f7ff ff35 	bl	8023e14 <IUart_Open>
 8023faa:	f44f 4116 	mov.w	r1, #38400	; 0x9600
 8023fae:	2003      	movs	r0, #3
 8023fb0:	f7ff ff30 	bl	8023e14 <IUart_Open>
 8023fb4:	f44f 4116 	mov.w	r1, #38400	; 0x9600
 8023fb8:	2004      	movs	r0, #4
 8023fba:	e8bd 4070 	ldmia.w	sp!, {r4, r5, r6, lr}
 8023fbe:	f7ff bf29 	b.w	8023e14 <IUart_Open>
 8023fc2:	2903      	cmp	r1, #3
 8023fc4:	d104      	bne.n	8023fd0 <bsp_InitIUart+0x8c>
 8023fc6:	f883 203c 	strb.w	r2, [r3, #60]	; 0x3c
 8023fca:	641c      	str	r4, [r3, #64]	; 0x40
 8023fcc:	64da      	str	r2, [r3, #76]	; 0x4c
 8023fce:	e7d9      	b.n	8023f84 <bsp_InitIUart+0x40>
 8023fd0:	2904      	cmp	r1, #4
 8023fd2:	bf03      	ittte	eq
 8023fd4:	f883 2050 	strbeq.w	r2, [r3, #80]	; 0x50
 8023fd8:	655c      	streq	r4, [r3, #84]	; 0x54
 8023fda:	661a      	streq	r2, [r3, #96]	; 0x60
 8023fdc:	7002      	strbne	r2, [r0, #0]
 8023fde:	bf1c      	itt	ne
 8023fe0:	6045      	strne	r5, [r0, #4]
 8023fe2:	6102      	strne	r2, [r0, #16]
 8023fe4:	e7ce      	b.n	8023f84 <bsp_InitIUart+0x40>
 8023fe6:	bf00      	nop
 8023fe8:	24001c50 	.word	0x24001c50
 8023fec:	24001ce4 	.word	0x24001ce4
 8023ff0:	24001d78 	.word	0x24001d78
 8023ff4:	24001e0c 	.word	0x24001e0c
 8023ff8:	24001ea0 	.word	0x24001ea0
 8023ffc:	240004fc 	.word	0x240004fc

08024000 <IUart_SendByte>:
 8024000:	2804      	cmp	r0, #4
 8024002:	d80b      	bhi.n	802401c <IUart_SendByte+0x1c>
 8024004:	4b07      	ldr	r3, [pc, #28]	; (8024024 <IUart_SendByte+0x24>)
 8024006:	2214      	movs	r2, #20
 8024008:	fb02 3000 	mla	r0, r2, r0, r3
 802400c:	6903      	ldr	r3, [r0, #16]
 802400e:	681b      	ldr	r3, [r3, #0]
 8024010:	69da      	ldr	r2, [r3, #28]
 8024012:	0612      	lsls	r2, r2, #24
 8024014:	d5fc      	bpl.n	8024010 <IUart_SendByte+0x10>
 8024016:	4608      	mov	r0, r1
 8024018:	6299      	str	r1, [r3, #40]	; 0x28
 802401a:	4770      	bx	lr
 802401c:	f04f 30ff 	mov.w	r0, #4294967295
 8024020:	4770      	bx	lr
 8024022:	bf00      	nop
 8024024:	240004fc 	.word	0x240004fc

08024028 <IUart_SendBuffer>:
 8024028:	2804      	cmp	r0, #4
 802402a:	e92d 41f0 	stmdb	sp!, {r4, r5, r6, r7, r8, lr}
 802402e:	4606      	mov	r6, r0
 8024030:	460f      	mov	r7, r1
 8024032:	4615      	mov	r5, r2
 8024034:	d80c      	bhi.n	8024050 <IUart_SendBuffer+0x28>
 8024036:	2400      	movs	r4, #0
 8024038:	4690      	mov	r8, r2
 802403a:	42a5      	cmp	r5, r4
 802403c:	dc02      	bgt.n	8024044 <IUart_SendBuffer+0x1c>
 802403e:	4640      	mov	r0, r8
 8024040:	e8bd 81f0 	ldmia.w	sp!, {r4, r5, r6, r7, r8, pc}
 8024044:	5d39      	ldrb	r1, [r7, r4]
 8024046:	4630      	mov	r0, r6
 8024048:	3401      	adds	r4, #1
 802404a:	f7ff ffd9 	bl	8024000 <IUart_SendByte>
 802404e:	e7f4      	b.n	802403a <IUart_SendBuffer+0x12>
 8024050:	f04f 38ff 	mov.w	r8, #4294967295
 8024054:	e7f3      	b.n	802403e <IUart_SendBuffer+0x16>
	...

08024058 <IUart_RecvByte>:
 8024058:	2804      	cmp	r0, #4
 802405a:	b513      	push	{r0, r1, r4, lr}
 802405c:	d903      	bls.n	8024066 <IUart_RecvByte+0xe>
 802405e:	f04f 30ff 	mov.w	r0, #4294967295
 8024062:	b002      	add	sp, #8
 8024064:	bd10      	pop	{r4, pc}
 8024066:	4b09      	ldr	r3, [pc, #36]	; (802408c <IUart_RecvByte+0x34>)
 8024068:	2414      	movs	r4, #20
 802406a:	fb04 3400 	mla	r4, r4, r0, r3
 802406e:	68e0      	ldr	r0, [r4, #12]
 8024070:	f000 f910 	bl	8024294 <RBuf_Get_Full>
 8024074:	2800      	cmp	r0, #0
 8024076:	d0f2      	beq.n	802405e <IUart_RecvByte+0x6>
 8024078:	2201      	movs	r2, #1
 802407a:	f10d 0107 	add.w	r1, sp, #7
 802407e:	68e0      	ldr	r0, [r4, #12]
 8024080:	f000 f927 	bl	80242d2 <RBuf_Read>
 8024084:	f89d 0007 	ldrb.w	r0, [sp, #7]
 8024088:	e7eb      	b.n	8024062 <IUart_RecvByte+0xa>
 802408a:	bf00      	nop
 802408c:	240004fc 	.word	0x240004fc

08024090 <IUart_RecvByte_check>:
 8024090:	2804      	cmp	r0, #4
 8024092:	b537      	push	{r0, r1, r2, r4, r5, lr}
 8024094:	460d      	mov	r5, r1
 8024096:	d813      	bhi.n	80240c0 <IUart_RecvByte_check+0x30>
 8024098:	4b0b      	ldr	r3, [pc, #44]	; (80240c8 <IUart_RecvByte_check+0x38>)
 802409a:	2414      	movs	r4, #20
 802409c:	fb04 3400 	mla	r4, r4, r0, r3
 80240a0:	68e0      	ldr	r0, [r4, #12]
 80240a2:	f000 f8f7 	bl	8024294 <RBuf_Get_Full>
 80240a6:	b148      	cbz	r0, 80240bc <IUart_RecvByte_check+0x2c>
 80240a8:	2201      	movs	r2, #1
 80240aa:	f10d 0107 	add.w	r1, sp, #7
 80240ae:	68e0      	ldr	r0, [r4, #12]
 80240b0:	f000 f90f 	bl	80242d2 <RBuf_Read>
 80240b4:	f89d 3007 	ldrb.w	r3, [sp, #7]
 80240b8:	2001      	movs	r0, #1
 80240ba:	702b      	strb	r3, [r5, #0]
 80240bc:	b003      	add	sp, #12
 80240be:	bd30      	pop	{r4, r5, pc}
 80240c0:	f04f 30ff 	mov.w	r0, #4294967295
 80240c4:	e7fa      	b.n	80240bc <IUart_RecvByte_check+0x2c>
 80240c6:	bf00      	nop
 80240c8:	240004fc 	.word	0x240004fc

080240cc <IUart_RecvByteBlocked>:
 80240cc:	2804      	cmp	r0, #4
 80240ce:	b538      	push	{r3, r4, r5, lr}
 80240d0:	4604      	mov	r4, r0
 80240d2:	d80d      	bhi.n	80240f0 <IUart_RecvByteBlocked+0x24>
 80240d4:	4d08      	ldr	r5, [pc, #32]	; (80240f8 <IUart_RecvByteBlocked+0x2c>)
 80240d6:	2314      	movs	r3, #20
 80240d8:	fb03 5500 	mla	r5, r3, r0, r5
 80240dc:	68e8      	ldr	r0, [r5, #12]
 80240de:	f000 f8d9 	bl	8024294 <RBuf_Get_Full>
 80240e2:	2800      	cmp	r0, #0
 80240e4:	d0fa      	beq.n	80240dc <IUart_RecvByteBlocked+0x10>
 80240e6:	4620      	mov	r0, r4
 80240e8:	e8bd 4038 	ldmia.w	sp!, {r3, r4, r5, lr}
 80240ec:	f7ff bfb4 	b.w	8024058 <IUart_RecvByte>
 80240f0:	f04f 30ff 	mov.w	r0, #4294967295
 80240f4:	bd38      	pop	{r3, r4, r5, pc}
 80240f6:	bf00      	nop
 80240f8:	240004fc 	.word	0x240004fc

080240fc <IUartISR>:
 80240fc:	6903      	ldr	r3, [r0, #16]
 80240fe:	681b      	ldr	r3, [r3, #0]
 8024100:	69da      	ldr	r2, [r3, #28]
 8024102:	0692      	lsls	r2, r2, #26
 8024104:	b513      	push	{r0, r1, r4, lr}
 8024106:	4604      	mov	r4, r0
 8024108:	d508      	bpl.n	802411c <IUartISR+0x20>
 802410a:	6a5b      	ldr	r3, [r3, #36]	; 0x24
 802410c:	2201      	movs	r2, #1
 802410e:	f10d 0107 	add.w	r1, sp, #7
 8024112:	68c0      	ldr	r0, [r0, #12]
 8024114:	f88d 3007 	strb.w	r3, [sp, #7]
 8024118:	f000 f878 	bl	802420c <RBuf_Write>
 802411c:	6923      	ldr	r3, [r4, #16]
 802411e:	681b      	ldr	r3, [r3, #0]
 8024120:	6a1a      	ldr	r2, [r3, #32]
 8024122:	f042 0201 	orr.w	r2, r2, #1
 8024126:	621a      	str	r2, [r3, #32]
 8024128:	6a1a      	ldr	r2, [r3, #32]
 802412a:	f042 0202 	orr.w	r2, r2, #2
 802412e:	621a      	str	r2, [r3, #32]
 8024130:	6a1a      	ldr	r2, [r3, #32]
 8024132:	f042 0204 	orr.w	r2, r2, #4
 8024136:	621a      	str	r2, [r3, #32]
 8024138:	6a1a      	ldr	r2, [r3, #32]
 802413a:	f042 0208 	orr.w	r2, r2, #8
 802413e:	621a      	str	r2, [r3, #32]
 8024140:	6a1a      	ldr	r2, [r3, #32]
 8024142:	f042 0210 	orr.w	r2, r2, #16
 8024146:	621a      	str	r2, [r3, #32]
 8024148:	6a1a      	ldr	r2, [r3, #32]
 802414a:	f042 0240 	orr.w	r2, r2, #64	; 0x40
 802414e:	621a      	str	r2, [r3, #32]
 8024150:	6a1a      	ldr	r2, [r3, #32]
 8024152:	f442 7280 	orr.w	r2, r2, #256	; 0x100
 8024156:	621a      	str	r2, [r3, #32]
 8024158:	6a1a      	ldr	r2, [r3, #32]
 802415a:	f442 7200 	orr.w	r2, r2, #512	; 0x200
 802415e:	621a      	str	r2, [r3, #32]
 8024160:	6a1a      	ldr	r2, [r3, #32]
 8024162:	f442 3200 	orr.w	r2, r2, #131072	; 0x20000
 8024166:	621a      	str	r2, [r3, #32]
 8024168:	6a1a      	ldr	r2, [r3, #32]
 802416a:	f442 1280 	orr.w	r2, r2, #1048576	; 0x100000
 802416e:	621a      	str	r2, [r3, #32]
 8024170:	6a1a      	ldr	r2, [r3, #32]
 8024172:	f042 0220 	orr.w	r2, r2, #32
 8024176:	621a      	str	r2, [r3, #32]
 8024178:	b002      	add	sp, #8
 802417a:	bd10      	pop	{r4, pc}

0802417c <USART1_IRQHandler>:
 802417c:	4801      	ldr	r0, [pc, #4]	; (8024184 <USART1_IRQHandler+0x8>)
 802417e:	f7ff bfbd 	b.w	80240fc <IUartISR>
 8024182:	bf00      	nop
 8024184:	240004fc 	.word	0x240004fc

08024188 <USART2_IRQHandler>:
 8024188:	4801      	ldr	r0, [pc, #4]	; (8024190 <USART2_IRQHandler+0x8>)
 802418a:	f7ff bfb7 	b.w	80240fc <IUartISR>
 802418e:	bf00      	nop
 8024190:	24000510 	.word	0x24000510

08024194 <USART3_IRQHandler>:
 8024194:	4801      	ldr	r0, [pc, #4]	; (802419c <USART3_IRQHandler+0x8>)
 8024196:	f7ff bfb1 	b.w	80240fc <IUartISR>
 802419a:	bf00      	nop
 802419c:	24000524 	.word	0x24000524

080241a0 <UART4_IRQHandler>:
 80241a0:	4801      	ldr	r0, [pc, #4]	; (80241a8 <UART4_IRQHandler+0x8>)
 80241a2:	f7ff bfab 	b.w	80240fc <IUartISR>
 80241a6:	bf00      	nop
 80241a8:	24000538 	.word	0x24000538

080241ac <UART5_IRQHandler>:
 80241ac:	4801      	ldr	r0, [pc, #4]	; (80241b4 <UART5_IRQHandler+0x8>)
 80241ae:	f7ff bfa5 	b.w	80240fc <IUartISR>
 80241b2:	bf00      	nop
 80241b4:	2400054c 	.word	0x2400054c

080241b8 <RBuf_Init>:
 80241b8:	b131      	cbz	r1, 80241c8 <RBuf_Init+0x10>
 80241ba:	b13a      	cbz	r2, 80241cc <RBuf_Init+0x14>
 80241bc:	2300      	movs	r3, #0
 80241be:	700b      	strb	r3, [r1, #0]
 80241c0:	e9c0 1200 	strd	r1, r2, [r0]
 80241c4:	2001      	movs	r0, #1
 80241c6:	4770      	bx	lr
 80241c8:	4608      	mov	r0, r1
 80241ca:	4770      	bx	lr
 80241cc:	4610      	mov	r0, r2
 80241ce:	4770      	bx	lr

080241d0 <RBuf_Get_Free>:
 80241d0:	b082      	sub	sp, #8
 80241d2:	4602      	mov	r2, r0
 80241d4:	b198      	cbz	r0, 80241fe <RBuf_Get_Free+0x2e>
 80241d6:	6800      	ldr	r0, [r0, #0]
 80241d8:	b188      	cbz	r0, 80241fe <RBuf_Get_Free+0x2e>
 80241da:	6850      	ldr	r0, [r2, #4]
 80241dc:	b178      	cbz	r0, 80241fe <RBuf_Get_Free+0x2e>
 80241de:	68d3      	ldr	r3, [r2, #12]
 80241e0:	9300      	str	r3, [sp, #0]
 80241e2:	6893      	ldr	r3, [r2, #8]
 80241e4:	9301      	str	r3, [sp, #4]
 80241e6:	9a00      	ldr	r2, [sp, #0]
 80241e8:	9b01      	ldr	r3, [sp, #4]
 80241ea:	429a      	cmp	r2, r3
 80241ec:	d006      	beq.n	80241fc <RBuf_Get_Free+0x2c>
 80241ee:	9a01      	ldr	r2, [sp, #4]
 80241f0:	9b00      	ldr	r3, [sp, #0]
 80241f2:	429a      	cmp	r2, r3
 80241f4:	d905      	bls.n	8024202 <RBuf_Get_Free+0x32>
 80241f6:	9801      	ldr	r0, [sp, #4]
 80241f8:	9b00      	ldr	r3, [sp, #0]
 80241fa:	1ac0      	subs	r0, r0, r3
 80241fc:	3801      	subs	r0, #1
 80241fe:	b002      	add	sp, #8
 8024200:	4770      	bx	lr
 8024202:	9b01      	ldr	r3, [sp, #4]
 8024204:	9a00      	ldr	r2, [sp, #0]
 8024206:	1a9b      	subs	r3, r3, r2
 8024208:	4418      	add	r0, r3
 802420a:	e7f7      	b.n	80241fc <RBuf_Get_Free+0x2c>

0802420c <RBuf_Write>:
 802420c:	e92d 41f3 	stmdb	sp!, {r0, r1, r4, r5, r6, r7, r8, lr}
 8024210:	460f      	mov	r7, r1
 8024212:	4614      	mov	r4, r2
 8024214:	4606      	mov	r6, r0
 8024216:	b920      	cbnz	r0, 8024222 <RBuf_Write+0x16>
 8024218:	2400      	movs	r4, #0
 802421a:	4620      	mov	r0, r4
 802421c:	b002      	add	sp, #8
 802421e:	e8bd 81f0 	ldmia.w	sp!, {r4, r5, r6, r7, r8, pc}
 8024222:	6803      	ldr	r3, [r0, #0]
 8024224:	2b00      	cmp	r3, #0
 8024226:	d0f7      	beq.n	8024218 <RBuf_Write+0xc>
 8024228:	6843      	ldr	r3, [r0, #4]
 802422a:	2b00      	cmp	r3, #0
 802422c:	d0f4      	beq.n	8024218 <RBuf_Write+0xc>
 802422e:	2900      	cmp	r1, #0
 8024230:	d0f2      	beq.n	8024218 <RBuf_Write+0xc>
 8024232:	2a00      	cmp	r2, #0
 8024234:	d0f0      	beq.n	8024218 <RBuf_Write+0xc>
 8024236:	f7ff ffcb 	bl	80241d0 <RBuf_Get_Free>
 802423a:	4284      	cmp	r4, r0
 802423c:	bf28      	it	cs
 802423e:	4604      	movcs	r4, r0
 8024240:	2c00      	cmp	r4, #0
 8024242:	d0e9      	beq.n	8024218 <RBuf_Write+0xc>
 8024244:	68f3      	ldr	r3, [r6, #12]
 8024246:	6875      	ldr	r5, [r6, #4]
 8024248:	9301      	str	r3, [sp, #4]
 802424a:	9b01      	ldr	r3, [sp, #4]
 802424c:	1aeb      	subs	r3, r5, r3
 802424e:	42a3      	cmp	r3, r4
 8024250:	d21e      	bcs.n	8024290 <RBuf_Write+0x84>
 8024252:	9b01      	ldr	r3, [sp, #4]
 8024254:	1aed      	subs	r5, r5, r3
 8024256:	9b01      	ldr	r3, [sp, #4]
 8024258:	462a      	mov	r2, r5
 802425a:	6830      	ldr	r0, [r6, #0]
 802425c:	4639      	mov	r1, r7
 802425e:	4418      	add	r0, r3
 8024260:	f005 fe52 	bl	8029f08 <memcpy>
 8024264:	9b01      	ldr	r3, [sp, #4]
 8024266:	ebb4 0805 	subs.w	r8, r4, r5
 802426a:	442b      	add	r3, r5
 802426c:	9301      	str	r3, [sp, #4]
 802426e:	d006      	beq.n	802427e <RBuf_Write+0x72>
 8024270:	4642      	mov	r2, r8
 8024272:	1979      	adds	r1, r7, r5
 8024274:	6830      	ldr	r0, [r6, #0]
 8024276:	f005 fe47 	bl	8029f08 <memcpy>
 802427a:	f8cd 8004 	str.w	r8, [sp, #4]
 802427e:	9b01      	ldr	r3, [sp, #4]
 8024280:	6872      	ldr	r2, [r6, #4]
 8024282:	429a      	cmp	r2, r3
 8024284:	d801      	bhi.n	802428a <RBuf_Write+0x7e>
 8024286:	2300      	movs	r3, #0
 8024288:	9301      	str	r3, [sp, #4]
 802428a:	9b01      	ldr	r3, [sp, #4]
 802428c:	60f3      	str	r3, [r6, #12]
 802428e:	e7c4      	b.n	802421a <RBuf_Write+0xe>
 8024290:	4625      	mov	r5, r4
 8024292:	e7e0      	b.n	8024256 <RBuf_Write+0x4a>

08024294 <RBuf_Get_Full>:
 8024294:	b082      	sub	sp, #8
 8024296:	b910      	cbnz	r0, 802429e <RBuf_Get_Full+0xa>
 8024298:	2000      	movs	r0, #0
 802429a:	b002      	add	sp, #8
 802429c:	4770      	bx	lr
 802429e:	6803      	ldr	r3, [r0, #0]
 80242a0:	2b00      	cmp	r3, #0
 80242a2:	d0f9      	beq.n	8024298 <RBuf_Get_Full+0x4>
 80242a4:	6843      	ldr	r3, [r0, #4]
 80242a6:	2b00      	cmp	r3, #0
 80242a8:	d0f6      	beq.n	8024298 <RBuf_Get_Full+0x4>
 80242aa:	68c2      	ldr	r2, [r0, #12]
 80242ac:	9200      	str	r2, [sp, #0]
 80242ae:	6882      	ldr	r2, [r0, #8]
 80242b0:	9201      	str	r2, [sp, #4]
 80242b2:	9900      	ldr	r1, [sp, #0]
 80242b4:	9a01      	ldr	r2, [sp, #4]
 80242b6:	4291      	cmp	r1, r2
 80242b8:	d0ee      	beq.n	8024298 <RBuf_Get_Full+0x4>
 80242ba:	9900      	ldr	r1, [sp, #0]
 80242bc:	9a01      	ldr	r2, [sp, #4]
 80242be:	9800      	ldr	r0, [sp, #0]
 80242c0:	4291      	cmp	r1, r2
 80242c2:	d902      	bls.n	80242ca <RBuf_Get_Full+0x36>
 80242c4:	9b01      	ldr	r3, [sp, #4]
 80242c6:	1ac0      	subs	r0, r0, r3
 80242c8:	e7e7      	b.n	802429a <RBuf_Get_Full+0x6>
 80242ca:	9a01      	ldr	r2, [sp, #4]
 80242cc:	1a80      	subs	r0, r0, r2
 80242ce:	4418      	add	r0, r3
 80242d0:	e7e3      	b.n	802429a <RBuf_Get_Full+0x6>

080242d2 <RBuf_Read>:
 80242d2:	e92d 41f3 	stmdb	sp!, {r0, r1, r4, r5, r6, r7, r8, lr}
 80242d6:	460f      	mov	r7, r1
 80242d8:	4614      	mov	r4, r2
 80242da:	4606      	mov	r6, r0
 80242dc:	b920      	cbnz	r0, 80242e8 <RBuf_Read+0x16>
 80242de:	2400      	movs	r4, #0
 80242e0:	4620      	mov	r0, r4
 80242e2:	b002      	add	sp, #8
 80242e4:	e8bd 81f0 	ldmia.w	sp!, {r4, r5, r6, r7, r8, pc}
 80242e8:	6803      	ldr	r3, [r0, #0]
 80242ea:	2b00      	cmp	r3, #0
 80242ec:	d0f7      	beq.n	80242de <RBuf_Read+0xc>
 80242ee:	6843      	ldr	r3, [r0, #4]
 80242f0:	2b00      	cmp	r3, #0
 80242f2:	d0f4      	beq.n	80242de <RBuf_Read+0xc>
 80242f4:	2900      	cmp	r1, #0
 80242f6:	d0f2      	beq.n	80242de <RBuf_Read+0xc>
 80242f8:	2a00      	cmp	r2, #0
 80242fa:	d0f0      	beq.n	80242de <RBuf_Read+0xc>
 80242fc:	f7ff ffca 	bl	8024294 <RBuf_Get_Full>
 8024300:	4284      	cmp	r4, r0
 8024302:	bf28      	it	cs
 8024304:	4604      	movcs	r4, r0
 8024306:	2c00      	cmp	r4, #0
 8024308:	d0e9      	beq.n	80242de <RBuf_Read+0xc>
 802430a:	68b3      	ldr	r3, [r6, #8]
 802430c:	6875      	ldr	r5, [r6, #4]
 802430e:	9301      	str	r3, [sp, #4]
 8024310:	9b01      	ldr	r3, [sp, #4]
 8024312:	1aeb      	subs	r3, r5, r3
 8024314:	42a3      	cmp	r3, r4
 8024316:	d21e      	bcs.n	8024356 <RBuf_Read+0x84>
 8024318:	9b01      	ldr	r3, [sp, #4]
 802431a:	1aed      	subs	r5, r5, r3
 802431c:	9b01      	ldr	r3, [sp, #4]
 802431e:	462a      	mov	r2, r5
 8024320:	6831      	ldr	r1, [r6, #0]
 8024322:	4638      	mov	r0, r7
 8024324:	4419      	add	r1, r3
 8024326:	f005 fdef 	bl	8029f08 <memcpy>
 802432a:	9b01      	ldr	r3, [sp, #4]
 802432c:	ebb4 0805 	subs.w	r8, r4, r5
 8024330:	442b      	add	r3, r5
 8024332:	9301      	str	r3, [sp, #4]
 8024334:	d006      	beq.n	8024344 <RBuf_Read+0x72>
 8024336:	4642      	mov	r2, r8
 8024338:	6831      	ldr	r1, [r6, #0]
 802433a:	1978      	adds	r0, r7, r5
 802433c:	f005 fde4 	bl	8029f08 <memcpy>
 8024340:	f8cd 8004 	str.w	r8, [sp, #4]
 8024344:	9b01      	ldr	r3, [sp, #4]
 8024346:	6872      	ldr	r2, [r6, #4]
 8024348:	429a      	cmp	r2, r3
 802434a:	d801      	bhi.n	8024350 <RBuf_Read+0x7e>
 802434c:	2300      	movs	r3, #0
 802434e:	9301      	str	r3, [sp, #4]
 8024350:	9b01      	ldr	r3, [sp, #4]
 8024352:	60b3      	str	r3, [r6, #8]
 8024354:	e7c4      	b.n	80242e0 <RBuf_Read+0xe>
 8024356:	4625      	mov	r5, r4
 8024358:	e7e0      	b.n	802431c <RBuf_Read+0x4a>
	...

0802435c <SF_RW_Byte>:
 802435c:	b57f      	push	{r0, r1, r2, r3, r4, r5, r6, lr}
 802435e:	2364      	movs	r3, #100	; 0x64
 8024360:	f88d 000f 	strb.w	r0, [sp, #15]
 8024364:	f10d 0217 	add.w	r2, sp, #23
 8024368:	f10d 010f 	add.w	r1, sp, #15
 802436c:	9300      	str	r3, [sp, #0]
 802436e:	2301      	movs	r3, #1
 8024370:	4803      	ldr	r0, [pc, #12]	; (8024380 <SF_RW_Byte+0x24>)
 8024372:	f004 fc83 	bl	8028c7c <HAL_SPI_TransmitReceive>
 8024376:	f89d 0017 	ldrb.w	r0, [sp, #23]
 802437a:	b007      	add	sp, #28
 802437c:	f85d fb04 	ldr.w	pc, [sp], #4
 8024380:	24001ae4 	.word	0x24001ae4

08024384 <SF_CommandAndReadN>:
 8024384:	b5f8      	push	{r3, r4, r5, r6, r7, lr}
 8024386:	4604      	mov	r4, r0
 8024388:	460e      	mov	r6, r1
 802438a:	480d      	ldr	r0, [pc, #52]	; (80243c0 <SF_CommandAndReadN+0x3c>)
 802438c:	2110      	movs	r1, #16
 802438e:	4615      	mov	r5, r2
 8024390:	2200      	movs	r2, #0
 8024392:	f002 fd0f 	bl	8026db4 <HAL_GPIO_WritePin>
 8024396:	4620      	mov	r0, r4
 8024398:	f7ff ffe0 	bl	802435c <SF_RW_Byte>
 802439c:	2300      	movs	r3, #0
 802439e:	b2dc      	uxtb	r4, r3
 80243a0:	1c5f      	adds	r7, r3, #1
 80243a2:	42ac      	cmp	r4, r5
 80243a4:	db06      	blt.n	80243b4 <SF_CommandAndReadN+0x30>
 80243a6:	2201      	movs	r2, #1
 80243a8:	2110      	movs	r1, #16
 80243aa:	4805      	ldr	r0, [pc, #20]	; (80243c0 <SF_CommandAndReadN+0x3c>)
 80243ac:	e8bd 40f8 	ldmia.w	sp!, {r3, r4, r5, r6, r7, lr}
 80243b0:	f002 bd00 	b.w	8026db4 <HAL_GPIO_WritePin>
 80243b4:	2000      	movs	r0, #0
 80243b6:	f7ff ffd1 	bl	802435c <SF_RW_Byte>
 80243ba:	463b      	mov	r3, r7
 80243bc:	5530      	strb	r0, [r6, r4]
 80243be:	e7ee      	b.n	802439e <SF_CommandAndReadN+0x1a>
 80243c0:	58020000 	.word	0x58020000

080243c4 <SF_EraseBlock4K>:
 80243c4:	b538      	push	{r3, r4, r5, lr}
 80243c6:	4d14      	ldr	r5, [pc, #80]	; (8024418 <SF_EraseBlock4K+0x54>)
 80243c8:	4604      	mov	r4, r0
 80243ca:	2200      	movs	r2, #0
 80243cc:	2110      	movs	r1, #16
 80243ce:	4628      	mov	r0, r5
 80243d0:	f002 fcf0 	bl	8026db4 <HAL_GPIO_WritePin>
 80243d4:	2020      	movs	r0, #32
 80243d6:	f7ff ffc1 	bl	802435c <SF_RW_Byte>
 80243da:	f44f 037f 	mov.w	r3, #16711680	; 0xff0000
 80243de:	fbb4 f0f3 	udiv	r0, r4, r3
 80243e2:	fb03 4010 	mls	r0, r3, r0, r4
 80243e6:	f3c0 4007 	ubfx	r0, r0, #16, #8
 80243ea:	f7ff ffb7 	bl	802435c <SF_RW_Byte>
 80243ee:	f44f 437f 	mov.w	r3, #65280	; 0xff00
 80243f2:	fbb4 f0f3 	udiv	r0, r4, r3
 80243f6:	fb03 4010 	mls	r0, r3, r0, r4
 80243fa:	f3c0 2007 	ubfx	r0, r0, #8, #8
 80243fe:	f7ff ffad 	bl	802435c <SF_RW_Byte>
 8024402:	b2e0      	uxtb	r0, r4
 8024404:	f7ff ffaa 	bl	802435c <SF_RW_Byte>
 8024408:	4628      	mov	r0, r5
 802440a:	2201      	movs	r2, #1
 802440c:	2110      	movs	r1, #16
 802440e:	e8bd 4038 	ldmia.w	sp!, {r3, r4, r5, lr}
 8024412:	f002 bccf 	b.w	8026db4 <HAL_GPIO_WritePin>
 8024416:	bf00      	nop
 8024418:	58020000 	.word	0x58020000

0802441c <SpiFlash_WriteEnable>:
 802441c:	b510      	push	{r4, lr}
 802441e:	4c08      	ldr	r4, [pc, #32]	; (8024440 <SpiFlash_WriteEnable+0x24>)
 8024420:	2200      	movs	r2, #0
 8024422:	2110      	movs	r1, #16
 8024424:	4620      	mov	r0, r4
 8024426:	f002 fcc5 	bl	8026db4 <HAL_GPIO_WritePin>
 802442a:	2006      	movs	r0, #6
 802442c:	f7ff ff96 	bl	802435c <SF_RW_Byte>
 8024430:	4620      	mov	r0, r4
 8024432:	2201      	movs	r2, #1
 8024434:	2110      	movs	r1, #16
 8024436:	e8bd 4010 	ldmia.w	sp!, {r4, lr}
 802443a:	f002 bcbb 	b.w	8026db4 <HAL_GPIO_WritePin>
 802443e:	bf00      	nop
 8024440:	58020000 	.word	0x58020000

08024444 <SpiFlash_WriteDisable>:
 8024444:	b510      	push	{r4, lr}
 8024446:	4c08      	ldr	r4, [pc, #32]	; (8024468 <SpiFlash_WriteDisable+0x24>)
 8024448:	2200      	movs	r2, #0
 802444a:	2110      	movs	r1, #16
 802444c:	4620      	mov	r0, r4
 802444e:	f002 fcb1 	bl	8026db4 <HAL_GPIO_WritePin>
 8024452:	2004      	movs	r0, #4
 8024454:	f7ff ff82 	bl	802435c <SF_RW_Byte>
 8024458:	4620      	mov	r0, r4
 802445a:	2201      	movs	r2, #1
 802445c:	2110      	movs	r1, #16
 802445e:	e8bd 4010 	ldmia.w	sp!, {r4, lr}
 8024462:	f002 bca7 	b.w	8026db4 <HAL_GPIO_WritePin>
 8024466:	bf00      	nop
 8024468:	58020000 	.word	0x58020000

0802446c <SpiFlash_GlobalUnprotectSector>:
 802446c:	b510      	push	{r4, lr}
 802446e:	4c09      	ldr	r4, [pc, #36]	; (8024494 <SpiFlash_GlobalUnprotectSector+0x28>)
 8024470:	2200      	movs	r2, #0
 8024472:	2110      	movs	r1, #16
 8024474:	4620      	mov	r0, r4
 8024476:	f002 fc9d 	bl	8026db4 <HAL_GPIO_WritePin>
 802447a:	2001      	movs	r0, #1
 802447c:	f7ff ff6e 	bl	802435c <SF_RW_Byte>
 8024480:	2000      	movs	r0, #0
 8024482:	f7ff ff6b 	bl	802435c <SF_RW_Byte>
 8024486:	4620      	mov	r0, r4
 8024488:	2201      	movs	r2, #1
 802448a:	2110      	movs	r1, #16
 802448c:	e8bd 4010 	ldmia.w	sp!, {r4, lr}
 8024490:	f002 bc90 	b.w	8026db4 <HAL_GPIO_WritePin>
 8024494:	58020000 	.word	0x58020000

08024498 <SpiFlash_ReadStatusRegister>:
 8024498:	b570      	push	{r4, r5, r6, lr}
 802449a:	4e0d      	ldr	r6, [pc, #52]	; (80244d0 <SpiFlash_ReadStatusRegister+0x38>)
 802449c:	2200      	movs	r2, #0
 802449e:	2110      	movs	r1, #16
 80244a0:	4630      	mov	r0, r6
 80244a2:	f002 fc87 	bl	8026db4 <HAL_GPIO_WritePin>
 80244a6:	2005      	movs	r0, #5
 80244a8:	f7ff ff58 	bl	802435c <SF_RW_Byte>
 80244ac:	20ff      	movs	r0, #255	; 0xff
 80244ae:	f7ff ff55 	bl	802435c <SF_RW_Byte>
 80244b2:	4604      	mov	r4, r0
 80244b4:	20ff      	movs	r0, #255	; 0xff
 80244b6:	f7ff ff51 	bl	802435c <SF_RW_Byte>
 80244ba:	4605      	mov	r5, r0
 80244bc:	2201      	movs	r2, #1
 80244be:	4630      	mov	r0, r6
 80244c0:	2110      	movs	r1, #16
 80244c2:	f002 fc77 	bl	8026db4 <HAL_GPIO_WritePin>
 80244c6:	ea44 2005 	orr.w	r0, r4, r5, lsl #8
 80244ca:	b280      	uxth	r0, r0
 80244cc:	bd70      	pop	{r4, r5, r6, pc}
 80244ce:	bf00      	nop
 80244d0:	58020000 	.word	0x58020000

080244d4 <SpiFlash_Ready>:
 80244d4:	b537      	push	{r0, r1, r2, r4, r5, lr}
 80244d6:	4605      	mov	r5, r0
 80244d8:	f000 f9e2 	bl	80248a0 <bsp_GetTickCount>
 80244dc:	2200      	movs	r2, #0
 80244de:	9001      	str	r0, [sp, #4]
 80244e0:	2110      	movs	r1, #16
 80244e2:	480e      	ldr	r0, [pc, #56]	; (802451c <SpiFlash_Ready+0x48>)
 80244e4:	f002 fc66 	bl	8026db4 <HAL_GPIO_WritePin>
 80244e8:	2005      	movs	r0, #5
 80244ea:	f7ff ff37 	bl	802435c <SF_RW_Byte>
 80244ee:	20ff      	movs	r0, #255	; 0xff
 80244f0:	f7ff ff34 	bl	802435c <SF_RW_Byte>
 80244f4:	f010 0401 	ands.w	r4, r0, #1
 80244f8:	d006      	beq.n	8024508 <SpiFlash_Ready+0x34>
 80244fa:	4629      	mov	r1, r5
 80244fc:	a801      	add	r0, sp, #4
 80244fe:	f000 fa3d 	bl	802497c <IsTimeoutMs>
 8024502:	2800      	cmp	r0, #0
 8024504:	d0f3      	beq.n	80244ee <SpiFlash_Ready+0x1a>
 8024506:	2401      	movs	r4, #1
 8024508:	2201      	movs	r2, #1
 802450a:	2110      	movs	r1, #16
 802450c:	4803      	ldr	r0, [pc, #12]	; (802451c <SpiFlash_Ready+0x48>)
 802450e:	f002 fc51 	bl	8026db4 <HAL_GPIO_WritePin>
 8024512:	f084 0001 	eor.w	r0, r4, #1
 8024516:	b003      	add	sp, #12
 8024518:	bd30      	pop	{r4, r5, pc}
 802451a:	bf00      	nop
 802451c:	58020000 	.word	0x58020000

08024520 <SpiFlash_WaitSameStatus>:
 8024520:	b510      	push	{r4, lr}
 8024522:	4604      	mov	r4, r0
 8024524:	f7ff ffb8 	bl	8024498 <SpiFlash_ReadStatusRegister>
 8024528:	42a0      	cmp	r0, r4
 802452a:	d1fb      	bne.n	8024524 <SpiFlash_WaitSameStatus+0x4>
 802452c:	bd10      	pop	{r4, pc}
	...

08024530 <SpiFlash_ReadInfo>:
 8024530:	b513      	push	{r0, r1, r4, lr}
 8024532:	2203      	movs	r2, #3
 8024534:	a901      	add	r1, sp, #4
 8024536:	209f      	movs	r0, #159	; 0x9f
 8024538:	f7ff ff24 	bl	8024384 <SF_CommandAndReadN>
 802453c:	f89d 4005 	ldrb.w	r4, [sp, #5]
 8024540:	f89d 1004 	ldrb.w	r1, [sp, #4]
 8024544:	0224      	lsls	r4, r4, #8
 8024546:	4807      	ldr	r0, [pc, #28]	; (8024564 <SpiFlash_ReadInfo+0x34>)
 8024548:	ea44 4401 	orr.w	r4, r4, r1, lsl #16
 802454c:	f89d 1006 	ldrb.w	r1, [sp, #6]
 8024550:	430c      	orrs	r4, r1
 8024552:	4621      	mov	r1, r4
 8024554:	f005 fdce 	bl	802a0f4 <iprintf>
 8024558:	4b03      	ldr	r3, [pc, #12]	; (8024568 <SpiFlash_ReadInfo+0x38>)
 802455a:	4620      	mov	r0, r4
 802455c:	601c      	str	r4, [r3, #0]
 802455e:	b002      	add	sp, #8
 8024560:	bd10      	pop	{r4, pc}
 8024562:	bf00      	nop
 8024564:	0802bd42 	.word	0x0802bd42
 8024568:	240019b4 	.word	0x240019b4

0802456c <SpiFlash_Init>:
 802456c:	b508      	push	{r3, lr}
 802456e:	f7ff ff55 	bl	802441c <SpiFlash_WriteEnable>
 8024572:	f7ff ff7b 	bl	802446c <SpiFlash_GlobalUnprotectSector>
 8024576:	2005      	movs	r0, #5
 8024578:	f7ff ffac 	bl	80244d4 <SpiFlash_Ready>
 802457c:	f7ff ffd8 	bl	8024530 <SpiFlash_ReadInfo>
 8024580:	4b06      	ldr	r3, [pc, #24]	; (802459c <SpiFlash_Init+0x30>)
 8024582:	4298      	cmp	r0, r3
 8024584:	d104      	bne.n	8024590 <SpiFlash_Init+0x24>
 8024586:	4806      	ldr	r0, [pc, #24]	; (80245a0 <SpiFlash_Init+0x34>)
 8024588:	f005 fe3a 	bl	802a200 <puts>
 802458c:	2001      	movs	r0, #1
 802458e:	bd08      	pop	{r3, pc}
 8024590:	4804      	ldr	r0, [pc, #16]	; (80245a4 <SpiFlash_Init+0x38>)
 8024592:	f005 fe35 	bl	802a200 <puts>
 8024596:	2000      	movs	r0, #0
 8024598:	e7f9      	b.n	802458e <SpiFlash_Init+0x22>
 802459a:	bf00      	nop
 802459c:	001f4800 	.word	0x001f4800
 80245a0:	0802bd56 	.word	0x0802bd56
 80245a4:	0802bd6a 	.word	0x0802bd6a

080245a8 <SpiFlash_EraseBlock4K>:
 80245a8:	b510      	push	{r4, lr}
 80245aa:	4604      	mov	r4, r0
 80245ac:	f7ff ff36 	bl	802441c <SpiFlash_WriteEnable>
 80245b0:	2012      	movs	r0, #18
 80245b2:	f7ff ffb5 	bl	8024520 <SpiFlash_WaitSameStatus>
 80245b6:	4620      	mov	r0, r4
 80245b8:	f7ff ff04 	bl	80243c4 <SF_EraseBlock4K>
 80245bc:	2010      	movs	r0, #16
 80245be:	f7ff ffaf 	bl	8024520 <SpiFlash_WaitSameStatus>
 80245c2:	f7ff ff3f 	bl	8024444 <SpiFlash_WriteDisable>
 80245c6:	4621      	mov	r1, r4
 80245c8:	4802      	ldr	r0, [pc, #8]	; (80245d4 <SpiFlash_EraseBlock4K+0x2c>)
 80245ca:	e8bd 4010 	ldmia.w	sp!, {r4, lr}
 80245ce:	f005 bd91 	b.w	802a0f4 <iprintf>
 80245d2:	bf00      	nop
 80245d4:	0802bd80 	.word	0x0802bd80

080245d8 <bsp_InitSpiFlash>:
 80245d8:	b510      	push	{r4, lr}
 80245da:	2201      	movs	r2, #1
 80245dc:	2110      	movs	r1, #16
 80245de:	4818      	ldr	r0, [pc, #96]	; (8024640 <bsp_InitSpiFlash+0x68>)
 80245e0:	2400      	movs	r4, #0
 80245e2:	f002 fbe7 	bl	8026db4 <HAL_GPIO_WritePin>
 80245e6:	4817      	ldr	r0, [pc, #92]	; (8024644 <bsp_InitSpiFlash+0x6c>)
 80245e8:	f44f 0380 	mov.w	r3, #4194304	; 0x400000
 80245ec:	4a16      	ldr	r2, [pc, #88]	; (8024648 <bsp_InitSpiFlash+0x70>)
 80245ee:	f04f 6180 	mov.w	r1, #67108864	; 0x4000000
 80245f2:	f04f 0c02 	mov.w	ip, #2
 80245f6:	6444      	str	r4, [r0, #68]	; 0x44
 80245f8:	6584      	str	r4, [r0, #88]	; 0x58
 80245fa:	e9c0 2300 	strd	r2, r3, [r0]
 80245fe:	2307      	movs	r3, #7
 8024600:	e9c0 4302 	strd	r4, r3, [r0, #8]
 8024604:	f04f 4380 	mov.w	r3, #1073741824	; 0x40000000
 8024608:	e9c0 1306 	strd	r1, r3, [r0, #24]
 802460c:	2320      	movs	r3, #32
 802460e:	e9c0 c312 	strd	ip, r3, [r0, #72]	; 0x48
 8024612:	f44f 7380 	mov.w	r3, #256	; 0x100
 8024616:	e9c0 4404 	strd	r4, r4, [r0, #16]
 802461a:	e9c0 4408 	strd	r4, r4, [r0, #32]
 802461e:	e9c0 440a 	strd	r4, r4, [r0, #40]	; 0x28
 8024622:	e9c0 440d 	strd	r4, r4, [r0, #52]	; 0x34
 8024626:	e9c0 440f 	strd	r4, r4, [r0, #60]	; 0x3c
 802462a:	e9c0 3414 	strd	r3, r4, [r0, #80]	; 0x50
 802462e:	f004 f877 	bl	8028720 <HAL_SPI_Init>
 8024632:	b918      	cbnz	r0, 802463c <bsp_InitSpiFlash+0x64>
 8024634:	e8bd 4010 	ldmia.w	sp!, {r4, lr}
 8024638:	f7ff bf98 	b.w	802456c <SpiFlash_Init>
 802463c:	4620      	mov	r0, r4
 802463e:	bd10      	pop	{r4, pc}
 8024640:	58020000 	.word	0x58020000
 8024644:	24001ae4 	.word	0x24001ae4
 8024648:	40013000 	.word	0x40013000

0802464c <SpiFlash_ReadPage>:
 802464c:	b5f8      	push	{r3, r4, r5, r6, r7, lr}
 802464e:	f010 07ff 	ands.w	r7, r0, #255	; 0xff
 8024652:	4604      	mov	r4, r0
 8024654:	4615      	mov	r5, r2
 8024656:	460e      	mov	r6, r1
 8024658:	f04f 0200 	mov.w	r2, #0
 802465c:	f04f 0110 	mov.w	r1, #16
 8024660:	4810      	ldr	r0, [pc, #64]	; (80246a4 <SpiFlash_ReadPage+0x58>)
 8024662:	bf18      	it	ne
 8024664:	f5c7 7580 	rsbne	r5, r7, #256	; 0x100
 8024668:	f002 fba4 	bl	8026db4 <HAL_GPIO_WritePin>
 802466c:	2003      	movs	r0, #3
 802466e:	f7ff fe75 	bl	802435c <SF_RW_Byte>
 8024672:	f3c4 4007 	ubfx	r0, r4, #16, #8
 8024676:	f7ff fe71 	bl	802435c <SF_RW_Byte>
 802467a:	f3c4 2007 	ubfx	r0, r4, #8, #8
 802467e:	f7ff fe6d 	bl	802435c <SF_RW_Byte>
 8024682:	4638      	mov	r0, r7
 8024684:	f7ff fe6a 	bl	802435c <SF_RW_Byte>
 8024688:	4631      	mov	r1, r6
 802468a:	b2aa      	uxth	r2, r5
 802468c:	2364      	movs	r3, #100	; 0x64
 802468e:	4806      	ldr	r0, [pc, #24]	; (80246a8 <SpiFlash_ReadPage+0x5c>)
 8024690:	f004 fa13 	bl	8028aba <HAL_SPI_Receive>
 8024694:	2201      	movs	r2, #1
 8024696:	2110      	movs	r1, #16
 8024698:	4802      	ldr	r0, [pc, #8]	; (80246a4 <SpiFlash_ReadPage+0x58>)
 802469a:	e8bd 40f8 	ldmia.w	sp!, {r3, r4, r5, r6, r7, lr}
 802469e:	f002 bb89 	b.w	8026db4 <HAL_GPIO_WritePin>
 80246a2:	bf00      	nop
 80246a4:	58020000 	.word	0x58020000
 80246a8:	24001ae4 	.word	0x24001ae4

080246ac <SpiFlash_ReadBuffer>:
 80246ac:	1883      	adds	r3, r0, r2
 80246ae:	f5b3 0f00 	cmp.w	r3, #8388608	; 0x800000
 80246b2:	e92d 41f0 	stmdb	sp!, {r4, r5, r6, r7, r8, lr}
 80246b6:	4606      	mov	r6, r0
 80246b8:	460f      	mov	r7, r1
 80246ba:	4614      	mov	r4, r2
 80246bc:	d908      	bls.n	80246d0 <SpiFlash_ReadBuffer+0x24>
 80246be:	f04f 38ff 	mov.w	r8, #4294967295
 80246c2:	4601      	mov	r1, r0
 80246c4:	480c      	ldr	r0, [pc, #48]	; (80246f8 <SpiFlash_ReadBuffer+0x4c>)
 80246c6:	f005 fd15 	bl	802a0f4 <iprintf>
 80246ca:	4640      	mov	r0, r8
 80246cc:	e8bd 81f0 	ldmia.w	sp!, {r4, r5, r6, r7, r8, pc}
 80246d0:	f04f 0800 	mov.w	r8, #0
 80246d4:	2c00      	cmp	r4, #0
 80246d6:	ddf8      	ble.n	80246ca <SpiFlash_ReadBuffer+0x1e>
 80246d8:	b2f5      	uxtb	r5, r6
 80246da:	4639      	mov	r1, r7
 80246dc:	4630      	mov	r0, r6
 80246de:	f5c5 7580 	rsb	r5, r5, #256	; 0x100
 80246e2:	42a5      	cmp	r5, r4
 80246e4:	bf28      	it	cs
 80246e6:	4625      	movcs	r5, r4
 80246e8:	462a      	mov	r2, r5
 80246ea:	442e      	add	r6, r5
 80246ec:	1b64      	subs	r4, r4, r5
 80246ee:	442f      	add	r7, r5
 80246f0:	44a8      	add	r8, r5
 80246f2:	f7ff ffab 	bl	802464c <SpiFlash_ReadPage>
 80246f6:	e7ed      	b.n	80246d4 <SpiFlash_ReadBuffer+0x28>
 80246f8:	0802bda8 	.word	0x0802bda8

080246fc <SpiFlash_WritePage>:
 80246fc:	b5f8      	push	{r3, r4, r5, r6, r7, lr}
 80246fe:	f010 07ff 	ands.w	r7, r0, #255	; 0xff
 8024702:	4615      	mov	r5, r2
 8024704:	4604      	mov	r4, r0
 8024706:	460e      	mov	r6, r1
 8024708:	bf18      	it	ne
 802470a:	f5c7 7580 	rsbne	r5, r7, #256	; 0x100
 802470e:	f7ff fe85 	bl	802441c <SpiFlash_WriteEnable>
 8024712:	2012      	movs	r0, #18
 8024714:	f7ff ff04 	bl	8024520 <SpiFlash_WaitSameStatus>
 8024718:	2200      	movs	r2, #0
 802471a:	2110      	movs	r1, #16
 802471c:	4811      	ldr	r0, [pc, #68]	; (8024764 <SpiFlash_WritePage+0x68>)
 802471e:	f002 fb49 	bl	8026db4 <HAL_GPIO_WritePin>
 8024722:	2002      	movs	r0, #2
 8024724:	f7ff fe1a 	bl	802435c <SF_RW_Byte>
 8024728:	f3c4 4007 	ubfx	r0, r4, #16, #8
 802472c:	f7ff fe16 	bl	802435c <SF_RW_Byte>
 8024730:	f3c4 2007 	ubfx	r0, r4, #8, #8
 8024734:	f7ff fe12 	bl	802435c <SF_RW_Byte>
 8024738:	4638      	mov	r0, r7
 802473a:	f7ff fe0f 	bl	802435c <SF_RW_Byte>
 802473e:	2364      	movs	r3, #100	; 0x64
 8024740:	b2aa      	uxth	r2, r5
 8024742:	4631      	mov	r1, r6
 8024744:	4808      	ldr	r0, [pc, #32]	; (8024768 <SpiFlash_WritePage+0x6c>)
 8024746:	f004 f88f 	bl	8028868 <HAL_SPI_Transmit>
 802474a:	2201      	movs	r2, #1
 802474c:	2110      	movs	r1, #16
 802474e:	4805      	ldr	r0, [pc, #20]	; (8024764 <SpiFlash_WritePage+0x68>)
 8024750:	f002 fb30 	bl	8026db4 <HAL_GPIO_WritePin>
 8024754:	2010      	movs	r0, #16
 8024756:	f7ff fee3 	bl	8024520 <SpiFlash_WaitSameStatus>
 802475a:	e8bd 40f8 	ldmia.w	sp!, {r3, r4, r5, r6, r7, lr}
 802475e:	f7ff be71 	b.w	8024444 <SpiFlash_WriteDisable>
 8024762:	bf00      	nop
 8024764:	58020000 	.word	0x58020000
 8024768:	24001ae4 	.word	0x24001ae4

0802476c <SpiFlash_WriteBuffer>:
 802476c:	e92d 43f8 	stmdb	sp!, {r3, r4, r5, r6, r7, r8, r9, lr}
 8024770:	1883      	adds	r3, r0, r2
 8024772:	4604      	mov	r4, r0
 8024774:	460f      	mov	r7, r1
 8024776:	4616      	mov	r6, r2
 8024778:	f5b3 0f00 	cmp.w	r3, #8388608	; 0x800000
 802477c:	d905      	bls.n	802478a <SpiFlash_WriteBuffer+0x1e>
 802477e:	4601      	mov	r1, r0
 8024780:	481b      	ldr	r0, [pc, #108]	; (80247f0 <SpiFlash_WriteBuffer+0x84>)
 8024782:	f005 fcb7 	bl	802a0f4 <iprintf>
 8024786:	2000      	movs	r0, #0
 8024788:	e006      	b.n	8024798 <SpiFlash_WriteBuffer+0x2c>
 802478a:	f04f 0800 	mov.w	r8, #0
 802478e:	f8df 9064 	ldr.w	r9, [pc, #100]	; 80247f4 <SpiFlash_WriteBuffer+0x88>
 8024792:	2e00      	cmp	r6, #0
 8024794:	dc02      	bgt.n	802479c <SpiFlash_WriteBuffer+0x30>
 8024796:	2001      	movs	r0, #1
 8024798:	e8bd 83f8 	ldmia.w	sp!, {r3, r4, r5, r6, r7, r8, r9, pc}
 802479c:	f3c4 030b 	ubfx	r3, r4, #0, #12
 80247a0:	b913      	cbnz	r3, 80247a8 <SpiFlash_WriteBuffer+0x3c>
 80247a2:	4620      	mov	r0, r4
 80247a4:	f7ff ff00 	bl	80245a8 <SpiFlash_EraseBlock4K>
 80247a8:	b2e5      	uxtb	r5, r4
 80247aa:	4639      	mov	r1, r7
 80247ac:	4620      	mov	r0, r4
 80247ae:	f5c5 7580 	rsb	r5, r5, #256	; 0x100
 80247b2:	42b5      	cmp	r5, r6
 80247b4:	bf28      	it	cs
 80247b6:	4635      	movcs	r5, r6
 80247b8:	462a      	mov	r2, r5
 80247ba:	f7ff ff9f 	bl	80246fc <SpiFlash_WritePage>
 80247be:	462a      	mov	r2, r5
 80247c0:	4649      	mov	r1, r9
 80247c2:	4620      	mov	r0, r4
 80247c4:	f7ff ff42 	bl	802464c <SpiFlash_ReadPage>
 80247c8:	462a      	mov	r2, r5
 80247ca:	4649      	mov	r1, r9
 80247cc:	4638      	mov	r0, r7
 80247ce:	f005 fb8b 	bl	8029ee8 <memcmp>
 80247d2:	b140      	cbz	r0, 80247e6 <SpiFlash_WriteBuffer+0x7a>
 80247d4:	f108 0801 	add.w	r8, r8, #1
 80247d8:	f1b8 0f03 	cmp.w	r8, #3
 80247dc:	d8d3      	bhi.n	8024786 <SpiFlash_WriteBuffer+0x1a>
 80247de:	2002      	movs	r0, #2
 80247e0:	f001 ffd8 	bl	8026794 <HAL_Delay>
 80247e4:	e7d5      	b.n	8024792 <SpiFlash_WriteBuffer+0x26>
 80247e6:	442c      	add	r4, r5
 80247e8:	442f      	add	r7, r5
 80247ea:	1b76      	subs	r6, r6, r5
 80247ec:	4680      	mov	r8, r0
 80247ee:	e7d0      	b.n	8024792 <SpiFlash_WriteBuffer+0x26>
 80247f0:	0802bdd5 	.word	0x0802bdd5
 80247f4:	240019b8 	.word	0x240019b8

080247f8 <Test_SpiFlash_Write>:
 80247f8:	b530      	push	{r4, r5, lr}
 80247fa:	f5ad 5d80 	sub.w	sp, sp, #4096	; 0x1000
 80247fe:	4604      	mov	r4, r0
 8024800:	4d0e      	ldr	r5, [pc, #56]	; (802483c <Test_SpiFlash_Write+0x44>)
 8024802:	f44f 5280 	mov.w	r2, #4096	; 0x1000
 8024806:	b081      	sub	sp, #4
 8024808:	01a4      	lsls	r4, r4, #6
 802480a:	2107      	movs	r1, #7
 802480c:	4668      	mov	r0, sp
 802480e:	f005 fb89 	bl	8029f24 <memset>
 8024812:	602c      	str	r4, [r5, #0]
 8024814:	2440      	movs	r4, #64	; 0x40
 8024816:	f44f 5280 	mov.w	r2, #4096	; 0x1000
 802481a:	4669      	mov	r1, sp
 802481c:	6828      	ldr	r0, [r5, #0]
 802481e:	f7ff ffa5 	bl	802476c <SpiFlash_WriteBuffer>
 8024822:	682b      	ldr	r3, [r5, #0]
 8024824:	3c01      	subs	r4, #1
 8024826:	f503 5380 	add.w	r3, r3, #4096	; 0x1000
 802482a:	602b      	str	r3, [r5, #0]
 802482c:	d1f3      	bne.n	8024816 <Test_SpiFlash_Write+0x1e>
 802482e:	2064      	movs	r0, #100	; 0x64
 8024830:	f7ff fe50 	bl	80244d4 <SpiFlash_Ready>
 8024834:	f50d 5d80 	add.w	sp, sp, #4096	; 0x1000
 8024838:	b001      	add	sp, #4
 802483a:	bd30      	pop	{r4, r5, pc}
 802483c:	240019b0 	.word	0x240019b0

08024840 <Test_SpiFlash_Read>:
 8024840:	b570      	push	{r4, r5, r6, lr}
 8024842:	f44f 5280 	mov.w	r2, #4096	; 0x1000
 8024846:	f5ad 5d00 	sub.w	sp, sp, #8192	; 0x2000
 802484a:	4604      	mov	r4, r0
 802484c:	2107      	movs	r1, #7
 802484e:	eb0d 0002 	add.w	r0, sp, r2
 8024852:	4e0f      	ldr	r6, [pc, #60]	; (8024890 <Test_SpiFlash_Read+0x50>)
 8024854:	f005 fb66 	bl	8029f24 <memset>
 8024858:	2540      	movs	r5, #64	; 0x40
 802485a:	01a3      	lsls	r3, r4, #6
 802485c:	6033      	str	r3, [r6, #0]
 802485e:	f44f 5280 	mov.w	r2, #4096	; 0x1000
 8024862:	4669      	mov	r1, sp
 8024864:	6830      	ldr	r0, [r6, #0]
 8024866:	f7ff ff21 	bl	80246ac <SpiFlash_ReadBuffer>
 802486a:	f44f 5280 	mov.w	r2, #4096	; 0x1000
 802486e:	4669      	mov	r1, sp
 8024870:	eb0d 0002 	add.w	r0, sp, r2
 8024874:	f005 fb38 	bl	8029ee8 <memcmp>
 8024878:	b930      	cbnz	r0, 8024888 <Test_SpiFlash_Read+0x48>
 802487a:	6833      	ldr	r3, [r6, #0]
 802487c:	3d01      	subs	r5, #1
 802487e:	f503 5380 	add.w	r3, r3, #4096	; 0x1000
 8024882:	6033      	str	r3, [r6, #0]
 8024884:	d1eb      	bne.n	802485e <Test_SpiFlash_Read+0x1e>
 8024886:	462c      	mov	r4, r5
 8024888:	4620      	mov	r0, r4
 802488a:	f50d 5d00 	add.w	sp, sp, #8192	; 0x2000
 802488e:	bd70      	pop	{r4, r5, r6, pc}
 8024890:	240019b0 	.word	0x240019b0

08024894 <bsp_InitTimer>:
 8024894:	4801      	ldr	r0, [pc, #4]	; (802489c <bsp_InitTimer+0x8>)
 8024896:	f004 bc7f 	b.w	8029198 <HAL_TIM_Base_Start_IT>
 802489a:	bf00      	nop
 802489c:	24001c04 	.word	0x24001c04

080248a0 <bsp_GetTickCount>:
 80248a0:	4b01      	ldr	r3, [pc, #4]	; (80248a8 <bsp_GetTickCount+0x8>)
 80248a2:	6818      	ldr	r0, [r3, #0]
 80248a4:	4770      	bx	lr
 80248a6:	bf00      	nop
 80248a8:	24001ac0 	.word	0x24001ac0

080248ac <bsp_TimCallback>:
 80248ac:	4a25      	ldr	r2, [pc, #148]	; (8024944 <bsp_TimCallback+0x98>)
 80248ae:	b538      	push	{r3, r4, r5, lr}
 80248b0:	6813      	ldr	r3, [r2, #0]
 80248b2:	4c25      	ldr	r4, [pc, #148]	; (8024948 <bsp_TimCallback+0x9c>)
 80248b4:	3301      	adds	r3, #1
 80248b6:	6013      	str	r3, [r2, #0]
 80248b8:	e9d4 2300 	ldrd	r2, r3, [r4]
 80248bc:	1c50      	adds	r0, r2, #1
 80248be:	f143 0100 	adc.w	r1, r3, #0
 80248c2:	4b22      	ldr	r3, [pc, #136]	; (802494c <bsp_TimCallback+0xa0>)
 80248c4:	681b      	ldr	r3, [r3, #0]
 80248c6:	e9c4 0100 	strd	r0, r1, [r4]
 80248ca:	b103      	cbz	r3, 80248ce <bsp_TimCallback+0x22>
 80248cc:	4798      	blx	r3
 80248ce:	4c20      	ldr	r4, [pc, #128]	; (8024950 <bsp_TimCallback+0xa4>)
 80248d0:	4d20      	ldr	r5, [pc, #128]	; (8024954 <bsp_TimCallback+0xa8>)
 80248d2:	8823      	ldrh	r3, [r4, #0]
 80248d4:	682a      	ldr	r2, [r5, #0]
 80248d6:	3301      	adds	r3, #1
 80248d8:	3201      	adds	r2, #1
 80248da:	b29b      	uxth	r3, r3
 80248dc:	602a      	str	r2, [r5, #0]
 80248de:	220a      	movs	r2, #10
 80248e0:	8023      	strh	r3, [r4, #0]
 80248e2:	fbb3 f1f2 	udiv	r1, r3, r2
 80248e6:	fb02 3311 	mls	r3, r2, r1, r3
 80248ea:	b29b      	uxth	r3, r3
 80248ec:	b91b      	cbnz	r3, 80248f6 <bsp_TimCallback+0x4a>
 80248ee:	4b1a      	ldr	r3, [pc, #104]	; (8024958 <bsp_TimCallback+0xac>)
 80248f0:	681b      	ldr	r3, [r3, #0]
 80248f2:	b103      	cbz	r3, 80248f6 <bsp_TimCallback+0x4a>
 80248f4:	4798      	blx	r3
 80248f6:	8823      	ldrh	r3, [r4, #0]
 80248f8:	f44f 72fa 	mov.w	r2, #500	; 0x1f4
 80248fc:	fbb3 f1f2 	udiv	r1, r3, r2
 8024900:	fb02 3311 	mls	r3, r2, r1, r3
 8024904:	b29b      	uxth	r3, r3
 8024906:	b91b      	cbnz	r3, 8024910 <bsp_TimCallback+0x64>
 8024908:	2104      	movs	r1, #4
 802490a:	4814      	ldr	r0, [pc, #80]	; (802495c <bsp_TimCallback+0xb0>)
 802490c:	f002 fa57 	bl	8026dbe <HAL_GPIO_TogglePin>
 8024910:	8823      	ldrh	r3, [r4, #0]
 8024912:	f5b3 7f7a 	cmp.w	r3, #1000	; 0x3e8
 8024916:	d30d      	bcc.n	8024934 <bsp_TimCallback+0x88>
 8024918:	2300      	movs	r3, #0
 802491a:	8023      	strh	r3, [r4, #0]
 802491c:	4c10      	ldr	r4, [pc, #64]	; (8024960 <bsp_TimCallback+0xb4>)
 802491e:	e9d4 2300 	ldrd	r2, r3, [r4]
 8024922:	1c50      	adds	r0, r2, #1
 8024924:	f143 0100 	adc.w	r1, r3, #0
 8024928:	4b0e      	ldr	r3, [pc, #56]	; (8024964 <bsp_TimCallback+0xb8>)
 802492a:	681b      	ldr	r3, [r3, #0]
 802492c:	e9c4 0100 	strd	r0, r1, [r4]
 8024930:	b103      	cbz	r3, 8024934 <bsp_TimCallback+0x88>
 8024932:	4798      	blx	r3
 8024934:	f241 3387 	movw	r3, #4999	; 0x1387
 8024938:	682a      	ldr	r2, [r5, #0]
 802493a:	429a      	cmp	r2, r3
 802493c:	bf84      	itt	hi
 802493e:	2300      	movhi	r3, #0
 8024940:	602b      	strhi	r3, [r5, #0]
 8024942:	bd38      	pop	{r3, r4, r5, pc}
 8024944:	24001ac0 	.word	0x24001ac0
 8024948:	24001ac8 	.word	0x24001ac8
 802494c:	24001ae0 	.word	0x24001ae0
 8024950:	24001ad4 	.word	0x24001ad4
 8024954:	24001ad0 	.word	0x24001ad0
 8024958:	24001ad8 	.word	0x24001ad8
 802495c:	58020c00 	.word	0x58020c00
 8024960:	24001ab8 	.word	0x24001ab8
 8024964:	24001adc 	.word	0x24001adc

08024968 <HAL_TIM_PeriodElapsedCallback>:
 8024968:	4b03      	ldr	r3, [pc, #12]	; (8024978 <HAL_TIM_PeriodElapsedCallback+0x10>)
 802496a:	6802      	ldr	r2, [r0, #0]
 802496c:	681b      	ldr	r3, [r3, #0]
 802496e:	429a      	cmp	r2, r3
 8024970:	d101      	bne.n	8024976 <HAL_TIM_PeriodElapsedCallback+0xe>
 8024972:	f7ff bf9b 	b.w	80248ac <bsp_TimCallback>
 8024976:	4770      	bx	lr
 8024978:	24001c04 	.word	0x24001c04

0802497c <IsTimeoutMs>:
 802497c:	1c4b      	adds	r3, r1, #1
 802497e:	d009      	beq.n	8024994 <IsTimeoutMs+0x18>
 8024980:	4b05      	ldr	r3, [pc, #20]	; (8024998 <IsTimeoutMs+0x1c>)
 8024982:	681b      	ldr	r3, [r3, #0]
 8024984:	b911      	cbnz	r1, 802498c <IsTimeoutMs+0x10>
 8024986:	6003      	str	r3, [r0, #0]
 8024988:	2001      	movs	r0, #1
 802498a:	4770      	bx	lr
 802498c:	6802      	ldr	r2, [r0, #0]
 802498e:	1a9a      	subs	r2, r3, r2
 8024990:	4291      	cmp	r1, r2
 8024992:	d9f8      	bls.n	8024986 <IsTimeoutMs+0xa>
 8024994:	2000      	movs	r0, #0
 8024996:	4770      	bx	lr
 8024998:	24001ac0 	.word	0x24001ac0

0802499c <bsp_InitUart>:
 802499c:	f7ff bad2 	b.w	8023f44 <bsp_InitIUart>

080249a0 <Uart_SendByte>:
 80249a0:	2804      	cmp	r0, #4
 80249a2:	d801      	bhi.n	80249a8 <Uart_SendByte+0x8>
 80249a4:	f7ff bb2c 	b.w	8024000 <IUart_SendByte>
 80249a8:	f04f 30ff 	mov.w	r0, #4294967295
 80249ac:	4770      	bx	lr

080249ae <Uart_SendBuffer>:
 80249ae:	2804      	cmp	r0, #4
 80249b0:	d801      	bhi.n	80249b6 <Uart_SendBuffer+0x8>
 80249b2:	f7ff bb39 	b.w	8024028 <IUart_SendBuffer>
 80249b6:	f04f 30ff 	mov.w	r0, #4294967295
 80249ba:	4770      	bx	lr

080249bc <__io_getchar>:
 80249bc:	b513      	push	{r0, r1, r4, lr}
 80249be:	2000      	movs	r0, #0
 80249c0:	f7ff fb84 	bl	80240cc <IUart_RecvByteBlocked>
 80249c4:	2300      	movs	r3, #0
 80249c6:	b2c4      	uxtb	r4, r0
 80249c8:	9301      	str	r3, [sp, #4]
 80249ca:	2c0d      	cmp	r4, #13
 80249cc:	d010      	beq.n	80249f0 <__io_getchar+0x34>
 80249ce:	dc07      	bgt.n	80249e0 <__io_getchar+0x24>
 80249d0:	2c08      	cmp	r4, #8
 80249d2:	d007      	beq.n	80249e4 <__io_getchar+0x28>
 80249d4:	2c0a      	cmp	r4, #10
 80249d6:	d00b      	beq.n	80249f0 <__io_getchar+0x34>
 80249d8:	2201      	movs	r2, #1
 80249da:	f88d 0004 	strb.w	r0, [sp, #4]
 80249de:	e00c      	b.n	80249fa <__io_getchar+0x3e>
 80249e0:	2c7f      	cmp	r4, #127	; 0x7f
 80249e2:	d1f9      	bne.n	80249d8 <__io_getchar+0x1c>
 80249e4:	4908      	ldr	r1, [pc, #32]	; (8024a08 <__io_getchar+0x4c>)
 80249e6:	a801      	add	r0, sp, #4
 80249e8:	f005 fc22 	bl	802a230 <strcpy>
 80249ec:	2203      	movs	r2, #3
 80249ee:	e004      	b.n	80249fa <__io_getchar+0x3e>
 80249f0:	4906      	ldr	r1, [pc, #24]	; (8024a0c <__io_getchar+0x50>)
 80249f2:	a801      	add	r0, sp, #4
 80249f4:	f005 fc1c 	bl	802a230 <strcpy>
 80249f8:	2202      	movs	r2, #2
 80249fa:	a901      	add	r1, sp, #4
 80249fc:	2000      	movs	r0, #0
 80249fe:	f7ff ffd6 	bl	80249ae <Uart_SendBuffer>
 8024a02:	4620      	mov	r0, r4
 8024a04:	b002      	add	sp, #8
 8024a06:	bd10      	pop	{r4, pc}
 8024a08:	0802be06 	.word	0x0802be06
 8024a0c:	0802be03 	.word	0x0802be03

08024a10 <_low_level_put>:
 8024a10:	4601      	mov	r1, r0
 8024a12:	2000      	movs	r0, #0
 8024a14:	f7ff bfc4 	b.w	80249a0 <Uart_SendByte>

08024a18 <__io_putchar>:
 8024a18:	280a      	cmp	r0, #10
 8024a1a:	b510      	push	{r4, lr}
 8024a1c:	4604      	mov	r4, r0
 8024a1e:	d102      	bne.n	8024a26 <__io_putchar+0xe>
 8024a20:	200d      	movs	r0, #13
 8024a22:	f7ff fff5 	bl	8024a10 <_low_level_put>
 8024a26:	b2e0      	uxtb	r0, r4
 8024a28:	f7ff fff2 	bl	8024a10 <_low_level_put>
 8024a2c:	4620      	mov	r0, r4
 8024a2e:	bd10      	pop	{r4, pc}

08024a30 <_putchar>:
 8024a30:	f7ff bff2 	b.w	8024a18 <__io_putchar>

08024a34 <U3_Putch>:
 8024a34:	4601      	mov	r1, r0
 8024a36:	2002      	movs	r0, #2
 8024a38:	f7ff bae2 	b.w	8024000 <IUart_SendByte>

08024a3c <MPU_Config>:
 8024a3c:	b51f      	push	{r0, r1, r2, r3, r4, lr}
 8024a3e:	2100      	movs	r1, #0
 8024a40:	2210      	movs	r2, #16
 8024a42:	4668      	mov	r0, sp
 8024a44:	f240 1401 	movw	r4, #257	; 0x101
 8024a48:	f005 fa6c 	bl	8029f24 <memset>
 8024a4c:	f001 ff20 	bl	8026890 <HAL_MPU_Disable>
 8024a50:	2301      	movs	r3, #1
 8024a52:	2200      	movs	r2, #0
 8024a54:	4668      	mov	r0, sp
 8024a56:	f8ad 3000 	strh.w	r3, [sp]
 8024a5a:	4b18      	ldr	r3, [pc, #96]	; (8024abc <MPU_Config+0x80>)
 8024a5c:	9403      	str	r4, [sp, #12]
 8024a5e:	e9cd 2301 	strd	r2, r3, [sp, #4]
 8024a62:	f001 ff33 	bl	80268cc <HAL_MPU_ConfigRegion>
 8024a66:	f04f 41c0 	mov.w	r1, #1610612736	; 0x60000000
 8024a6a:	4b15      	ldr	r3, [pc, #84]	; (8024ac0 <MPU_Config+0x84>)
 8024a6c:	4668      	mov	r0, sp
 8024a6e:	f8ad 4000 	strh.w	r4, [sp]
 8024a72:	9403      	str	r4, [sp, #12]
 8024a74:	e9cd 1301 	strd	r1, r3, [sp, #4]
 8024a78:	f001 ff28 	bl	80268cc <HAL_MPU_ConfigRegion>
 8024a7c:	f240 2301 	movw	r3, #513	; 0x201
 8024a80:	f04f 4000 	mov.w	r0, #2147483648	; 0x80000000
 8024a84:	9403      	str	r4, [sp, #12]
 8024a86:	f8ad 3000 	strh.w	r3, [sp]
 8024a8a:	f04f 4450 	mov.w	r4, #3489660928	; 0xd0000000
 8024a8e:	4b0d      	ldr	r3, [pc, #52]	; (8024ac4 <MPU_Config+0x88>)
 8024a90:	e9cd 0301 	strd	r0, r3, [sp, #4]
 8024a94:	4668      	mov	r0, sp
 8024a96:	f001 ff19 	bl	80268cc <HAL_MPU_ConfigRegion>
 8024a9a:	f240 3301 	movw	r3, #769	; 0x301
 8024a9e:	4668      	mov	r0, sp
 8024aa0:	f8ad 3000 	strh.w	r3, [sp]
 8024aa4:	4b08      	ldr	r3, [pc, #32]	; (8024ac8 <MPU_Config+0x8c>)
 8024aa6:	e9cd 4301 	strd	r4, r3, [sp, #4]
 8024aaa:	4b08      	ldr	r3, [pc, #32]	; (8024acc <MPU_Config+0x90>)
 8024aac:	9303      	str	r3, [sp, #12]
 8024aae:	f001 ff0d 	bl	80268cc <HAL_MPU_ConfigRegion>
 8024ab2:	2004      	movs	r0, #4
 8024ab4:	f001 fefa 	bl	80268ac <HAL_MPU_Enable>
 8024ab8:	b004      	add	sp, #16
 8024aba:	bd10      	pop	{r4, pc}
 8024abc:	0300871f 	.word	0x0300871f
 8024ac0:	03000009 	.word	0x03000009
 8024ac4:	0300001a 	.word	0x0300001a
 8024ac8:	03010016 	.word	0x03010016
 8024acc:	01010001 	.word	0x01010001

08024ad0 <SystemClock_Config>:
 8024ad0:	b510      	push	{r4, lr}
 8024ad2:	b09e      	sub	sp, #120	; 0x78
 8024ad4:	224c      	movs	r2, #76	; 0x4c
 8024ad6:	2100      	movs	r1, #0
 8024ad8:	a80b      	add	r0, sp, #44	; 0x2c
 8024ada:	f005 fa23 	bl	8029f24 <memset>
 8024ade:	2220      	movs	r2, #32
 8024ae0:	2100      	movs	r1, #0
 8024ae2:	a803      	add	r0, sp, #12
 8024ae4:	f005 fa1e 	bl	8029f24 <memset>
 8024ae8:	2002      	movs	r0, #2
 8024aea:	f002 f979 	bl	8026de0 <HAL_PWREx_ConfigSupply>
 8024aee:	2300      	movs	r3, #0
 8024af0:	9300      	str	r3, [sp, #0]
 8024af2:	4b3b      	ldr	r3, [pc, #236]	; (8024be0 <SystemClock_Config+0x110>)
 8024af4:	6ada      	ldr	r2, [r3, #44]	; 0x2c
 8024af6:	f022 0201 	bic.w	r2, r2, #1
 8024afa:	62da      	str	r2, [r3, #44]	; 0x2c
 8024afc:	6adb      	ldr	r3, [r3, #44]	; 0x2c
 8024afe:	f003 0301 	and.w	r3, r3, #1
 8024b02:	9300      	str	r3, [sp, #0]
 8024b04:	4b37      	ldr	r3, [pc, #220]	; (8024be4 <SystemClock_Config+0x114>)
 8024b06:	699a      	ldr	r2, [r3, #24]
 8024b08:	f442 4240 	orr.w	r2, r2, #49152	; 0xc000
 8024b0c:	619a      	str	r2, [r3, #24]
 8024b0e:	699a      	ldr	r2, [r3, #24]
 8024b10:	f402 4240 	and.w	r2, r2, #49152	; 0xc000
 8024b14:	9200      	str	r2, [sp, #0]
 8024b16:	9a00      	ldr	r2, [sp, #0]
 8024b18:	699a      	ldr	r2, [r3, #24]
 8024b1a:	0492      	lsls	r2, r2, #18
 8024b1c:	d5fc      	bpl.n	8024b18 <SystemClock_Config+0x48>
 8024b1e:	4c32      	ldr	r4, [pc, #200]	; (8024be8 <SystemClock_Config+0x118>)
 8024b20:	f8d4 20f4 	ldr.w	r2, [r4, #244]	; 0xf4
 8024b24:	f042 0202 	orr.w	r2, r2, #2
 8024b28:	f8c4 20f4 	str.w	r2, [r4, #244]	; 0xf4
 8024b2c:	f8d4 20f4 	ldr.w	r2, [r4, #244]	; 0xf4
 8024b30:	f002 0202 	and.w	r2, r2, #2
 8024b34:	9201      	str	r2, [sp, #4]
 8024b36:	9a01      	ldr	r2, [sp, #4]
 8024b38:	2200      	movs	r2, #0
 8024b3a:	9202      	str	r2, [sp, #8]
 8024b3c:	699a      	ldr	r2, [r3, #24]
 8024b3e:	f442 4240 	orr.w	r2, r2, #49152	; 0xc000
 8024b42:	619a      	str	r2, [r3, #24]
 8024b44:	699b      	ldr	r3, [r3, #24]
 8024b46:	f403 4340 	and.w	r3, r3, #49152	; 0xc000
 8024b4a:	9302      	str	r3, [sp, #8]
 8024b4c:	4b24      	ldr	r3, [pc, #144]	; (8024be0 <SystemClock_Config+0x110>)
 8024b4e:	6ada      	ldr	r2, [r3, #44]	; 0x2c
 8024b50:	f042 0201 	orr.w	r2, r2, #1
 8024b54:	62da      	str	r2, [r3, #44]	; 0x2c
 8024b56:	6adb      	ldr	r3, [r3, #44]	; 0x2c
 8024b58:	4a22      	ldr	r2, [pc, #136]	; (8024be4 <SystemClock_Config+0x114>)
 8024b5a:	f003 0301 	and.w	r3, r3, #1
 8024b5e:	9302      	str	r3, [sp, #8]
 8024b60:	9b02      	ldr	r3, [sp, #8]
 8024b62:	6993      	ldr	r3, [r2, #24]
 8024b64:	049b      	lsls	r3, r3, #18
 8024b66:	d5fc      	bpl.n	8024b62 <SystemClock_Config+0x92>
 8024b68:	f002 f932 	bl	8026dd0 <HAL_PWR_EnableBkUpAccess>
 8024b6c:	f001 fe24 	bl	80267b8 <HAL_GetREVID>
 8024b70:	6f23      	ldr	r3, [r4, #112]	; 0x70
 8024b72:	2105      	movs	r1, #5
 8024b74:	2201      	movs	r2, #1
 8024b76:	f023 0318 	bic.w	r3, r3, #24
 8024b7a:	2008      	movs	r0, #8
 8024b7c:	6723      	str	r3, [r4, #112]	; 0x70
 8024b7e:	f44f 3380 	mov.w	r3, #65536	; 0x10000
 8024b82:	9116      	str	r1, [sp, #88]	; 0x58
 8024b84:	920d      	str	r2, [sp, #52]	; 0x34
 8024b86:	e9cd 130b 	strd	r1, r3, [sp, #44]	; 0x2c
 8024b8a:	2302      	movs	r3, #2
 8024b8c:	21c0      	movs	r1, #192	; 0xc0
 8024b8e:	e9cd 3314 	strd	r3, r3, [sp, #80]	; 0x50
 8024b92:	e9cd 1317 	strd	r1, r3, [sp, #92]	; 0x5c
 8024b96:	e9cd 2319 	strd	r2, r3, [sp, #100]	; 0x64
 8024b9a:	2300      	movs	r3, #0
 8024b9c:	e9cd 031b 	strd	r0, r3, [sp, #108]	; 0x6c
 8024ba0:	a80b      	add	r0, sp, #44	; 0x2c
 8024ba2:	931d      	str	r3, [sp, #116]	; 0x74
 8024ba4:	f002 f940 	bl	8026e28 <HAL_RCC_OscConfig>
 8024ba8:	b108      	cbz	r0, 8024bae <SystemClock_Config+0xde>
 8024baa:	f000 fb2d 	bl	8025208 <Error_Handler>
 8024bae:	223f      	movs	r2, #63	; 0x3f
 8024bb0:	2303      	movs	r3, #3
 8024bb2:	2100      	movs	r1, #0
 8024bb4:	a803      	add	r0, sp, #12
 8024bb6:	e9cd 2303 	strd	r2, r3, [sp, #12]
 8024bba:	2308      	movs	r3, #8
 8024bbc:	f44f 6280 	mov.w	r2, #1024	; 0x400
 8024bc0:	e9cd 1305 	strd	r1, r3, [sp, #20]
 8024bc4:	2340      	movs	r3, #64	; 0x40
 8024bc6:	2104      	movs	r1, #4
 8024bc8:	e9cd 3307 	strd	r3, r3, [sp, #28]
 8024bcc:	e9cd 2309 	strd	r2, r3, [sp, #36]	; 0x24
 8024bd0:	f002 fc7e 	bl	80274d0 <HAL_RCC_ClockConfig>
 8024bd4:	b108      	cbz	r0, 8024bda <SystemClock_Config+0x10a>
 8024bd6:	f000 fb17 	bl	8025208 <Error_Handler>
 8024bda:	b01e      	add	sp, #120	; 0x78
 8024bdc:	bd10      	pop	{r4, pc}
 8024bde:	bf00      	nop
 8024be0:	58000400 	.word	0x58000400
 8024be4:	58024800 	.word	0x58024800
 8024be8:	58024400 	.word	0x58024400

08024bec <MX_GPIO_Init>:
 8024bec:	e92d 47f0 	stmdb	sp!, {r4, r5, r6, r7, r8, r9, sl, lr}
 8024bf0:	b08e      	sub	sp, #56	; 0x38
 8024bf2:	2214      	movs	r2, #20
 8024bf4:	2100      	movs	r1, #0
 8024bf6:	4f79      	ldr	r7, [pc, #484]	; (8024ddc <MX_GPIO_Init+0x1f0>)
 8024bf8:	a809      	add	r0, sp, #36	; 0x24
 8024bfa:	4e79      	ldr	r6, [pc, #484]	; (8024de0 <MX_GPIO_Init+0x1f4>)
 8024bfc:	f005 f992 	bl	8029f24 <memset>
 8024c00:	4b78      	ldr	r3, [pc, #480]	; (8024de4 <MX_GPIO_Init+0x1f8>)
 8024c02:	4638      	mov	r0, r7
 8024c04:	2140      	movs	r1, #64	; 0x40
 8024c06:	f8d3 20e0 	ldr.w	r2, [r3, #224]	; 0xe0
 8024c0a:	2501      	movs	r5, #1
 8024c0c:	f8df 91d8 	ldr.w	r9, [pc, #472]	; 8024de8 <MX_GPIO_Init+0x1fc>
 8024c10:	2400      	movs	r4, #0
 8024c12:	f042 0204 	orr.w	r2, r2, #4
 8024c16:	f8df 81d4 	ldr.w	r8, [pc, #468]	; 8024dec <MX_GPIO_Init+0x200>
 8024c1a:	f8df a1d4 	ldr.w	sl, [pc, #468]	; 8024df0 <MX_GPIO_Init+0x204>
 8024c1e:	f8c3 20e0 	str.w	r2, [r3, #224]	; 0xe0
 8024c22:	f8d3 20e0 	ldr.w	r2, [r3, #224]	; 0xe0
 8024c26:	f002 0204 	and.w	r2, r2, #4
 8024c2a:	9201      	str	r2, [sp, #4]
 8024c2c:	9a01      	ldr	r2, [sp, #4]
 8024c2e:	f8d3 20e0 	ldr.w	r2, [r3, #224]	; 0xe0
 8024c32:	f042 0220 	orr.w	r2, r2, #32
 8024c36:	f8c3 20e0 	str.w	r2, [r3, #224]	; 0xe0
 8024c3a:	f8d3 20e0 	ldr.w	r2, [r3, #224]	; 0xe0
 8024c3e:	f002 0220 	and.w	r2, r2, #32
 8024c42:	9202      	str	r2, [sp, #8]
 8024c44:	9a02      	ldr	r2, [sp, #8]
 8024c46:	f8d3 20e0 	ldr.w	r2, [r3, #224]	; 0xe0
 8024c4a:	f042 0280 	orr.w	r2, r2, #128	; 0x80
 8024c4e:	f8c3 20e0 	str.w	r2, [r3, #224]	; 0xe0
 8024c52:	f8d3 20e0 	ldr.w	r2, [r3, #224]	; 0xe0
 8024c56:	f002 0280 	and.w	r2, r2, #128	; 0x80
 8024c5a:	9203      	str	r2, [sp, #12]
 8024c5c:	9a03      	ldr	r2, [sp, #12]
 8024c5e:	f8d3 20e0 	ldr.w	r2, [r3, #224]	; 0xe0
 8024c62:	f042 0201 	orr.w	r2, r2, #1
 8024c66:	f8c3 20e0 	str.w	r2, [r3, #224]	; 0xe0
 8024c6a:	f8d3 20e0 	ldr.w	r2, [r3, #224]	; 0xe0
 8024c6e:	f002 0201 	and.w	r2, r2, #1
 8024c72:	9204      	str	r2, [sp, #16]
 8024c74:	9a04      	ldr	r2, [sp, #16]
 8024c76:	f8d3 20e0 	ldr.w	r2, [r3, #224]	; 0xe0
 8024c7a:	f042 0202 	orr.w	r2, r2, #2
 8024c7e:	f8c3 20e0 	str.w	r2, [r3, #224]	; 0xe0
 8024c82:	f8d3 20e0 	ldr.w	r2, [r3, #224]	; 0xe0
 8024c86:	f002 0202 	and.w	r2, r2, #2
 8024c8a:	9205      	str	r2, [sp, #20]
 8024c8c:	9a05      	ldr	r2, [sp, #20]
 8024c8e:	f8d3 20e0 	ldr.w	r2, [r3, #224]	; 0xe0
 8024c92:	f042 0240 	orr.w	r2, r2, #64	; 0x40
 8024c96:	f8c3 20e0 	str.w	r2, [r3, #224]	; 0xe0
 8024c9a:	f8d3 20e0 	ldr.w	r2, [r3, #224]	; 0xe0
 8024c9e:	f002 0240 	and.w	r2, r2, #64	; 0x40
 8024ca2:	9206      	str	r2, [sp, #24]
 8024ca4:	9a06      	ldr	r2, [sp, #24]
 8024ca6:	f8d3 20e0 	ldr.w	r2, [r3, #224]	; 0xe0
 8024caa:	f042 0210 	orr.w	r2, r2, #16
 8024cae:	f8c3 20e0 	str.w	r2, [r3, #224]	; 0xe0
 8024cb2:	f8d3 20e0 	ldr.w	r2, [r3, #224]	; 0xe0
 8024cb6:	f002 0210 	and.w	r2, r2, #16
 8024cba:	9207      	str	r2, [sp, #28]
 8024cbc:	9a07      	ldr	r2, [sp, #28]
 8024cbe:	f8d3 20e0 	ldr.w	r2, [r3, #224]	; 0xe0
 8024cc2:	f042 0208 	orr.w	r2, r2, #8
 8024cc6:	f8c3 20e0 	str.w	r2, [r3, #224]	; 0xe0
 8024cca:	2200      	movs	r2, #0
 8024ccc:	f8d3 30e0 	ldr.w	r3, [r3, #224]	; 0xe0
 8024cd0:	f003 0308 	and.w	r3, r3, #8
 8024cd4:	9308      	str	r3, [sp, #32]
 8024cd6:	9b08      	ldr	r3, [sp, #32]
 8024cd8:	f002 f86c 	bl	8026db4 <HAL_GPIO_WritePin>
 8024cdc:	4638      	mov	r0, r7
 8024cde:	2201      	movs	r2, #1
 8024ce0:	2180      	movs	r1, #128	; 0x80
 8024ce2:	f002 f867 	bl	8026db4 <HAL_GPIO_WritePin>
 8024ce6:	4630      	mov	r0, r6
 8024ce8:	2200      	movs	r2, #0
 8024cea:	f44f 7180 	mov.w	r1, #256	; 0x100
 8024cee:	f002 f861 	bl	8026db4 <HAL_GPIO_WritePin>
 8024cf2:	4630      	mov	r0, r6
 8024cf4:	2200      	movs	r2, #0
 8024cf6:	f241 0110 	movw	r1, #4112	; 0x1010
 8024cfa:	f002 f85b 	bl	8026db4 <HAL_GPIO_WritePin>
 8024cfe:	4648      	mov	r0, r9
 8024d00:	2201      	movs	r2, #1
 8024d02:	f44f 711c 	mov.w	r1, #624	; 0x270
 8024d06:	f002 f855 	bl	8026db4 <HAL_GPIO_WritePin>
 8024d0a:	4640      	mov	r0, r8
 8024d0c:	2200      	movs	r2, #0
 8024d0e:	f44f 7100 	mov.w	r1, #512	; 0x200
 8024d12:	f002 f84f 	bl	8026db4 <HAL_GPIO_WritePin>
 8024d16:	2201      	movs	r2, #1
 8024d18:	4650      	mov	r0, sl
 8024d1a:	2104      	movs	r1, #4
 8024d1c:	f002 f84a 	bl	8026db4 <HAL_GPIO_WritePin>
 8024d20:	23c0      	movs	r3, #192	; 0xc0
 8024d22:	a909      	add	r1, sp, #36	; 0x24
 8024d24:	4638      	mov	r0, r7
 8024d26:	e9cd 3509 	strd	r3, r5, [sp, #36]	; 0x24
 8024d2a:	e9cd 440b 	strd	r4, r4, [sp, #44]	; 0x2c
 8024d2e:	f001 fead 	bl	8026a8c <HAL_GPIO_Init>
 8024d32:	f44f 7380 	mov.w	r3, #256	; 0x100
 8024d36:	a909      	add	r1, sp, #36	; 0x24
 8024d38:	4630      	mov	r0, r6
 8024d3a:	e9cd 3509 	strd	r3, r5, [sp, #36]	; 0x24
 8024d3e:	e9cd 440b 	strd	r4, r4, [sp, #44]	; 0x2c
 8024d42:	f001 fea3 	bl	8026a8c <HAL_GPIO_Init>
 8024d46:	f44f 63e0 	mov.w	r3, #1792	; 0x700
 8024d4a:	a909      	add	r1, sp, #36	; 0x24
 8024d4c:	4638      	mov	r0, r7
 8024d4e:	950b      	str	r5, [sp, #44]	; 0x2c
 8024d50:	e9cd 3409 	strd	r3, r4, [sp, #36]	; 0x24
 8024d54:	f001 fe9a 	bl	8026a8c <HAL_GPIO_Init>
 8024d58:	2303      	movs	r3, #3
 8024d5a:	a909      	add	r1, sp, #36	; 0x24
 8024d5c:	4648      	mov	r0, r9
 8024d5e:	950b      	str	r5, [sp, #44]	; 0x2c
 8024d60:	e9cd 3409 	strd	r3, r4, [sp, #36]	; 0x24
 8024d64:	f001 fe92 	bl	8026a8c <HAL_GPIO_Init>
 8024d68:	f241 0310 	movw	r3, #4112	; 0x1010
 8024d6c:	a909      	add	r1, sp, #36	; 0x24
 8024d6e:	4630      	mov	r0, r6
 8024d70:	e9cd 3509 	strd	r3, r5, [sp, #36]	; 0x24
 8024d74:	e9cd 440b 	strd	r4, r4, [sp, #44]	; 0x2c
 8024d78:	f001 fe88 	bl	8026a8c <HAL_GPIO_Init>
 8024d7c:	f44f 731c 	mov.w	r3, #624	; 0x270
 8024d80:	a909      	add	r1, sp, #36	; 0x24
 8024d82:	4648      	mov	r0, r9
 8024d84:	e9cd 3509 	strd	r3, r5, [sp, #36]	; 0x24
 8024d88:	e9cd 440b 	strd	r4, r4, [sp, #44]	; 0x2c
 8024d8c:	f001 fe7e 	bl	8026a8c <HAL_GPIO_Init>
 8024d90:	23ff      	movs	r3, #255	; 0xff
 8024d92:	a909      	add	r1, sp, #36	; 0x24
 8024d94:	4640      	mov	r0, r8
 8024d96:	950b      	str	r5, [sp, #44]	; 0x2c
 8024d98:	e9cd 3409 	strd	r3, r4, [sp, #36]	; 0x24
 8024d9c:	f001 fe76 	bl	8026a8c <HAL_GPIO_Init>
 8024da0:	f44f 6340 	mov.w	r3, #3072	; 0xc00
 8024da4:	a909      	add	r1, sp, #36	; 0x24
 8024da6:	4630      	mov	r0, r6
 8024da8:	950b      	str	r5, [sp, #44]	; 0x2c
 8024daa:	e9cd 3409 	strd	r3, r4, [sp, #36]	; 0x24
 8024dae:	f001 fe6d 	bl	8026a8c <HAL_GPIO_Init>
 8024db2:	2304      	movs	r3, #4
 8024db4:	a909      	add	r1, sp, #36	; 0x24
 8024db6:	4650      	mov	r0, sl
 8024db8:	e9cd 3509 	strd	r3, r5, [sp, #36]	; 0x24
 8024dbc:	e9cd 440b 	strd	r4, r4, [sp, #44]	; 0x2c
 8024dc0:	f001 fe64 	bl	8026a8c <HAL_GPIO_Init>
 8024dc4:	f44f 7300 	mov.w	r3, #512	; 0x200
 8024dc8:	a909      	add	r1, sp, #36	; 0x24
 8024dca:	4640      	mov	r0, r8
 8024dcc:	950b      	str	r5, [sp, #44]	; 0x2c
 8024dce:	e9cd 3409 	strd	r3, r4, [sp, #36]	; 0x24
 8024dd2:	f001 fe5b 	bl	8026a8c <HAL_GPIO_Init>
 8024dd6:	b00e      	add	sp, #56	; 0x38
 8024dd8:	e8bd 87f0 	ldmia.w	sp!, {r4, r5, r6, r7, r8, r9, sl, pc}
 8024ddc:	58021400 	.word	0x58021400
 8024de0:	58020000 	.word	0x58020000
 8024de4:	58024400 	.word	0x58024400
 8024de8:	58020800 	.word	0x58020800
 8024dec:	58020400 	.word	0x58020400
 8024df0:	58020c00 	.word	0x58020c00

08024df4 <MX_TIM7_Init>:
 8024df4:	b51f      	push	{r0, r1, r2, r3, r4, lr}
 8024df6:	480f      	ldr	r0, [pc, #60]	; (8024e34 <MX_TIM7_Init+0x40>)
 8024df8:	23ef      	movs	r3, #239	; 0xef
 8024dfa:	4a0f      	ldr	r2, [pc, #60]	; (8024e38 <MX_TIM7_Init+0x44>)
 8024dfc:	2400      	movs	r4, #0
 8024dfe:	e9c0 2300 	strd	r2, r3, [r0]
 8024e02:	f240 33e7 	movw	r3, #999	; 0x3e7
 8024e06:	9403      	str	r4, [sp, #12]
 8024e08:	6084      	str	r4, [r0, #8]
 8024e0a:	60c3      	str	r3, [r0, #12]
 8024e0c:	6184      	str	r4, [r0, #24]
 8024e0e:	e9cd 4401 	strd	r4, r4, [sp, #4]
 8024e12:	f004 fb19 	bl	8029448 <HAL_TIM_Base_Init>
 8024e16:	b108      	cbz	r0, 8024e1c <MX_TIM7_Init+0x28>
 8024e18:	f000 f9f6 	bl	8025208 <Error_Handler>
 8024e1c:	a901      	add	r1, sp, #4
 8024e1e:	4805      	ldr	r0, [pc, #20]	; (8024e34 <MX_TIM7_Init+0x40>)
 8024e20:	9401      	str	r4, [sp, #4]
 8024e22:	9403      	str	r4, [sp, #12]
 8024e24:	f004 fb40 	bl	80294a8 <HAL_TIMEx_MasterConfigSynchronization>
 8024e28:	b108      	cbz	r0, 8024e2e <MX_TIM7_Init+0x3a>
 8024e2a:	f000 f9ed 	bl	8025208 <Error_Handler>
 8024e2e:	b004      	add	sp, #16
 8024e30:	bd10      	pop	{r4, pc}
 8024e32:	bf00      	nop
 8024e34:	24001c04 	.word	0x24001c04
 8024e38:	40001400 	.word	0x40001400

08024e3c <InitPeripherals>:
 8024e3c:	b530      	push	{r4, r5, lr}
 8024e3e:	b089      	sub	sp, #36	; 0x24
 8024e40:	4d97      	ldr	r5, [pc, #604]	; (80250a0 <InitPeripherals+0x264>)
 8024e42:	f7ff fed3 	bl	8024bec <MX_GPIO_Init>
 8024e46:	2200      	movs	r2, #0
 8024e48:	4896      	ldr	r0, [pc, #600]	; (80250a4 <InitPeripherals+0x268>)
 8024e4a:	f44f 5380 	mov.w	r3, #4096	; 0x1000
 8024e4e:	21ff      	movs	r1, #255	; 0xff
 8024e50:	4c95      	ldr	r4, [pc, #596]	; (80250a8 <InitPeripherals+0x26c>)
 8024e52:	9207      	str	r2, [sp, #28]
 8024e54:	6202      	str	r2, [r0, #32]
 8024e56:	6342      	str	r2, [r0, #52]	; 0x34
 8024e58:	6402      	str	r2, [r0, #64]	; 0x40
 8024e5a:	e9c0 3209 	strd	r3, r2, [r0, #36]	; 0x24
 8024e5e:	f44f 1380 	mov.w	r3, #1048576	; 0x100000
 8024e62:	e9c0 320e 	strd	r3, r2, [r0, #56]	; 0x38
 8024e66:	230f      	movs	r3, #15
 8024e68:	e9cd 1303 	strd	r1, r3, [sp, #12]
 8024e6c:	e9cd 3301 	strd	r3, r3, [sp, #4]
 8024e70:	2110      	movs	r1, #16
 8024e72:	2311      	movs	r3, #17
 8024e74:	e9cd 1305 	strd	r1, r3, [sp, #20]
 8024e78:	a901      	add	r1, sp, #4
 8024e7a:	e9c0 5400 	strd	r5, r4, [r0]
 8024e7e:	e9c0 2202 	strd	r2, r2, [r0, #8]
 8024e82:	e9c0 2204 	strd	r2, r2, [r0, #16]
 8024e86:	e9c0 2206 	strd	r2, r2, [r0, #24]
 8024e8a:	e9c0 220b 	strd	r2, r2, [r0, #44]	; 0x2c
 8024e8e:	f004 f94f 	bl	8029130 <HAL_SRAM_Init>
 8024e92:	b108      	cbz	r0, 8024e98 <InitPeripherals+0x5c>
 8024e94:	f000 f9b8 	bl	8025208 <Error_Handler>
 8024e98:	4884      	ldr	r0, [pc, #528]	; (80250ac <InitPeripherals+0x270>)
 8024e9a:	2200      	movs	r2, #0
 8024e9c:	2302      	movs	r3, #2
 8024e9e:	21ff      	movs	r1, #255	; 0xff
 8024ea0:	f04f 0e10 	mov.w	lr, #16
 8024ea4:	6202      	str	r2, [r0, #32]
 8024ea6:	6342      	str	r2, [r0, #52]	; 0x34
 8024ea8:	6402      	str	r2, [r0, #64]	; 0x40
 8024eaa:	9207      	str	r2, [sp, #28]
 8024eac:	e9c0 3202 	strd	r3, r2, [r0, #8]
 8024eb0:	f44f 5380 	mov.w	r3, #4096	; 0x1000
 8024eb4:	e9c0 3209 	strd	r3, r2, [r0, #36]	; 0x24
 8024eb8:	f44f 1380 	mov.w	r3, #1048576	; 0x100000
 8024ebc:	e9c0 320e 	strd	r3, r2, [r0, #56]	; 0x38
 8024ec0:	230f      	movs	r3, #15
 8024ec2:	e9cd 1303 	strd	r1, r3, [sp, #12]
 8024ec6:	e9cd 3301 	strd	r3, r3, [sp, #4]
 8024eca:	2311      	movs	r3, #17
 8024ecc:	a901      	add	r1, sp, #4
 8024ece:	e9c0 5400 	strd	r5, r4, [r0]
 8024ed2:	e9c0 2204 	strd	r2, r2, [r0, #16]
 8024ed6:	e9c0 2206 	strd	r2, r2, [r0, #24]
 8024eda:	e9c0 220b 	strd	r2, r2, [r0, #44]	; 0x2c
 8024ede:	e9cd e305 	strd	lr, r3, [sp, #20]
 8024ee2:	f004 f925 	bl	8029130 <HAL_SRAM_Init>
 8024ee6:	b108      	cbz	r0, 8024eec <InitPeripherals+0xb0>
 8024ee8:	f000 f98e 	bl	8025208 <Error_Handler>
 8024eec:	f7ff ff82 	bl	8024df4 <MX_TIM7_Init>
 8024ef0:	486f      	ldr	r0, [pc, #444]	; (80250b0 <InitPeripherals+0x274>)
 8024ef2:	f44f 33e1 	mov.w	r3, #115200	; 0x1c200
 8024ef6:	f8df c1dc 	ldr.w	ip, [pc, #476]	; 80250d4 <InitPeripherals+0x298>
 8024efa:	220c      	movs	r2, #12
 8024efc:	e9c0 c300 	strd	ip, r3, [r0]
 8024f00:	2300      	movs	r3, #0
 8024f02:	e9c0 3302 	strd	r3, r3, [r0, #8]
 8024f06:	6103      	str	r3, [r0, #16]
 8024f08:	e9c0 2305 	strd	r2, r3, [r0, #20]
 8024f0c:	e9c0 3307 	strd	r3, r3, [r0, #28]
 8024f10:	e9c0 3309 	strd	r3, r3, [r0, #36]	; 0x24
 8024f14:	f004 fe1e 	bl	8029b54 <HAL_UART_Init>
 8024f18:	b108      	cbz	r0, 8024f1e <InitPeripherals+0xe2>
 8024f1a:	f000 f975 	bl	8025208 <Error_Handler>
 8024f1e:	2100      	movs	r1, #0
 8024f20:	4863      	ldr	r0, [pc, #396]	; (80250b0 <InitPeripherals+0x274>)
 8024f22:	f004 fe84 	bl	8029c2e <HAL_UARTEx_SetTxFifoThreshold>
 8024f26:	b108      	cbz	r0, 8024f2c <InitPeripherals+0xf0>
 8024f28:	f000 f96e 	bl	8025208 <Error_Handler>
 8024f2c:	2100      	movs	r1, #0
 8024f2e:	4860      	ldr	r0, [pc, #384]	; (80250b0 <InitPeripherals+0x274>)
 8024f30:	f004 fea1 	bl	8029c76 <HAL_UARTEx_SetRxFifoThreshold>
 8024f34:	b108      	cbz	r0, 8024f3a <InitPeripherals+0xfe>
 8024f36:	f000 f967 	bl	8025208 <Error_Handler>
 8024f3a:	485d      	ldr	r0, [pc, #372]	; (80250b0 <InitPeripherals+0x274>)
 8024f3c:	f004 fe5c 	bl	8029bf8 <HAL_UARTEx_DisableFifoMode>
 8024f40:	b108      	cbz	r0, 8024f46 <InitPeripherals+0x10a>
 8024f42:	f000 f961 	bl	8025208 <Error_Handler>
 8024f46:	485b      	ldr	r0, [pc, #364]	; (80250b4 <InitPeripherals+0x278>)
 8024f48:	f44f 33e1 	mov.w	r3, #115200	; 0x1c200
 8024f4c:	4d5a      	ldr	r5, [pc, #360]	; (80250b8 <InitPeripherals+0x27c>)
 8024f4e:	220c      	movs	r2, #12
 8024f50:	e9c0 5300 	strd	r5, r3, [r0]
 8024f54:	2300      	movs	r3, #0
 8024f56:	e9c0 3302 	strd	r3, r3, [r0, #8]
 8024f5a:	6103      	str	r3, [r0, #16]
 8024f5c:	e9c0 2305 	strd	r2, r3, [r0, #20]
 8024f60:	e9c0 3307 	strd	r3, r3, [r0, #28]
 8024f64:	e9c0 3309 	strd	r3, r3, [r0, #36]	; 0x24
 8024f68:	f004 fdf4 	bl	8029b54 <HAL_UART_Init>
 8024f6c:	b108      	cbz	r0, 8024f72 <InitPeripherals+0x136>
 8024f6e:	f000 f94b 	bl	8025208 <Error_Handler>
 8024f72:	2100      	movs	r1, #0
 8024f74:	484f      	ldr	r0, [pc, #316]	; (80250b4 <InitPeripherals+0x278>)
 8024f76:	f004 fe5a 	bl	8029c2e <HAL_UARTEx_SetTxFifoThreshold>
 8024f7a:	b108      	cbz	r0, 8024f80 <InitPeripherals+0x144>
 8024f7c:	f000 f944 	bl	8025208 <Error_Handler>
 8024f80:	2100      	movs	r1, #0
 8024f82:	484c      	ldr	r0, [pc, #304]	; (80250b4 <InitPeripherals+0x278>)
 8024f84:	f004 fe77 	bl	8029c76 <HAL_UARTEx_SetRxFifoThreshold>
 8024f88:	b108      	cbz	r0, 8024f8e <InitPeripherals+0x152>
 8024f8a:	f000 f93d 	bl	8025208 <Error_Handler>
 8024f8e:	4849      	ldr	r0, [pc, #292]	; (80250b4 <InitPeripherals+0x278>)
 8024f90:	f004 fe32 	bl	8029bf8 <HAL_UARTEx_DisableFifoMode>
 8024f94:	b108      	cbz	r0, 8024f9a <InitPeripherals+0x15e>
 8024f96:	f000 f937 	bl	8025208 <Error_Handler>
 8024f9a:	4848      	ldr	r0, [pc, #288]	; (80250bc <InitPeripherals+0x280>)
 8024f9c:	f44f 4361 	mov.w	r3, #57600	; 0xe100
 8024fa0:	4c47      	ldr	r4, [pc, #284]	; (80250c0 <InitPeripherals+0x284>)
 8024fa2:	220c      	movs	r2, #12
 8024fa4:	e9c0 4300 	strd	r4, r3, [r0]
 8024fa8:	2300      	movs	r3, #0
 8024faa:	e9c0 3302 	strd	r3, r3, [r0, #8]
 8024fae:	6103      	str	r3, [r0, #16]
 8024fb0:	e9c0 2305 	strd	r2, r3, [r0, #20]
 8024fb4:	e9c0 3307 	strd	r3, r3, [r0, #28]
 8024fb8:	e9c0 3309 	strd	r3, r3, [r0, #36]	; 0x24
 8024fbc:	f004 fdca 	bl	8029b54 <HAL_UART_Init>
 8024fc0:	b108      	cbz	r0, 8024fc6 <InitPeripherals+0x18a>
 8024fc2:	f000 f921 	bl	8025208 <Error_Handler>
 8024fc6:	2100      	movs	r1, #0
 8024fc8:	483c      	ldr	r0, [pc, #240]	; (80250bc <InitPeripherals+0x280>)
 8024fca:	f004 fe30 	bl	8029c2e <HAL_UARTEx_SetTxFifoThreshold>
 8024fce:	b108      	cbz	r0, 8024fd4 <InitPeripherals+0x198>
 8024fd0:	f000 f91a 	bl	8025208 <Error_Handler>
 8024fd4:	2100      	movs	r1, #0
 8024fd6:	4839      	ldr	r0, [pc, #228]	; (80250bc <InitPeripherals+0x280>)
 8024fd8:	f004 fe4d 	bl	8029c76 <HAL_UARTEx_SetRxFifoThreshold>
 8024fdc:	b108      	cbz	r0, 8024fe2 <InitPeripherals+0x1a6>
 8024fde:	f000 f913 	bl	8025208 <Error_Handler>
 8024fe2:	4836      	ldr	r0, [pc, #216]	; (80250bc <InitPeripherals+0x280>)
 8024fe4:	f004 fe08 	bl	8029bf8 <HAL_UARTEx_DisableFifoMode>
 8024fe8:	b108      	cbz	r0, 8024fee <InitPeripherals+0x1b2>
 8024fea:	f000 f90d 	bl	8025208 <Error_Handler>
 8024fee:	4835      	ldr	r0, [pc, #212]	; (80250c4 <InitPeripherals+0x288>)
 8024ff0:	f44f 4316 	mov.w	r3, #38400	; 0x9600
 8024ff4:	4934      	ldr	r1, [pc, #208]	; (80250c8 <InitPeripherals+0x28c>)
 8024ff6:	220c      	movs	r2, #12
 8024ff8:	e9c0 1300 	strd	r1, r3, [r0]
 8024ffc:	2300      	movs	r3, #0
 8024ffe:	e9c0 3302 	strd	r3, r3, [r0, #8]
 8025002:	6103      	str	r3, [r0, #16]
 8025004:	e9c0 2305 	strd	r2, r3, [r0, #20]
 8025008:	e9c0 3307 	strd	r3, r3, [r0, #28]
 802500c:	e9c0 3309 	strd	r3, r3, [r0, #36]	; 0x24
 8025010:	f004 fda0 	bl	8029b54 <HAL_UART_Init>
 8025014:	b108      	cbz	r0, 802501a <InitPeripherals+0x1de>
 8025016:	f000 f8f7 	bl	8025208 <Error_Handler>
 802501a:	2100      	movs	r1, #0
 802501c:	4829      	ldr	r0, [pc, #164]	; (80250c4 <InitPeripherals+0x288>)
 802501e:	f004 fe06 	bl	8029c2e <HAL_UARTEx_SetTxFifoThreshold>
 8025022:	b108      	cbz	r0, 8025028 <InitPeripherals+0x1ec>
 8025024:	f000 f8f0 	bl	8025208 <Error_Handler>
 8025028:	2100      	movs	r1, #0
 802502a:	4826      	ldr	r0, [pc, #152]	; (80250c4 <InitPeripherals+0x288>)
 802502c:	f004 fe23 	bl	8029c76 <HAL_UARTEx_SetRxFifoThreshold>
 8025030:	b108      	cbz	r0, 8025036 <InitPeripherals+0x1fa>
 8025032:	f000 f8e9 	bl	8025208 <Error_Handler>
 8025036:	4823      	ldr	r0, [pc, #140]	; (80250c4 <InitPeripherals+0x288>)
 8025038:	f004 fdde 	bl	8029bf8 <HAL_UARTEx_DisableFifoMode>
 802503c:	b108      	cbz	r0, 8025042 <InitPeripherals+0x206>
 802503e:	f000 f8e3 	bl	8025208 <Error_Handler>
 8025042:	4822      	ldr	r0, [pc, #136]	; (80250cc <InitPeripherals+0x290>)
 8025044:	f44f 4316 	mov.w	r3, #38400	; 0x9600
 8025048:	4a21      	ldr	r2, [pc, #132]	; (80250d0 <InitPeripherals+0x294>)
 802504a:	e9c0 2300 	strd	r2, r3, [r0]
 802504e:	2300      	movs	r3, #0
 8025050:	220c      	movs	r2, #12
 8025052:	e9c0 3302 	strd	r3, r3, [r0, #8]
 8025056:	6103      	str	r3, [r0, #16]
 8025058:	e9c0 2305 	strd	r2, r3, [r0, #20]
 802505c:	e9c0 3307 	strd	r3, r3, [r0, #28]
 8025060:	e9c0 3309 	strd	r3, r3, [r0, #36]	; 0x24
 8025064:	f004 fd76 	bl	8029b54 <HAL_UART_Init>
 8025068:	b108      	cbz	r0, 802506e <InitPeripherals+0x232>
 802506a:	f000 f8cd 	bl	8025208 <Error_Handler>
 802506e:	2100      	movs	r1, #0
 8025070:	4816      	ldr	r0, [pc, #88]	; (80250cc <InitPeripherals+0x290>)
 8025072:	f004 fddc 	bl	8029c2e <HAL_UARTEx_SetTxFifoThreshold>
 8025076:	b108      	cbz	r0, 802507c <InitPeripherals+0x240>
 8025078:	f000 f8c6 	bl	8025208 <Error_Handler>
 802507c:	2100      	movs	r1, #0
 802507e:	4813      	ldr	r0, [pc, #76]	; (80250cc <InitPeripherals+0x290>)
 8025080:	f004 fdf9 	bl	8029c76 <HAL_UARTEx_SetRxFifoThreshold>
 8025084:	b108      	cbz	r0, 802508a <InitPeripherals+0x24e>
 8025086:	f000 f8bf 	bl	8025208 <Error_Handler>
 802508a:	4810      	ldr	r0, [pc, #64]	; (80250cc <InitPeripherals+0x290>)
 802508c:	f004 fdb4 	bl	8029bf8 <HAL_UARTEx_DisableFifoMode>
 8025090:	b120      	cbz	r0, 802509c <InitPeripherals+0x260>
 8025092:	b009      	add	sp, #36	; 0x24
 8025094:	e8bd 4030 	ldmia.w	sp!, {r4, r5, lr}
 8025098:	f000 b8b6 	b.w	8025208 <Error_Handler>
 802509c:	b009      	add	sp, #36	; 0x24
 802509e:	bd30      	pop	{r4, r5, pc}
 80250a0:	52004000 	.word	0x52004000
 80250a4:	24001b6c 	.word	0x24001b6c
 80250a8:	52004104 	.word	0x52004104
 80250ac:	24001bb8 	.word	0x24001bb8
 80250b0:	24001c50 	.word	0x24001c50
 80250b4:	24001ce4 	.word	0x24001ce4
 80250b8:	40004400 	.word	0x40004400
 80250bc:	24001d78 	.word	0x24001d78
 80250c0:	40004800 	.word	0x40004800
 80250c4:	24001e0c 	.word	0x24001e0c
 80250c8:	40004c00 	.word	0x40004c00
 80250cc:	24001ea0 	.word	0x24001ea0
 80250d0:	40005000 	.word	0x40005000
 80250d4:	40011000 	.word	0x40011000

080250d8 <dip_sw>:
 80250d8:	4b02      	ldr	r3, [pc, #8]	; (80250e4 <dip_sw+0xc>)
 80250da:	6918      	ldr	r0, [r3, #16]
 80250dc:	43c0      	mvns	r0, r0
 80250de:	b2c0      	uxtb	r0, r0
 80250e0:	4770      	bx	lr
 80250e2:	bf00      	nop
 80250e4:	58020400 	.word	0x58020400

080250e8 <GCUInitialize>:
 80250e8:	b508      	push	{r3, lr}
 80250ea:	f7fe fd45 	bl	8023b78 <BuzzerOff>
 80250ee:	4812      	ldr	r0, [pc, #72]	; (8025138 <GCUInitialize+0x50>)
 80250f0:	2201      	movs	r2, #1
 80250f2:	2140      	movs	r1, #64	; 0x40
 80250f4:	f001 fe5e 	bl	8026db4 <HAL_GPIO_WritePin>
 80250f8:	2180      	movs	r1, #128	; 0x80
 80250fa:	2201      	movs	r2, #1
 80250fc:	480e      	ldr	r0, [pc, #56]	; (8025138 <GCUInitialize+0x50>)
 80250fe:	f001 fe59 	bl	8026db4 <HAL_GPIO_WritePin>
 8025102:	f7fb fccf 	bl	8020aa4 <SetDefaultOpMode>
 8025106:	f7fb fcdd 	bl	8020ac4 <SetDefaultParameter>
 802510a:	f7fb fcf5 	bl	8020af8 <SetDefaultStatus>
 802510e:	2001      	movs	r0, #1
 8025110:	f7fb fab8 	bl	8020684 <Brr_SetEmergency>
 8025114:	4b09      	ldr	r3, [pc, #36]	; (802513c <GCUInitialize+0x54>)
 8025116:	2201      	movs	r2, #1
 8025118:	2002      	movs	r0, #2
 802511a:	701a      	strb	r2, [r3, #0]
 802511c:	f7fe fd34 	bl	8023b88 <ControlStatusLED_En>
 8025120:	2002      	movs	r0, #2
 8025122:	f7fe fd43 	bl	8023bac <ControlStatusLED_Ex>
 8025126:	2002      	movs	r0, #2
 8025128:	f7fe fd54 	bl	8023bd4 <ControlOverHeadDisplay_En>
 802512c:	2002      	movs	r0, #2
 802512e:	e8bd 4008 	ldmia.w	sp!, {r3, lr}
 8025132:	f7fe bd63 	b.w	8023bfc <ControlOverHeadDisplay_Ex>
 8025136:	bf00      	nop
 8025138:	58021400 	.word	0x58021400
 802513c:	24000124 	.word	0x24000124

08025140 <SerialProcess>:
 8025140:	b508      	push	{r3, lr}
 8025142:	f7ff ffc9 	bl	80250d8 <dip_sw>
 8025146:	07c3      	lsls	r3, r0, #31
 8025148:	d401      	bmi.n	802514e <SerialProcess+0xe>
 802514a:	f7fb fc19 	bl	8020980 <ProcessComm_Barrier>
 802514e:	f7fd f849 	bl	80221e4 <ProcessComm_ECU>
 8025152:	e7f6      	b.n	8025142 <SerialProcess+0x2>

08025154 <main>:
 8025154:	b508      	push	{r3, lr}
 8025156:	f7ff fc71 	bl	8024a3c <MPU_Config>
 802515a:	4b29      	ldr	r3, [pc, #164]	; (8025200 <main+0xac>)
 802515c:	695a      	ldr	r2, [r3, #20]
 802515e:	f412 3200 	ands.w	r2, r2, #131072	; 0x20000
 8025162:	d111      	bne.n	8025188 <main+0x34>
 8025164:	f3bf 8f4f 	dsb	sy
 8025168:	f3bf 8f6f 	isb	sy
 802516c:	f8c3 2250 	str.w	r2, [r3, #592]	; 0x250
 8025170:	f3bf 8f4f 	dsb	sy
 8025174:	f3bf 8f6f 	isb	sy
 8025178:	695a      	ldr	r2, [r3, #20]
 802517a:	f442 3200 	orr.w	r2, r2, #131072	; 0x20000
 802517e:	615a      	str	r2, [r3, #20]
 8025180:	f3bf 8f4f 	dsb	sy
 8025184:	f3bf 8f6f 	isb	sy
 8025188:	4a1d      	ldr	r2, [pc, #116]	; (8025200 <main+0xac>)
 802518a:	6953      	ldr	r3, [r2, #20]
 802518c:	f413 3380 	ands.w	r3, r3, #65536	; 0x10000
 8025190:	d123      	bne.n	80251da <main+0x86>
 8025192:	f8c2 3084 	str.w	r3, [r2, #132]	; 0x84
 8025196:	f3bf 8f4f 	dsb	sy
 802519a:	f8d2 3080 	ldr.w	r3, [r2, #128]	; 0x80
 802519e:	f643 74e0 	movw	r4, #16352	; 0x3fe0
 80251a2:	f3c3 00c9 	ubfx	r0, r3, #3, #10
 80251a6:	f3c3 334e 	ubfx	r3, r3, #13, #15
 80251aa:	015b      	lsls	r3, r3, #5
 80251ac:	ea03 0604 	and.w	r6, r3, r4
 80251b0:	4601      	mov	r1, r0
 80251b2:	ea46 7581 	orr.w	r5, r6, r1, lsl #30
 80251b6:	3901      	subs	r1, #1
 80251b8:	f8c2 5260 	str.w	r5, [r2, #608]	; 0x260
 80251bc:	d2f9      	bcs.n	80251b2 <main+0x5e>
 80251be:	3b20      	subs	r3, #32
 80251c0:	f113 0f20 	cmn.w	r3, #32
 80251c4:	d1f2      	bne.n	80251ac <main+0x58>
 80251c6:	f3bf 8f4f 	dsb	sy
 80251ca:	6953      	ldr	r3, [r2, #20]
 80251cc:	f443 3380 	orr.w	r3, r3, #65536	; 0x10000
 80251d0:	6153      	str	r3, [r2, #20]
 80251d2:	f3bf 8f4f 	dsb	sy
 80251d6:	f3bf 8f6f 	isb	sy
 80251da:	f001 fa9b 	bl	8026714 <HAL_Init>
 80251de:	f7ff fc77 	bl	8024ad0 <SystemClock_Config>
 80251e2:	f7ff fe2b 	bl	8024e3c <InitPeripherals>
 80251e6:	f7ff fb55 	bl	8024894 <bsp_InitTimer>
 80251ea:	f7ff fbd7 	bl	802499c <bsp_InitUart>
 80251ee:	f7ff f9f3 	bl	80245d8 <bsp_InitSpiFlash>
 80251f2:	4b04      	ldr	r3, [pc, #16]	; (8025204 <main+0xb0>)
 80251f4:	2201      	movs	r2, #1
 80251f6:	701a      	strb	r2, [r3, #0]
 80251f8:	f7ff ff76 	bl	80250e8 <GCUInitialize>
 80251fc:	f7ff ffa0 	bl	8025140 <SerialProcess>
 8025200:	e000ed00 	.word	0xe000ed00
 8025204:	24001f34 	.word	0x24001f34

08025208 <Error_Handler>:
 8025208:	b672      	cpsid	i
 802520a:	e7fe      	b.n	802520a <Error_Handler+0x2>

0802520c <_out_null>:
 802520c:	4770      	bx	lr

0802520e <_out_rev>:
 802520e:	e92d 4ff8 	stmdb	sp!, {r3, r4, r5, r6, r7, r8, r9, sl, fp, lr}
 8025212:	4699      	mov	r9, r3
 8025214:	9b0d      	ldr	r3, [sp, #52]	; 0x34
 8025216:	4615      	mov	r5, r2
 8025218:	4606      	mov	r6, r0
 802521a:	079a      	lsls	r2, r3, #30
 802521c:	468b      	mov	fp, r1
 802521e:	e9dd 470b 	ldrd	r4, r7, [sp, #44]	; 0x2c
 8025222:	d022      	beq.n	802526a <_out_rev+0x5c>
 8025224:	462a      	mov	r2, r5
 8025226:	990a      	ldr	r1, [sp, #40]	; 0x28
 8025228:	eb01 0804 	add.w	r8, r1, r4
 802522c:	4414      	add	r4, r2
 802522e:	42a2      	cmp	r2, r4
 8025230:	d11f      	bne.n	8025272 <_out_rev+0x64>
 8025232:	9b0d      	ldr	r3, [sp, #52]	; 0x34
 8025234:	079b      	lsls	r3, r3, #30
 8025236:	d505      	bpl.n	8025244 <_out_rev+0x36>
 8025238:	eba2 0805 	sub.w	r8, r2, r5
 802523c:	4547      	cmp	r7, r8
 802523e:	eb05 0408 	add.w	r4, r5, r8
 8025242:	d81f      	bhi.n	8025284 <_out_rev+0x76>
 8025244:	4620      	mov	r0, r4
 8025246:	e8bd 8ff8 	ldmia.w	sp!, {r3, r4, r5, r6, r7, r8, r9, sl, fp, pc}
 802524a:	f108 0801 	add.w	r8, r8, #1
 802524e:	464b      	mov	r3, r9
 8025250:	4659      	mov	r1, fp
 8025252:	2020      	movs	r0, #32
 8025254:	47b0      	blx	r6
 8025256:	45b8      	cmp	r8, r7
 8025258:	eb0a 0208 	add.w	r2, sl, r8
 802525c:	d3f5      	bcc.n	802524a <_out_rev+0x3c>
 802525e:	1b3a      	subs	r2, r7, r4
 8025260:	42bc      	cmp	r4, r7
 8025262:	bf88      	it	hi
 8025264:	2200      	movhi	r2, #0
 8025266:	442a      	add	r2, r5
 8025268:	e7dd      	b.n	8025226 <_out_rev+0x18>
 802526a:	46a0      	mov	r8, r4
 802526c:	eba5 0a04 	sub.w	sl, r5, r4
 8025270:	e7f1      	b.n	8025256 <_out_rev+0x48>
 8025272:	f102 0a01 	add.w	sl, r2, #1
 8025276:	464b      	mov	r3, r9
 8025278:	4659      	mov	r1, fp
 802527a:	f818 0d01 	ldrb.w	r0, [r8, #-1]!
 802527e:	47b0      	blx	r6
 8025280:	4652      	mov	r2, sl
 8025282:	e7d4      	b.n	802522e <_out_rev+0x20>
 8025284:	464b      	mov	r3, r9
 8025286:	4622      	mov	r2, r4
 8025288:	4659      	mov	r1, fp
 802528a:	2020      	movs	r0, #32
 802528c:	f108 0801 	add.w	r8, r8, #1
 8025290:	47b0      	blx	r6
 8025292:	e7d3      	b.n	802523c <_out_rev+0x2e>

08025294 <_ntoa_format>:
 8025294:	e92d 47f0 	stmdb	sp!, {r4, r5, r6, r7, r8, r9, sl, lr}
 8025298:	e9dd 760d 	ldrd	r7, r6, [sp, #52]	; 0x34
 802529c:	e9dd 5408 	ldrd	r5, r4, [sp, #32]
 80252a0:	f016 0f02 	tst.w	r6, #2
 80252a4:	f89d e028 	ldrb.w	lr, [sp, #40]	; 0x28
 80252a8:	e9dd c80b 	ldrd	ip, r8, [sp, #44]	; 0x2c
 80252ac:	d11f      	bne.n	80252ee <_ntoa_format+0x5a>
 80252ae:	f006 0901 	and.w	r9, r6, #1
 80252b2:	b14f      	cbz	r7, 80252c8 <_ntoa_format+0x34>
 80252b4:	f1b9 0f00 	cmp.w	r9, #0
 80252b8:	d006      	beq.n	80252c8 <_ntoa_format+0x34>
 80252ba:	f1be 0f00 	cmp.w	lr, #0
 80252be:	d102      	bne.n	80252c6 <_ntoa_format+0x32>
 80252c0:	f016 0f0c 	tst.w	r6, #12
 80252c4:	d000      	beq.n	80252c8 <_ntoa_format+0x34>
 80252c6:	3f01      	subs	r7, #1
 80252c8:	f04f 0a30 	mov.w	sl, #48	; 0x30
 80252cc:	e004      	b.n	80252d8 <_ntoa_format+0x44>
 80252ce:	2c20      	cmp	r4, #32
 80252d0:	d004      	beq.n	80252dc <_ntoa_format+0x48>
 80252d2:	f805 a004 	strb.w	sl, [r5, r4]
 80252d6:	3401      	adds	r4, #1
 80252d8:	45a0      	cmp	r8, r4
 80252da:	d8f8      	bhi.n	80252ce <_ntoa_format+0x3a>
 80252dc:	f04f 0a30 	mov.w	sl, #48	; 0x30
 80252e0:	f1b9 0f00 	cmp.w	r9, #0
 80252e4:	d003      	beq.n	80252ee <_ntoa_format+0x5a>
 80252e6:	42bc      	cmp	r4, r7
 80252e8:	d201      	bcs.n	80252ee <_ntoa_format+0x5a>
 80252ea:	2c1f      	cmp	r4, #31
 80252ec:	d934      	bls.n	8025358 <_ntoa_format+0xc4>
 80252ee:	f016 0f10 	tst.w	r6, #16
 80252f2:	d01f      	beq.n	8025334 <_ntoa_format+0xa0>
 80252f4:	f416 6f80 	tst.w	r6, #1024	; 0x400
 80252f8:	d133      	bne.n	8025362 <_ntoa_format+0xce>
 80252fa:	b394      	cbz	r4, 8025362 <_ntoa_format+0xce>
 80252fc:	4544      	cmp	r4, r8
 80252fe:	d001      	beq.n	8025304 <_ntoa_format+0x70>
 8025300:	42bc      	cmp	r4, r7
 8025302:	d12e      	bne.n	8025362 <_ntoa_format+0xce>
 8025304:	f1b4 0801 	subs.w	r8, r4, #1
 8025308:	d02a      	beq.n	8025360 <_ntoa_format+0xcc>
 802530a:	f1bc 0f10 	cmp.w	ip, #16
 802530e:	d133      	bne.n	8025378 <_ntoa_format+0xe4>
 8025310:	3c02      	subs	r4, #2
 8025312:	f016 0f20 	tst.w	r6, #32
 8025316:	d131      	bne.n	802537c <_ntoa_format+0xe8>
 8025318:	2c1f      	cmp	r4, #31
 802531a:	d815      	bhi.n	8025348 <_ntoa_format+0xb4>
 802531c:	f04f 0c78 	mov.w	ip, #120	; 0x78
 8025320:	f805 c004 	strb.w	ip, [r5, r4]
 8025324:	3401      	adds	r4, #1
 8025326:	2c1f      	cmp	r4, #31
 8025328:	d80e      	bhi.n	8025348 <_ntoa_format+0xb4>
 802532a:	f04f 0c30 	mov.w	ip, #48	; 0x30
 802532e:	f805 c004 	strb.w	ip, [r5, r4]
 8025332:	3401      	adds	r4, #1
 8025334:	2c1f      	cmp	r4, #31
 8025336:	d807      	bhi.n	8025348 <_ntoa_format+0xb4>
 8025338:	f1be 0f00 	cmp.w	lr, #0
 802533c:	d023      	beq.n	8025386 <_ntoa_format+0xf2>
 802533e:	f04f 0c2d 	mov.w	ip, #45	; 0x2d
 8025342:	f805 c004 	strb.w	ip, [r5, r4]
 8025346:	3401      	adds	r4, #1
 8025348:	e9cd 760a 	strd	r7, r6, [sp, #40]	; 0x28
 802534c:	e9cd 5408 	strd	r5, r4, [sp, #32]
 8025350:	e8bd 47f0 	ldmia.w	sp!, {r4, r5, r6, r7, r8, r9, sl, lr}
 8025354:	f7ff bf5b 	b.w	802520e <_out_rev>
 8025358:	f805 a004 	strb.w	sl, [r5, r4]
 802535c:	3401      	adds	r4, #1
 802535e:	e7bf      	b.n	80252e0 <_ntoa_format+0x4c>
 8025360:	4644      	mov	r4, r8
 8025362:	f1bc 0f10 	cmp.w	ip, #16
 8025366:	d0d4      	beq.n	8025312 <_ntoa_format+0x7e>
 8025368:	f1bc 0f02 	cmp.w	ip, #2
 802536c:	d1db      	bne.n	8025326 <_ntoa_format+0x92>
 802536e:	2c1f      	cmp	r4, #31
 8025370:	d8ea      	bhi.n	8025348 <_ntoa_format+0xb4>
 8025372:	f04f 0c62 	mov.w	ip, #98	; 0x62
 8025376:	e7d3      	b.n	8025320 <_ntoa_format+0x8c>
 8025378:	4644      	mov	r4, r8
 802537a:	e7f5      	b.n	8025368 <_ntoa_format+0xd4>
 802537c:	2c1f      	cmp	r4, #31
 802537e:	d8e3      	bhi.n	8025348 <_ntoa_format+0xb4>
 8025380:	f04f 0c58 	mov.w	ip, #88	; 0x58
 8025384:	e7cc      	b.n	8025320 <_ntoa_format+0x8c>
 8025386:	f016 0f04 	tst.w	r6, #4
 802538a:	d002      	beq.n	8025392 <_ntoa_format+0xfe>
 802538c:	f04f 0c2b 	mov.w	ip, #43	; 0x2b
 8025390:	e7d7      	b.n	8025342 <_ntoa_format+0xae>
 8025392:	f016 0f08 	tst.w	r6, #8
 8025396:	d0d7      	beq.n	8025348 <_ntoa_format+0xb4>
 8025398:	f04f 0c20 	mov.w	ip, #32
 802539c:	e7d1      	b.n	8025342 <_ntoa_format+0xae>

0802539e <_ntoa_long>:
 802539e:	e92d 43f0 	stmdb	sp!, {r4, r5, r6, r7, r8, r9, lr}
 80253a2:	b091      	sub	sp, #68	; 0x44
 80253a4:	9d18      	ldr	r5, [sp, #96]	; 0x60
 80253a6:	9e1a      	ldr	r6, [sp, #104]	; 0x68
 80253a8:	9f1d      	ldr	r7, [sp, #116]	; 0x74
 80253aa:	b90d      	cbnz	r5, 80253b0 <_ntoa_long+0x12>
 80253ac:	f027 0710 	bic.w	r7, r7, #16
 80253b0:	057c      	lsls	r4, r7, #21
 80253b2:	d500      	bpl.n	80253b6 <_ntoa_long+0x18>
 80253b4:	b315      	cbz	r5, 80253fc <_ntoa_long+0x5e>
 80253b6:	f017 0f20 	tst.w	r7, #32
 80253ba:	46ac      	mov	ip, r5
 80253bc:	f10d 0820 	add.w	r8, sp, #32
 80253c0:	f04f 0500 	mov.w	r5, #0
 80253c4:	bf14      	ite	ne
 80253c6:	f04f 0e41 	movne.w	lr, #65	; 0x41
 80253ca:	f04f 0e61 	moveq.w	lr, #97	; 0x61
 80253ce:	f1ae 0e0a 	sub.w	lr, lr, #10
 80253d2:	3501      	adds	r5, #1
 80253d4:	fbbc f9f6 	udiv	r9, ip, r6
 80253d8:	fb06 c919 	mls	r9, r6, r9, ip
 80253dc:	fa5f f489 	uxtb.w	r4, r9
 80253e0:	f1b9 0f09 	cmp.w	r9, #9
 80253e4:	bf94      	ite	ls
 80253e6:	3430      	addls	r4, #48	; 0x30
 80253e8:	4474      	addhi	r4, lr
 80253ea:	45b4      	cmp	ip, r6
 80253ec:	b2e4      	uxtb	r4, r4
 80253ee:	f808 4b01 	strb.w	r4, [r8], #1
 80253f2:	fbbc f4f6 	udiv	r4, ip, r6
 80253f6:	d301      	bcc.n	80253fc <_ntoa_long+0x5e>
 80253f8:	2d20      	cmp	r5, #32
 80253fa:	d110      	bne.n	802541e <_ntoa_long+0x80>
 80253fc:	9c1c      	ldr	r4, [sp, #112]	; 0x70
 80253fe:	9706      	str	r7, [sp, #24]
 8025400:	9405      	str	r4, [sp, #20]
 8025402:	9c1b      	ldr	r4, [sp, #108]	; 0x6c
 8025404:	e9cd 6403 	strd	r6, r4, [sp, #12]
 8025408:	f89d 4064 	ldrb.w	r4, [sp, #100]	; 0x64
 802540c:	e9cd 5401 	strd	r5, r4, [sp, #4]
 8025410:	ac08      	add	r4, sp, #32
 8025412:	9400      	str	r4, [sp, #0]
 8025414:	f7ff ff3e 	bl	8025294 <_ntoa_format>
 8025418:	b011      	add	sp, #68	; 0x44
 802541a:	e8bd 83f0 	ldmia.w	sp!, {r4, r5, r6, r7, r8, r9, pc}
 802541e:	46a4      	mov	ip, r4
 8025420:	e7d7      	b.n	80253d2 <_ntoa_long+0x34>

08025422 <_ntoa_long_long>:
 8025422:	e92d 4ff0 	stmdb	sp!, {r4, r5, r6, r7, r8, r9, sl, fp, lr}
 8025426:	ed2d 8b04 	vpush	{d8-d9}
 802542a:	b093      	sub	sp, #76	; 0x4c
 802542c:	469a      	mov	sl, r3
 802542e:	ee09 2a10 	vmov	s18, r2
 8025432:	ee08 0a10 	vmov	s16, r0
 8025436:	9f28      	ldr	r7, [sp, #160]	; 0xa0
 8025438:	ee08 1a90 	vmov	s17, r1
 802543c:	e9dd 6520 	ldrd	r6, r5, [sp, #128]	; 0x80
 8025440:	e9dd b924 	ldrd	fp, r9, [sp, #144]	; 0x90
 8025444:	ea56 0305 	orrs.w	r3, r6, r5
 8025448:	bf08      	it	eq
 802544a:	f027 0710 	biceq.w	r7, r7, #16
 802544e:	057a      	lsls	r2, r7, #21
 8025450:	d502      	bpl.n	8025458 <_ntoa_long_long+0x36>
 8025452:	ea56 0305 	orrs.w	r3, r6, r5
 8025456:	d03d      	beq.n	80254d4 <_ntoa_long_long+0xb2>
 8025458:	f017 0f20 	tst.w	r7, #32
 802545c:	f10d 0828 	add.w	r8, sp, #40	; 0x28
 8025460:	f04f 0400 	mov.w	r4, #0
 8025464:	bf14      	ite	ne
 8025466:	2341      	movne	r3, #65	; 0x41
 8025468:	2361      	moveq	r3, #97	; 0x61
 802546a:	3b0a      	subs	r3, #10
 802546c:	9309      	str	r3, [sp, #36]	; 0x24
 802546e:	465a      	mov	r2, fp
 8025470:	464b      	mov	r3, r9
 8025472:	4630      	mov	r0, r6
 8025474:	4629      	mov	r1, r5
 8025476:	f7fa ff83 	bl	8020380 <__aeabi_uldivmod>
 802547a:	3401      	adds	r4, #1
 802547c:	b2d2      	uxtb	r2, r2
 802547e:	2a09      	cmp	r2, #9
 8025480:	bf8a      	itet	hi
 8025482:	9b09      	ldrhi	r3, [sp, #36]	; 0x24
 8025484:	3230      	addls	r2, #48	; 0x30
 8025486:	18d2      	addhi	r2, r2, r3
 8025488:	455e      	cmp	r6, fp
 802548a:	b2d2      	uxtb	r2, r2
 802548c:	eb75 0309 	sbcs.w	r3, r5, r9
 8025490:	f808 2b01 	strb.w	r2, [r8], #1
 8025494:	d301      	bcc.n	802549a <_ntoa_long_long+0x78>
 8025496:	2c20      	cmp	r4, #32
 8025498:	d119      	bne.n	80254ce <_ntoa_long_long+0xac>
 802549a:	9b27      	ldr	r3, [sp, #156]	; 0x9c
 802549c:	ee19 2a10 	vmov	r2, s18
 80254a0:	ee18 1a90 	vmov	r1, s17
 80254a4:	ee18 0a10 	vmov	r0, s16
 80254a8:	9305      	str	r3, [sp, #20]
 80254aa:	9b26      	ldr	r3, [sp, #152]	; 0x98
 80254ac:	9706      	str	r7, [sp, #24]
 80254ae:	e9cd b303 	strd	fp, r3, [sp, #12]
 80254b2:	f89d 3088 	ldrb.w	r3, [sp, #136]	; 0x88
 80254b6:	e9cd 4301 	strd	r4, r3, [sp, #4]
 80254ba:	ab0a      	add	r3, sp, #40	; 0x28
 80254bc:	9300      	str	r3, [sp, #0]
 80254be:	4653      	mov	r3, sl
 80254c0:	f7ff fee8 	bl	8025294 <_ntoa_format>
 80254c4:	b013      	add	sp, #76	; 0x4c
 80254c6:	ecbd 8b04 	vpop	{d8-d9}
 80254ca:	e8bd 8ff0 	ldmia.w	sp!, {r4, r5, r6, r7, r8, r9, sl, fp, pc}
 80254ce:	4606      	mov	r6, r0
 80254d0:	460d      	mov	r5, r1
 80254d2:	e7cc      	b.n	802546e <_ntoa_long_long+0x4c>
 80254d4:	2400      	movs	r4, #0
 80254d6:	e7e0      	b.n	802549a <_ntoa_long_long+0x78>

080254d8 <_etoa>:
 80254d8:	eeb4 0b40 	vcmp.f64	d0, d0
 80254dc:	e92d 4ff0 	stmdb	sp!, {r4, r5, r6, r7, r8, r9, sl, fp, lr}
 80254e0:	eef1 fa10 	vmrs	APSR_nzcv, fpscr
 80254e4:	4690      	mov	r8, r2
 80254e6:	4607      	mov	r7, r0
 80254e8:	ed2d 8b02 	vpush	{d8}
 80254ec:	b089      	sub	sp, #36	; 0x24
 80254ee:	e9dd 2914 	ldrd	r2, r9, [sp, #80]	; 0x50
 80254f2:	9d16      	ldr	r5, [sp, #88]	; 0x58
 80254f4:	d10d      	bne.n	8025512 <_etoa+0x3a>
 80254f6:	ed9f 7b90 	vldr	d7, [pc, #576]	; 8025738 <_etoa+0x260>
 80254fa:	eeb4 0bc7 	vcmpe.f64	d0, d7
 80254fe:	eef1 fa10 	vmrs	APSR_nzcv, fpscr
 8025502:	dc06      	bgt.n	8025512 <_etoa+0x3a>
 8025504:	ed9f 7b8e 	vldr	d7, [pc, #568]	; 8025740 <_etoa+0x268>
 8025508:	eeb4 0bc7 	vcmpe.f64	d0, d7
 802550c:	eef1 fa10 	vmrs	APSR_nzcv, fpscr
 8025510:	d50b      	bpl.n	802552a <_etoa+0x52>
 8025512:	9214      	str	r2, [sp, #80]	; 0x50
 8025514:	4638      	mov	r0, r7
 8025516:	4642      	mov	r2, r8
 8025518:	e9cd 9515 	strd	r9, r5, [sp, #84]	; 0x54
 802551c:	b009      	add	sp, #36	; 0x24
 802551e:	ecbd 8b02 	vpop	{d8}
 8025522:	e8bd 4ff0 	ldmia.w	sp!, {r4, r5, r6, r7, r8, r9, sl, fp, lr}
 8025526:	f000 b92f 	b.w	8025788 <_ftoa>
 802552a:	eeb5 0bc0 	vcmpe.f64	d0, #0.0
 802552e:	eef1 fa10 	vmrs	APSR_nzcv, fpscr
 8025532:	f140 80ef 	bpl.w	8025714 <_etoa+0x23c>
 8025536:	eeb1 7b40 	vneg.f64	d7, d0
 802553a:	ee17 6a90 	vmov	r6, s15
 802553e:	ee17 aa10 	vmov	sl, s14
 8025542:	f415 6080 	ands.w	r0, r5, #1024	; 0x400
 8025546:	f3c6 540a 	ubfx	r4, r6, #20, #11
 802554a:	f3c6 0613 	ubfx	r6, r6, #0, #20
 802554e:	bf08      	it	eq
 8025550:	2206      	moveq	r2, #6
 8025552:	f2a4 34ff 	subw	r4, r4, #1023	; 0x3ff
 8025556:	f046 5b7f 	orr.w	fp, r6, #1069547520	; 0x3fc00000
 802555a:	ee06 4a90 	vmov	s13, r4
 802555e:	f44b 1b40 	orr.w	fp, fp, #3145728	; 0x300000
 8025562:	eeb8 6be6 	vcvt.f64.s32	d6, s13
 8025566:	ed9f 4b78 	vldr	d4, [pc, #480]	; 8025748 <_etoa+0x270>
 802556a:	ed9f 5b79 	vldr	d5, [pc, #484]	; 8025750 <_etoa+0x278>
 802556e:	eea6 5b04 	vfma.f64	d5, d6, d4
 8025572:	eeb7 6b08 	vmov.f64	d6, #120	; 0x3fc00000  1.5
 8025576:	ec4b ab14 	vmov	d4, sl, fp
 802557a:	ee34 6b46 	vsub.f64	d6, d4, d6
 802557e:	f04f 0a00 	mov.w	sl, #0
 8025582:	ed9f 4b75 	vldr	d4, [pc, #468]	; 8025758 <_etoa+0x280>
 8025586:	eea6 5b04 	vfma.f64	d5, d6, d4
 802558a:	eefd 6bc5 	vcvt.s32.f64	s13, d5
 802558e:	ed9f 5b74 	vldr	d5, [pc, #464]	; 8025760 <_etoa+0x288>
 8025592:	eeb8 4be6 	vcvt.f64.s32	d4, s13
 8025596:	ee16 4a90 	vmov	r4, s13
 802559a:	eeb6 6b00 	vmov.f64	d6, #96	; 0x3f000000  0.5
 802559e:	eea4 6b05 	vfma.f64	d6, d4, d5
 80255a2:	eefd 5bc6 	vcvt.s32.f64	s11, d6
 80255a6:	ed9f 6b70 	vldr	d6, [pc, #448]	; 8025768 <_etoa+0x290>
 80255aa:	eeb8 3be5 	vcvt.f64.s32	d3, s11
 80255ae:	ee15 6a90 	vmov	r6, s11
 80255b2:	f206 36ff 	addw	r6, r6, #1023	; 0x3ff
 80255b6:	ee26 6b43 	vnmul.f64	d6, d6, d3
 80255ba:	ea4f 5b06 	mov.w	fp, r6, lsl #20
 80255be:	ed9f 3b6c 	vldr	d3, [pc, #432]	; 8025770 <_etoa+0x298>
 80255c2:	ec4b ab15 	vmov	d5, sl, fp
 80255c6:	eea4 6b03 	vfma.f64	d6, d4, d3
 80255ca:	eeb2 3b0c 	vmov.f64	d3, #44	; 0x41600000  14.0
 80255ce:	ee26 8b06 	vmul.f64	d8, d6, d6
 80255d2:	ee36 1b06 	vadd.f64	d1, d6, d6
 80255d6:	ee88 4b03 	vdiv.f64	d4, d8, d3
 80255da:	eeb2 3b04 	vmov.f64	d3, #36	; 0x41200000  10.0
 80255de:	ee34 4b03 	vadd.f64	d4, d4, d3
 80255e2:	ee88 2b04 	vdiv.f64	d2, d8, d4
 80255e6:	eeb1 4b08 	vmov.f64	d4, #24	; 0x40c00000  6.0
 80255ea:	ee32 2b04 	vadd.f64	d2, d2, d4
 80255ee:	ee88 4b02 	vdiv.f64	d4, d8, d2
 80255f2:	eeb0 2b00 	vmov.f64	d2, #0	; 0x40000000  2.0
 80255f6:	ee32 6b46 	vsub.f64	d6, d2, d6
 80255fa:	ee34 4b06 	vadd.f64	d4, d4, d6
 80255fe:	ee81 6b04 	vdiv.f64	d6, d1, d4
 8025602:	eeb7 4b00 	vmov.f64	d4, #112	; 0x3f800000  1.0
 8025606:	ee36 6b04 	vadd.f64	d6, d6, d4
 802560a:	ee26 6b05 	vmul.f64	d6, d6, d5
 802560e:	eeb4 6bc7 	vcmpe.f64	d6, d7
 8025612:	eef1 fa10 	vmrs	APSR_nzcv, fpscr
 8025616:	bfc4      	itt	gt
 8025618:	f104 34ff 	addgt.w	r4, r4, #4294967295
 802561c:	ee86 5b03 	vdivgt.f64	d5, d6, d3
 8025620:	f104 0663 	add.w	r6, r4, #99	; 0x63
 8025624:	bfd8      	it	le
 8025626:	eeb0 5b46 	vmovle.f64	d5, d6
 802562a:	2ec7      	cmp	r6, #199	; 0xc7
 802562c:	bf34      	ite	cc
 802562e:	2604      	movcc	r6, #4
 8025630:	2605      	movcs	r6, #5
 8025632:	f415 6f00 	tst.w	r5, #2048	; 0x800
 8025636:	d019      	beq.n	802566c <_etoa+0x194>
 8025638:	ed9f 6b4f 	vldr	d6, [pc, #316]	; 8025778 <_etoa+0x2a0>
 802563c:	eeb4 7bc6 	vcmpe.f64	d7, d6
 8025640:	eef1 fa10 	vmrs	APSR_nzcv, fpscr
 8025644:	db69      	blt.n	802571a <_etoa+0x242>
 8025646:	ed9f 6b4e 	vldr	d6, [pc, #312]	; 8025780 <_etoa+0x2a8>
 802564a:	eeb4 7bc6 	vcmpe.f64	d7, d6
 802564e:	eef1 fa10 	vmrs	APSR_nzcv, fpscr
 8025652:	d562      	bpl.n	802571a <_etoa+0x242>
 8025654:	42a2      	cmp	r2, r4
 8025656:	f04f 0600 	mov.w	r6, #0
 802565a:	f445 6580 	orr.w	r5, r5, #1024	; 0x400
 802565e:	bfcc      	ite	gt
 8025660:	1b12      	subgt	r2, r2, r4
 8025662:	2200      	movle	r2, #0
 8025664:	4634      	mov	r4, r6
 8025666:	bfc8      	it	gt
 8025668:	f102 32ff 	addgt.w	r2, r2, #4294967295
 802566c:	454e      	cmp	r6, r9
 802566e:	bf34      	ite	cc
 8025670:	eba9 0006 	subcc.w	r0, r9, r6
 8025674:	2000      	movcs	r0, #0
 8025676:	f015 0a02 	ands.w	sl, r5, #2
 802567a:	d002      	beq.n	8025682 <_etoa+0x1aa>
 802567c:	2e00      	cmp	r6, #0
 802567e:	bf18      	it	ne
 8025680:	2000      	movne	r0, #0
 8025682:	b10c      	cbz	r4, 8025688 <_etoa+0x1b0>
 8025684:	ee87 7b05 	vdiv.f64	d7, d7, d5
 8025688:	f425 6c00 	bic.w	ip, r5, #2048	; 0x800
 802568c:	9200      	str	r2, [sp, #0]
 802568e:	4642      	mov	r2, r8
 8025690:	9307      	str	r3, [sp, #28]
 8025692:	9106      	str	r1, [sp, #24]
 8025694:	eeb5 0bc0 	vcmpe.f64	d0, #0.0
 8025698:	e9cd 0c01 	strd	r0, ip, [sp, #4]
 802569c:	eef1 fa10 	vmrs	APSR_nzcv, fpscr
 80256a0:	4638      	mov	r0, r7
 80256a2:	bf48      	it	mi
 80256a4:	eeb1 7b47 	vnegmi.f64	d7, d7
 80256a8:	eeb0 0b47 	vmov.f64	d0, d7
 80256ac:	f000 f86c 	bl	8025788 <_ftoa>
 80256b0:	b35e      	cbz	r6, 802570a <_etoa+0x232>
 80256b2:	f015 0f20 	tst.w	r5, #32
 80256b6:	4602      	mov	r2, r0
 80256b8:	f100 0501 	add.w	r5, r0, #1
 80256bc:	9b07      	ldr	r3, [sp, #28]
 80256be:	bf14      	ite	ne
 80256c0:	2045      	movne	r0, #69	; 0x45
 80256c2:	2065      	moveq	r0, #101	; 0x65
 80256c4:	9906      	ldr	r1, [sp, #24]
 80256c6:	3e01      	subs	r6, #1
 80256c8:	47b8      	blx	r7
 80256ca:	2205      	movs	r2, #5
 80256cc:	2300      	movs	r3, #0
 80256ce:	2c00      	cmp	r4, #0
 80256d0:	9205      	str	r2, [sp, #20]
 80256d2:	f04f 020a 	mov.w	r2, #10
 80256d6:	9906      	ldr	r1, [sp, #24]
 80256d8:	4638      	mov	r0, r7
 80256da:	9604      	str	r6, [sp, #16]
 80256dc:	e9cd 2302 	strd	r2, r3, [sp, #8]
 80256e0:	ea4f 72d4 	mov.w	r2, r4, lsr #31
 80256e4:	bfb8      	it	lt
 80256e6:	4264      	neglt	r4, r4
 80256e8:	9b07      	ldr	r3, [sp, #28]
 80256ea:	9201      	str	r2, [sp, #4]
 80256ec:	462a      	mov	r2, r5
 80256ee:	9400      	str	r4, [sp, #0]
 80256f0:	f7ff fe55 	bl	802539e <_ntoa_long>
 80256f4:	f1ba 0f00 	cmp.w	sl, #0
 80256f8:	d007      	beq.n	802570a <_etoa+0x232>
 80256fa:	eba0 0408 	sub.w	r4, r0, r8
 80256fe:	e9dd 1306 	ldrd	r1, r3, [sp, #24]
 8025702:	45a1      	cmp	r9, r4
 8025704:	eb08 0004 	add.w	r0, r8, r4
 8025708:	d80d      	bhi.n	8025726 <_etoa+0x24e>
 802570a:	b009      	add	sp, #36	; 0x24
 802570c:	ecbd 8b02 	vpop	{d8}
 8025710:	e8bd 8ff0 	ldmia.w	sp!, {r4, r5, r6, r7, r8, r9, sl, fp, pc}
 8025714:	eeb0 7b40 	vmov.f64	d7, d0
 8025718:	e70f      	b.n	802553a <_etoa+0x62>
 802571a:	2a00      	cmp	r2, #0
 802571c:	d0a6      	beq.n	802566c <_etoa+0x194>
 802571e:	2800      	cmp	r0, #0
 8025720:	d0a4      	beq.n	802566c <_etoa+0x194>
 8025722:	3a01      	subs	r2, #1
 8025724:	e7a2      	b.n	802566c <_etoa+0x194>
 8025726:	4602      	mov	r2, r0
 8025728:	2020      	movs	r0, #32
 802572a:	9307      	str	r3, [sp, #28]
 802572c:	3401      	adds	r4, #1
 802572e:	9106      	str	r1, [sp, #24]
 8025730:	47b8      	blx	r7
 8025732:	e9dd 1306 	ldrd	r1, r3, [sp, #24]
 8025736:	e7e4      	b.n	8025702 <_etoa+0x22a>
 8025738:	ffffffff 	.word	0xffffffff
 802573c:	7fefffff 	.word	0x7fefffff
 8025740:	ffffffff 	.word	0xffffffff
 8025744:	ffefffff 	.word	0xffefffff
 8025748:	509f79fb 	.word	0x509f79fb
 802574c:	3fd34413 	.word	0x3fd34413
 8025750:	8b60c8b3 	.word	0x8b60c8b3
 8025754:	3fc68a28 	.word	0x3fc68a28
 8025758:	636f4361 	.word	0x636f4361
 802575c:	3fd287a7 	.word	0x3fd287a7
 8025760:	0979a371 	.word	0x0979a371
 8025764:	400a934f 	.word	0x400a934f
 8025768:	fefa39ef 	.word	0xfefa39ef
 802576c:	3fe62e42 	.word	0x3fe62e42
 8025770:	bbb55516 	.word	0xbbb55516
 8025774:	40026bb1 	.word	0x40026bb1
 8025778:	eb1c432d 	.word	0xeb1c432d
 802577c:	3f1a36e2 	.word	0x3f1a36e2
 8025780:	00000000 	.word	0x00000000
 8025784:	412e8480 	.word	0x412e8480

08025788 <_ftoa>:
 8025788:	eeb4 0b40 	vcmp.f64	d0, d0
 802578c:	e92d 4ff0 	stmdb	sp!, {r4, r5, r6, r7, r8, r9, sl, fp, lr}
 8025790:	eef1 fa10 	vmrs	APSR_nzcv, fpscr
 8025794:	b08d      	sub	sp, #52	; 0x34
 8025796:	4680      	mov	r8, r0
 8025798:	4689      	mov	r9, r1
 802579a:	4692      	mov	sl, r2
 802579c:	469b      	mov	fp, r3
 802579e:	f8dd c060 	ldr.w	ip, [sp, #96]	; 0x60
 80257a2:	e9dd 5e16 	ldrd	r5, lr, [sp, #88]	; 0x58
 80257a6:	d00a      	beq.n	80257be <_ftoa+0x36>
 80257a8:	2403      	movs	r4, #3
 80257aa:	9401      	str	r4, [sp, #4]
 80257ac:	4c98      	ldr	r4, [pc, #608]	; (8025a10 <_ftoa+0x288>)
 80257ae:	e9cd ec02 	strd	lr, ip, [sp, #8]
 80257b2:	9400      	str	r4, [sp, #0]
 80257b4:	f7ff fd2b 	bl	802520e <_out_rev>
 80257b8:	b00d      	add	sp, #52	; 0x34
 80257ba:	e8bd 8ff0 	ldmia.w	sp!, {r4, r5, r6, r7, r8, r9, sl, fp, pc}
 80257be:	ed9f 7b8a 	vldr	d7, [pc, #552]	; 80259e8 <_ftoa+0x260>
 80257c2:	eeb4 0bc7 	vcmpe.f64	d0, d7
 80257c6:	eef1 fa10 	vmrs	APSR_nzcv, fpscr
 80257ca:	d505      	bpl.n	80257d8 <_ftoa+0x50>
 80257cc:	2404      	movs	r4, #4
 80257ce:	e9cd ec02 	strd	lr, ip, [sp, #8]
 80257d2:	9401      	str	r4, [sp, #4]
 80257d4:	4c8f      	ldr	r4, [pc, #572]	; (8025a14 <_ftoa+0x28c>)
 80257d6:	e7ec      	b.n	80257b2 <_ftoa+0x2a>
 80257d8:	ed9f 7b85 	vldr	d7, [pc, #532]	; 80259f0 <_ftoa+0x268>
 80257dc:	eeb4 0bc7 	vcmpe.f64	d0, d7
 80257e0:	eef1 fa10 	vmrs	APSR_nzcv, fpscr
 80257e4:	dd0c      	ble.n	8025800 <_ftoa+0x78>
 80257e6:	f00c 0404 	and.w	r4, ip, #4
 80257ea:	4d8b      	ldr	r5, [pc, #556]	; (8025a18 <_ftoa+0x290>)
 80257ec:	2c00      	cmp	r4, #0
 80257ee:	4c8b      	ldr	r4, [pc, #556]	; (8025a1c <_ftoa+0x294>)
 80257f0:	bf0e      	itee	eq
 80257f2:	2503      	moveq	r5, #3
 80257f4:	462c      	movne	r4, r5
 80257f6:	2504      	movne	r5, #4
 80257f8:	e9cd ec02 	strd	lr, ip, [sp, #8]
 80257fc:	9501      	str	r5, [sp, #4]
 80257fe:	e7d8      	b.n	80257b2 <_ftoa+0x2a>
 8025800:	ed9f 7b7d 	vldr	d7, [pc, #500]	; 80259f8 <_ftoa+0x270>
 8025804:	eeb4 0bc7 	vcmpe.f64	d0, d7
 8025808:	eef1 fa10 	vmrs	APSR_nzcv, fpscr
 802580c:	dc06      	bgt.n	802581c <_ftoa+0x94>
 802580e:	ed9f 7b7c 	vldr	d7, [pc, #496]	; 8025a00 <_ftoa+0x278>
 8025812:	eeb4 0bc7 	vcmpe.f64	d0, d7
 8025816:	eef1 fa10 	vmrs	APSR_nzcv, fpscr
 802581a:	d50b      	bpl.n	8025834 <_ftoa+0xac>
 802581c:	465b      	mov	r3, fp
 802581e:	4652      	mov	r2, sl
 8025820:	4649      	mov	r1, r9
 8025822:	4640      	mov	r0, r8
 8025824:	9516      	str	r5, [sp, #88]	; 0x58
 8025826:	e9cd ec17 	strd	lr, ip, [sp, #92]	; 0x5c
 802582a:	b00d      	add	sp, #52	; 0x34
 802582c:	e8bd 4ff0 	ldmia.w	sp!, {r4, r5, r6, r7, r8, r9, sl, fp, lr}
 8025830:	f7ff be52 	b.w	80254d8 <_etoa>
 8025834:	eeb5 0bc0 	vcmpe.f64	d0, #0.0
 8025838:	eef1 fa10 	vmrs	APSR_nzcv, fpscr
 802583c:	d556      	bpl.n	80258ec <_ftoa+0x164>
 802583e:	2301      	movs	r3, #1
 8025840:	ed9f 7b71 	vldr	d7, [pc, #452]	; 8025a08 <_ftoa+0x280>
 8025844:	ee37 0b40 	vsub.f64	d0, d7, d0
 8025848:	f41c 6f80 	tst.w	ip, #1024	; 0x400
 802584c:	aa04      	add	r2, sp, #16
 802584e:	f04f 0030 	mov.w	r0, #48	; 0x30
 8025852:	bf08      	it	eq
 8025854:	2506      	moveq	r5, #6
 8025856:	f1a5 0120 	sub.w	r1, r5, #32
 802585a:	462f      	mov	r7, r5
 802585c:	2f09      	cmp	r7, #9
 802585e:	eba5 0407 	sub.w	r4, r5, r7
 8025862:	d905      	bls.n	8025870 <_ftoa+0xe8>
 8025864:	3f01      	subs	r7, #1
 8025866:	f802 0b01 	strb.w	r0, [r2], #1
 802586a:	42b9      	cmp	r1, r7
 802586c:	d1f6      	bne.n	802585c <_ftoa+0xd4>
 802586e:	2420      	movs	r4, #32
 8025870:	eefd 7bc0 	vcvt.s32.f64	s15, d0
 8025874:	4a6a      	ldr	r2, [pc, #424]	; (8025a20 <_ftoa+0x298>)
 8025876:	eb02 02c7 	add.w	r2, r2, r7, lsl #3
 802587a:	ee17 5a90 	vmov	r5, s15
 802587e:	eeb8 7be7 	vcvt.f64.s32	d7, s15
 8025882:	ed92 5b00 	vldr	d5, [r2]
 8025886:	ee30 7b47 	vsub.f64	d7, d0, d7
 802588a:	ee27 7b05 	vmul.f64	d7, d7, d5
 802588e:	eefc 6bc7 	vcvt.u32.f64	s13, d7
 8025892:	ee16 6a90 	vmov	r6, s13
 8025896:	eeb8 6b66 	vcvt.f64.u32	d6, s13
 802589a:	ee37 7b46 	vsub.f64	d7, d7, d6
 802589e:	eeb6 6b00 	vmov.f64	d6, #96	; 0x3f000000  0.5
 80258a2:	eeb4 7bc6 	vcmpe.f64	d7, d6
 80258a6:	eef1 fa10 	vmrs	APSR_nzcv, fpscr
 80258aa:	dd21      	ble.n	80258f0 <_ftoa+0x168>
 80258ac:	3601      	adds	r6, #1
 80258ae:	ee07 6a90 	vmov	s15, r6
 80258b2:	eeb8 7b67 	vcvt.f64.u32	d7, s15
 80258b6:	eeb4 5bc7 	vcmpe.f64	d5, d7
 80258ba:	eef1 fa10 	vmrs	APSR_nzcv, fpscr
 80258be:	d801      	bhi.n	80258c4 <_ftoa+0x13c>
 80258c0:	3501      	adds	r5, #1
 80258c2:	2600      	movs	r6, #0
 80258c4:	bbdf      	cbnz	r7, 802593e <_ftoa+0x1b6>
 80258c6:	ee07 5a90 	vmov	s15, r5
 80258ca:	eeb8 7be7 	vcvt.f64.s32	d7, s15
 80258ce:	ee30 0b47 	vsub.f64	d0, d0, d7
 80258d2:	eeb4 0bc6 	vcmpe.f64	d0, d6
 80258d6:	eef1 fa10 	vmrs	APSR_nzcv, fpscr
 80258da:	d500      	bpl.n	80258de <_ftoa+0x156>
 80258dc:	dd02      	ble.n	80258e4 <_ftoa+0x15c>
 80258de:	07ea      	lsls	r2, r5, #31
 80258e0:	d500      	bpl.n	80258e4 <_ftoa+0x15c>
 80258e2:	3501      	adds	r5, #1
 80258e4:	aa04      	add	r2, sp, #16
 80258e6:	210a      	movs	r1, #10
 80258e8:	4422      	add	r2, r4
 80258ea:	e04d      	b.n	8025988 <_ftoa+0x200>
 80258ec:	2300      	movs	r3, #0
 80258ee:	e7ab      	b.n	8025848 <_ftoa+0xc0>
 80258f0:	d4e8      	bmi.n	80258c4 <_ftoa+0x13c>
 80258f2:	b10e      	cbz	r6, 80258f8 <_ftoa+0x170>
 80258f4:	07f1      	lsls	r1, r6, #31
 80258f6:	d5e5      	bpl.n	80258c4 <_ftoa+0x13c>
 80258f8:	3601      	adds	r6, #1
 80258fa:	e7e3      	b.n	80258c4 <_ftoa+0x13c>
 80258fc:	220a      	movs	r2, #10
 80258fe:	2e09      	cmp	r6, #9
 8025900:	f107 37ff 	add.w	r7, r7, #4294967295
 8025904:	f104 0401 	add.w	r4, r4, #1
 8025908:	fbb6 f0f2 	udiv	r0, r6, r2
 802590c:	fb02 6210 	mls	r2, r2, r0, r6
 8025910:	f102 0230 	add.w	r2, r2, #48	; 0x30
 8025914:	f801 2b01 	strb.w	r2, [r1], #1
 8025918:	d826      	bhi.n	8025968 <_ftoa+0x1e0>
 802591a:	4427      	add	r7, r4
 802591c:	a904      	add	r1, sp, #16
 802591e:	2030      	movs	r0, #48	; 0x30
 8025920:	2c20      	cmp	r4, #32
 8025922:	d011      	beq.n	8025948 <_ftoa+0x1c0>
 8025924:	42bc      	cmp	r4, r7
 8025926:	f104 0201 	add.w	r2, r4, #1
 802592a:	d11f      	bne.n	802596c <_ftoa+0x1e4>
 802592c:	f104 0130 	add.w	r1, r4, #48	; 0x30
 8025930:	eb0d 0401 	add.w	r4, sp, r1
 8025934:	212e      	movs	r1, #46	; 0x2e
 8025936:	f804 1c20 	strb.w	r1, [r4, #-32]
 802593a:	4614      	mov	r4, r2
 802593c:	e7d2      	b.n	80258e4 <_ftoa+0x15c>
 802593e:	aa04      	add	r2, sp, #16
 8025940:	4422      	add	r2, r4
 8025942:	4611      	mov	r1, r2
 8025944:	2c20      	cmp	r4, #32
 8025946:	d1d9      	bne.n	80258fc <_ftoa+0x174>
 8025948:	f00c 0203 	and.w	r2, ip, #3
 802594c:	2a01      	cmp	r2, #1
 802594e:	d12e      	bne.n	80259ae <_ftoa+0x226>
 8025950:	f1be 0f00 	cmp.w	lr, #0
 8025954:	d02b      	beq.n	80259ae <_ftoa+0x226>
 8025956:	b913      	cbnz	r3, 802595e <_ftoa+0x1d6>
 8025958:	f01c 0f0c 	tst.w	ip, #12
 802595c:	d001      	beq.n	8025962 <_ftoa+0x1da>
 802595e:	f10e 3eff 	add.w	lr, lr, #4294967295
 8025962:	aa04      	add	r2, sp, #16
 8025964:	2130      	movs	r1, #48	; 0x30
 8025966:	e014      	b.n	8025992 <_ftoa+0x20a>
 8025968:	4606      	mov	r6, r0
 802596a:	e7eb      	b.n	8025944 <_ftoa+0x1bc>
 802596c:	5460      	strb	r0, [r4, r1]
 802596e:	4614      	mov	r4, r2
 8025970:	e7d6      	b.n	8025920 <_ftoa+0x198>
 8025972:	fb95 f0f1 	sdiv	r0, r5, r1
 8025976:	fb01 5510 	mls	r5, r1, r0, r5
 802597a:	3401      	adds	r4, #1
 802597c:	3530      	adds	r5, #48	; 0x30
 802597e:	f802 5b01 	strb.w	r5, [r2], #1
 8025982:	4605      	mov	r5, r0
 8025984:	2800      	cmp	r0, #0
 8025986:	d0df      	beq.n	8025948 <_ftoa+0x1c0>
 8025988:	2c20      	cmp	r4, #32
 802598a:	d1f2      	bne.n	8025972 <_ftoa+0x1ea>
 802598c:	e7dc      	b.n	8025948 <_ftoa+0x1c0>
 802598e:	54a1      	strb	r1, [r4, r2]
 8025990:	3401      	adds	r4, #1
 8025992:	45a6      	cmp	lr, r4
 8025994:	d90b      	bls.n	80259ae <_ftoa+0x226>
 8025996:	2c20      	cmp	r4, #32
 8025998:	d1f9      	bne.n	802598e <_ftoa+0x206>
 802599a:	ab04      	add	r3, sp, #16
 802599c:	4652      	mov	r2, sl
 802599e:	4649      	mov	r1, r9
 80259a0:	4640      	mov	r0, r8
 80259a2:	9300      	str	r3, [sp, #0]
 80259a4:	465b      	mov	r3, fp
 80259a6:	9401      	str	r4, [sp, #4]
 80259a8:	e9cd ec02 	strd	lr, ip, [sp, #8]
 80259ac:	e702      	b.n	80257b4 <_ftoa+0x2c>
 80259ae:	2c20      	cmp	r4, #32
 80259b0:	d0f3      	beq.n	802599a <_ftoa+0x212>
 80259b2:	b13b      	cbz	r3, 80259c4 <_ftoa+0x23c>
 80259b4:	f104 0330 	add.w	r3, r4, #48	; 0x30
 80259b8:	222d      	movs	r2, #45	; 0x2d
 80259ba:	446b      	add	r3, sp
 80259bc:	3401      	adds	r4, #1
 80259be:	f803 2c20 	strb.w	r2, [r3, #-32]
 80259c2:	e7ea      	b.n	802599a <_ftoa+0x212>
 80259c4:	f01c 0f04 	tst.w	ip, #4
 80259c8:	d004      	beq.n	80259d4 <_ftoa+0x24c>
 80259ca:	f104 0330 	add.w	r3, r4, #48	; 0x30
 80259ce:	222b      	movs	r2, #43	; 0x2b
 80259d0:	446b      	add	r3, sp
 80259d2:	e7f3      	b.n	80259bc <_ftoa+0x234>
 80259d4:	f01c 0f08 	tst.w	ip, #8
 80259d8:	d0df      	beq.n	802599a <_ftoa+0x212>
 80259da:	f104 0330 	add.w	r3, r4, #48	; 0x30
 80259de:	2220      	movs	r2, #32
 80259e0:	446b      	add	r3, sp
 80259e2:	e7eb      	b.n	80259bc <_ftoa+0x234>
 80259e4:	f3af 8000 	nop.w
 80259e8:	ffffffff 	.word	0xffffffff
 80259ec:	ffefffff 	.word	0xffefffff
 80259f0:	ffffffff 	.word	0xffffffff
 80259f4:	7fefffff 	.word	0x7fefffff
 80259f8:	00000000 	.word	0x00000000
 80259fc:	41cdcd65 	.word	0x41cdcd65
 8025a00:	00000000 	.word	0x00000000
 8025a04:	c1cdcd65 	.word	0xc1cdcd65
	...
 8025a10:	0802be13 	.word	0x0802be13
 8025a14:	0802be17 	.word	0x0802be17
 8025a18:	0802be0e 	.word	0x0802be0e
 8025a1c:	0802be0a 	.word	0x0802be0a
 8025a20:	0802be20 	.word	0x0802be20

08025a24 <_out_char>:
 8025a24:	b108      	cbz	r0, 8025a2a <_out_char+0x6>
 8025a26:	f7ff b803 	b.w	8024a30 <_putchar>
 8025a2a:	4770      	bx	lr

08025a2c <_vsnprintf>:
 8025a2c:	e92d 4ff0 	stmdb	sp!, {r4, r5, r6, r7, r8, r9, sl, fp, lr}
 8025a30:	b091      	sub	sp, #68	; 0x44
 8025a32:	2900      	cmp	r1, #0
 8025a34:	4690      	mov	r8, r2
 8025a36:	f04f 0500 	mov.w	r5, #0
 8025a3a:	930a      	str	r3, [sp, #40]	; 0x28
 8025a3c:	bf18      	it	ne
 8025a3e:	4681      	movne	r9, r0
 8025a40:	4bb7      	ldr	r3, [pc, #732]	; (8025d20 <_vsnprintf+0x2f4>)
 8025a42:	9e1a      	ldr	r6, [sp, #104]	; 0x68
 8025a44:	bf08      	it	eq
 8025a46:	4699      	moveq	r9, r3
 8025a48:	9b0a      	ldr	r3, [sp, #40]	; 0x28
 8025a4a:	7818      	ldrb	r0, [r3, #0]
 8025a4c:	b960      	cbnz	r0, 8025a68 <_vsnprintf+0x3c>
 8025a4e:	4545      	cmp	r5, r8
 8025a50:	4643      	mov	r3, r8
 8025a52:	f04f 0000 	mov.w	r0, #0
 8025a56:	bf2c      	ite	cs
 8025a58:	f108 32ff 	addcs.w	r2, r8, #4294967295
 8025a5c:	462a      	movcc	r2, r5
 8025a5e:	47c8      	blx	r9
 8025a60:	4628      	mov	r0, r5
 8025a62:	b011      	add	sp, #68	; 0x44
 8025a64:	e8bd 8ff0 	ldmia.w	sp!, {r4, r5, r6, r7, r8, r9, sl, fp, pc}
 8025a68:	9b0a      	ldr	r3, [sp, #40]	; 0x28
 8025a6a:	2825      	cmp	r0, #37	; 0x25
 8025a6c:	f103 0301 	add.w	r3, r3, #1
 8025a70:	930a      	str	r3, [sp, #40]	; 0x28
 8025a72:	d006      	beq.n	8025a82 <_vsnprintf+0x56>
 8025a74:	1c6c      	adds	r4, r5, #1
 8025a76:	462a      	mov	r2, r5
 8025a78:	4643      	mov	r3, r8
 8025a7a:	910b      	str	r1, [sp, #44]	; 0x2c
 8025a7c:	4625      	mov	r5, r4
 8025a7e:	47c8      	blx	r9
 8025a80:	e1b1      	b.n	8025de6 <_vsnprintf+0x3ba>
 8025a82:	2200      	movs	r2, #0
 8025a84:	e006      	b.n	8025a94 <_vsnprintf+0x68>
 8025a86:	2b2d      	cmp	r3, #45	; 0x2d
 8025a88:	d014      	beq.n	8025ab4 <_vsnprintf+0x88>
 8025a8a:	2b30      	cmp	r3, #48	; 0x30
 8025a8c:	d10c      	bne.n	8025aa8 <_vsnprintf+0x7c>
 8025a8e:	f042 0201 	orr.w	r2, r2, #1
 8025a92:	900a      	str	r0, [sp, #40]	; 0x28
 8025a94:	980a      	ldr	r0, [sp, #40]	; 0x28
 8025a96:	f810 3b01 	ldrb.w	r3, [r0], #1
 8025a9a:	2b2b      	cmp	r3, #43	; 0x2b
 8025a9c:	d00d      	beq.n	8025aba <_vsnprintf+0x8e>
 8025a9e:	d8f2      	bhi.n	8025a86 <_vsnprintf+0x5a>
 8025aa0:	2b20      	cmp	r3, #32
 8025aa2:	d00d      	beq.n	8025ac0 <_vsnprintf+0x94>
 8025aa4:	2b23      	cmp	r3, #35	; 0x23
 8025aa6:	d00e      	beq.n	8025ac6 <_vsnprintf+0x9a>
 8025aa8:	f1a3 0430 	sub.w	r4, r3, #48	; 0x30
 8025aac:	2c09      	cmp	r4, #9
 8025aae:	d828      	bhi.n	8025b02 <_vsnprintf+0xd6>
 8025ab0:	2700      	movs	r7, #0
 8025ab2:	e010      	b.n	8025ad6 <_vsnprintf+0xaa>
 8025ab4:	f042 0202 	orr.w	r2, r2, #2
 8025ab8:	e7eb      	b.n	8025a92 <_vsnprintf+0x66>
 8025aba:	f042 0204 	orr.w	r2, r2, #4
 8025abe:	e7e8      	b.n	8025a92 <_vsnprintf+0x66>
 8025ac0:	f042 0208 	orr.w	r2, r2, #8
 8025ac4:	e7e5      	b.n	8025a92 <_vsnprintf+0x66>
 8025ac6:	f042 0210 	orr.w	r2, r2, #16
 8025aca:	e7e2      	b.n	8025a92 <_vsnprintf+0x66>
 8025acc:	240a      	movs	r4, #10
 8025ace:	900a      	str	r0, [sp, #40]	; 0x28
 8025ad0:	fb04 3707 	mla	r7, r4, r7, r3
 8025ad4:	3f30      	subs	r7, #48	; 0x30
 8025ad6:	980a      	ldr	r0, [sp, #40]	; 0x28
 8025ad8:	f810 3b01 	ldrb.w	r3, [r0], #1
 8025adc:	f1a3 0430 	sub.w	r4, r3, #48	; 0x30
 8025ae0:	2c09      	cmp	r4, #9
 8025ae2:	d9f3      	bls.n	8025acc <_vsnprintf+0xa0>
 8025ae4:	9b0a      	ldr	r3, [sp, #40]	; 0x28
 8025ae6:	781b      	ldrb	r3, [r3, #0]
 8025ae8:	2b2e      	cmp	r3, #46	; 0x2e
 8025aea:	d165      	bne.n	8025bb8 <_vsnprintf+0x18c>
 8025aec:	9b0a      	ldr	r3, [sp, #40]	; 0x28
 8025aee:	f442 6280 	orr.w	r2, r2, #1024	; 0x400
 8025af2:	1c58      	adds	r0, r3, #1
 8025af4:	785b      	ldrb	r3, [r3, #1]
 8025af6:	f1a3 0430 	sub.w	r4, r3, #48	; 0x30
 8025afa:	2c09      	cmp	r4, #9
 8025afc:	d853      	bhi.n	8025ba6 <_vsnprintf+0x17a>
 8025afe:	2400      	movs	r4, #0
 8025b00:	e011      	b.n	8025b26 <_vsnprintf+0xfa>
 8025b02:	2b2a      	cmp	r3, #42	; 0x2a
 8025b04:	d108      	bne.n	8025b18 <_vsnprintf+0xec>
 8025b06:	f856 7b04 	ldr.w	r7, [r6], #4
 8025b0a:	900a      	str	r0, [sp, #40]	; 0x28
 8025b0c:	2f00      	cmp	r7, #0
 8025b0e:	bfbc      	itt	lt
 8025b10:	f042 0202 	orrlt.w	r2, r2, #2
 8025b14:	427f      	neglt	r7, r7
 8025b16:	e7e5      	b.n	8025ae4 <_vsnprintf+0xb8>
 8025b18:	2700      	movs	r7, #0
 8025b1a:	e7e3      	b.n	8025ae4 <_vsnprintf+0xb8>
 8025b1c:	200a      	movs	r0, #10
 8025b1e:	fb00 3404 	mla	r4, r0, r4, r3
 8025b22:	4660      	mov	r0, ip
 8025b24:	3c30      	subs	r4, #48	; 0x30
 8025b26:	4684      	mov	ip, r0
 8025b28:	f81c 3b01 	ldrb.w	r3, [ip], #1
 8025b2c:	f1a3 0e30 	sub.w	lr, r3, #48	; 0x30
 8025b30:	f1be 0f09 	cmp.w	lr, #9
 8025b34:	d9f2      	bls.n	8025b1c <_vsnprintf+0xf0>
 8025b36:	4603      	mov	r3, r0
 8025b38:	f813 cb01 	ldrb.w	ip, [r3], #1
 8025b3c:	f1bc 0f6c 	cmp.w	ip, #108	; 0x6c
 8025b40:	d046      	beq.n	8025bd0 <_vsnprintf+0x1a4>
 8025b42:	d83c      	bhi.n	8025bbe <_vsnprintf+0x192>
 8025b44:	f1bc 0f68 	cmp.w	ip, #104	; 0x68
 8025b48:	d04b      	beq.n	8025be2 <_vsnprintf+0x1b6>
 8025b4a:	f1bc 0f6a 	cmp.w	ip, #106	; 0x6a
 8025b4e:	d053      	beq.n	8025bf8 <_vsnprintf+0x1cc>
 8025b50:	4603      	mov	r3, r0
 8025b52:	f813 0b01 	ldrb.w	r0, [r3], #1
 8025b56:	2878      	cmp	r0, #120	; 0x78
 8025b58:	930a      	str	r3, [sp, #40]	; 0x28
 8025b5a:	d88b      	bhi.n	8025a74 <_vsnprintf+0x48>
 8025b5c:	2857      	cmp	r0, #87	; 0x57
 8025b5e:	d84e      	bhi.n	8025bfe <_vsnprintf+0x1d2>
 8025b60:	2845      	cmp	r0, #69	; 0x45
 8025b62:	d005      	beq.n	8025b70 <_vsnprintf+0x144>
 8025b64:	d986      	bls.n	8025a74 <_vsnprintf+0x48>
 8025b66:	2846      	cmp	r0, #70	; 0x46
 8025b68:	f000 812c 	beq.w	8025dc4 <_vsnprintf+0x398>
 8025b6c:	2847      	cmp	r0, #71	; 0x47
 8025b6e:	d181      	bne.n	8025a74 <_vsnprintf+0x48>
 8025b70:	f000 03df 	and.w	r3, r0, #223	; 0xdf
 8025b74:	3607      	adds	r6, #7
 8025b76:	9400      	str	r4, [sp, #0]
 8025b78:	2b47      	cmp	r3, #71	; 0x47
 8025b7a:	f026 0607 	bic.w	r6, r6, #7
 8025b7e:	4643      	mov	r3, r8
 8025b80:	910b      	str	r1, [sp, #44]	; 0x2c
 8025b82:	bf04      	itt	eq
 8025b84:	f000 00fd 	andeq.w	r0, r0, #253	; 0xfd
 8025b88:	f442 6200 	orreq.w	r2, r2, #2048	; 0x800
 8025b8c:	2845      	cmp	r0, #69	; 0x45
 8025b8e:	4648      	mov	r0, r9
 8025b90:	bf08      	it	eq
 8025b92:	f042 0220 	orreq.w	r2, r2, #32
 8025b96:	e9cd 7201 	strd	r7, r2, [sp, #4]
 8025b9a:	462a      	mov	r2, r5
 8025b9c:	ecb6 0b02 	vldmia	r6!, {d0}
 8025ba0:	f7ff fc9a 	bl	80254d8 <_etoa>
 8025ba4:	e11e      	b.n	8025de4 <_vsnprintf+0x3b8>
 8025ba6:	2b2a      	cmp	r3, #42	; 0x2a
 8025ba8:	d107      	bne.n	8025bba <_vsnprintf+0x18e>
 8025baa:	f856 4b04 	ldr.w	r4, [r6], #4
 8025bae:	980a      	ldr	r0, [sp, #40]	; 0x28
 8025bb0:	ea24 74e4 	bic.w	r4, r4, r4, asr #31
 8025bb4:	3002      	adds	r0, #2
 8025bb6:	e7be      	b.n	8025b36 <_vsnprintf+0x10a>
 8025bb8:	980a      	ldr	r0, [sp, #40]	; 0x28
 8025bba:	2400      	movs	r4, #0
 8025bbc:	e7bb      	b.n	8025b36 <_vsnprintf+0x10a>
 8025bbe:	f1bc 0f74 	cmp.w	ip, #116	; 0x74
 8025bc2:	d002      	beq.n	8025bca <_vsnprintf+0x19e>
 8025bc4:	f1bc 0f7a 	cmp.w	ip, #122	; 0x7a
 8025bc8:	d1c2      	bne.n	8025b50 <_vsnprintf+0x124>
 8025bca:	f442 7280 	orr.w	r2, r2, #256	; 0x100
 8025bce:	e7c0      	b.n	8025b52 <_vsnprintf+0x126>
 8025bd0:	f890 c001 	ldrb.w	ip, [r0, #1]
 8025bd4:	f1bc 0f6c 	cmp.w	ip, #108	; 0x6c
 8025bd8:	d1f7      	bne.n	8025bca <_vsnprintf+0x19e>
 8025bda:	f442 7240 	orr.w	r2, r2, #768	; 0x300
 8025bde:	1c83      	adds	r3, r0, #2
 8025be0:	e7b7      	b.n	8025b52 <_vsnprintf+0x126>
 8025be2:	f890 c001 	ldrb.w	ip, [r0, #1]
 8025be6:	f1bc 0f68 	cmp.w	ip, #104	; 0x68
 8025bea:	d002      	beq.n	8025bf2 <_vsnprintf+0x1c6>
 8025bec:	f042 0280 	orr.w	r2, r2, #128	; 0x80
 8025bf0:	e7af      	b.n	8025b52 <_vsnprintf+0x126>
 8025bf2:	f042 02c0 	orr.w	r2, r2, #192	; 0xc0
 8025bf6:	e7f2      	b.n	8025bde <_vsnprintf+0x1b2>
 8025bf8:	f442 7200 	orr.w	r2, r2, #512	; 0x200
 8025bfc:	e7a9      	b.n	8025b52 <_vsnprintf+0x126>
 8025bfe:	f1a0 0358 	sub.w	r3, r0, #88	; 0x58
 8025c02:	2b20      	cmp	r3, #32
 8025c04:	f63f af36 	bhi.w	8025a74 <_vsnprintf+0x48>
 8025c08:	f20f 0c04 	addw	ip, pc, #4
 8025c0c:	f85c f023 	ldr.w	pc, [ip, r3, lsl #2]
 8025c10:	08025c95 	.word	0x08025c95
 8025c14:	08025a75 	.word	0x08025a75
 8025c18:	08025a75 	.word	0x08025a75
 8025c1c:	08025a75 	.word	0x08025a75
 8025c20:	08025a75 	.word	0x08025a75
 8025c24:	08025a75 	.word	0x08025a75
 8025c28:	08025a75 	.word	0x08025a75
 8025c2c:	08025a75 	.word	0x08025a75
 8025c30:	08025a75 	.word	0x08025a75
 8025c34:	08025a75 	.word	0x08025a75
 8025c38:	08025c95 	.word	0x08025c95
 8025c3c:	08025deb 	.word	0x08025deb
 8025c40:	08025c95 	.word	0x08025c95
 8025c44:	08025b71 	.word	0x08025b71
 8025c48:	08025dc9 	.word	0x08025dc9
 8025c4c:	08025b71 	.word	0x08025b71
 8025c50:	08025a75 	.word	0x08025a75
 8025c54:	08025c95 	.word	0x08025c95
 8025c58:	08025a75 	.word	0x08025a75
 8025c5c:	08025a75 	.word	0x08025a75
 8025c60:	08025a75 	.word	0x08025a75
 8025c64:	08025a75 	.word	0x08025a75
 8025c68:	08025a75 	.word	0x08025a75
 8025c6c:	08025c95 	.word	0x08025c95
 8025c70:	08025f31 	.word	0x08025f31
 8025c74:	08025a75 	.word	0x08025a75
 8025c78:	08025a75 	.word	0x08025a75
 8025c7c:	08025e65 	.word	0x08025e65
 8025c80:	08025a75 	.word	0x08025a75
 8025c84:	08025c95 	.word	0x08025c95
 8025c88:	08025a75 	.word	0x08025a75
 8025c8c:	08025a75 	.word	0x08025a75
 8025c90:	08025c95 	.word	0x08025c95
 8025c94:	2878      	cmp	r0, #120	; 0x78
 8025c96:	f000 8161 	beq.w	8025f5c <_vsnprintf+0x530>
 8025c9a:	2858      	cmp	r0, #88	; 0x58
 8025c9c:	f000 815c 	beq.w	8025f58 <_vsnprintf+0x52c>
 8025ca0:	286f      	cmp	r0, #111	; 0x6f
 8025ca2:	f000 815d 	beq.w	8025f60 <_vsnprintf+0x534>
 8025ca6:	2862      	cmp	r0, #98	; 0x62
 8025ca8:	f000 815c 	beq.w	8025f64 <_vsnprintf+0x538>
 8025cac:	2869      	cmp	r0, #105	; 0x69
 8025cae:	f022 0210 	bic.w	r2, r2, #16
 8025cb2:	f04f 030a 	mov.w	r3, #10
 8025cb6:	d003      	beq.n	8025cc0 <_vsnprintf+0x294>
 8025cb8:	2864      	cmp	r0, #100	; 0x64
 8025cba:	d001      	beq.n	8025cc0 <_vsnprintf+0x294>
 8025cbc:	f022 020c 	bic.w	r2, r2, #12
 8025cc0:	f412 6f80 	tst.w	r2, #1024	; 0x400
 8025cc4:	bf18      	it	ne
 8025cc6:	f022 0201 	bicne.w	r2, r2, #1
 8025cca:	2869      	cmp	r0, #105	; 0x69
 8025ccc:	f402 7c00 	and.w	ip, r2, #512	; 0x200
 8025cd0:	d001      	beq.n	8025cd6 <_vsnprintf+0x2aa>
 8025cd2:	2864      	cmp	r0, #100	; 0x64
 8025cd4:	d141      	bne.n	8025d5a <_vsnprintf+0x32e>
 8025cd6:	f1bc 0f00 	cmp.w	ip, #0
 8025cda:	d023      	beq.n	8025d24 <_vsnprintf+0x2f8>
 8025cdc:	3607      	adds	r6, #7
 8025cde:	f026 0607 	bic.w	r6, r6, #7
 8025ce2:	46b2      	mov	sl, r6
 8025ce4:	6876      	ldr	r6, [r6, #4]
 8025ce6:	f85a 0b08 	ldr.w	r0, [sl], #8
 8025cea:	9304      	str	r3, [sp, #16]
 8025cec:	2300      	movs	r3, #0
 8025cee:	9406      	str	r4, [sp, #24]
 8025cf0:	9305      	str	r3, [sp, #20]
 8025cf2:	0ff3      	lsrs	r3, r6, #31
 8025cf4:	2e00      	cmp	r6, #0
 8025cf6:	9302      	str	r3, [sp, #8]
 8025cf8:	4603      	mov	r3, r0
 8025cfa:	e9cd 7207 	strd	r7, r2, [sp, #28]
 8025cfe:	da02      	bge.n	8025d06 <_vsnprintf+0x2da>
 8025d00:	4243      	negs	r3, r0
 8025d02:	eb66 0646 	sbc.w	r6, r6, r6, lsl #1
 8025d06:	e9cd 3600 	strd	r3, r6, [sp]
 8025d0a:	4643      	mov	r3, r8
 8025d0c:	462a      	mov	r2, r5
 8025d0e:	4648      	mov	r0, r9
 8025d10:	910b      	str	r1, [sp, #44]	; 0x2c
 8025d12:	f7ff fb86 	bl	8025422 <_ntoa_long_long>
 8025d16:	4605      	mov	r5, r0
 8025d18:	990b      	ldr	r1, [sp, #44]	; 0x2c
 8025d1a:	4656      	mov	r6, sl
 8025d1c:	e694      	b.n	8025a48 <_vsnprintf+0x1c>
 8025d1e:	bf00      	nop
 8025d20:	0802520d 	.word	0x0802520d
 8025d24:	05d0      	lsls	r0, r2, #23
 8025d26:	f106 0a04 	add.w	sl, r6, #4
 8025d2a:	d50c      	bpl.n	8025d46 <_vsnprintf+0x31a>
 8025d2c:	6830      	ldr	r0, [r6, #0]
 8025d2e:	2800      	cmp	r0, #0
 8025d30:	e9cd 3402 	strd	r3, r4, [sp, #8]
 8025d34:	ea4f 73d0 	mov.w	r3, r0, lsr #31
 8025d38:	bfb8      	it	lt
 8025d3a:	4240      	neglt	r0, r0
 8025d3c:	e9cd 7204 	strd	r7, r2, [sp, #16]
 8025d40:	9301      	str	r3, [sp, #4]
 8025d42:	9000      	str	r0, [sp, #0]
 8025d44:	e027      	b.n	8025d96 <_vsnprintf+0x36a>
 8025d46:	f012 0f40 	tst.w	r2, #64	; 0x40
 8025d4a:	6830      	ldr	r0, [r6, #0]
 8025d4c:	d001      	beq.n	8025d52 <_vsnprintf+0x326>
 8025d4e:	b2c0      	uxtb	r0, r0
 8025d50:	e7ed      	b.n	8025d2e <_vsnprintf+0x302>
 8025d52:	0616      	lsls	r6, r2, #24
 8025d54:	bf48      	it	mi
 8025d56:	b200      	sxthmi	r0, r0
 8025d58:	e7e9      	b.n	8025d2e <_vsnprintf+0x302>
 8025d5a:	f1bc 0f00 	cmp.w	ip, #0
 8025d5e:	d00e      	beq.n	8025d7e <_vsnprintf+0x352>
 8025d60:	3607      	adds	r6, #7
 8025d62:	9406      	str	r4, [sp, #24]
 8025d64:	e9cd 7207 	strd	r7, r2, [sp, #28]
 8025d68:	f026 0a07 	bic.w	sl, r6, #7
 8025d6c:	2200      	movs	r2, #0
 8025d6e:	e9cd 3204 	strd	r3, r2, [sp, #16]
 8025d72:	9202      	str	r2, [sp, #8]
 8025d74:	e8fa 2302 	ldrd	r2, r3, [sl], #8
 8025d78:	e9cd 2300 	strd	r2, r3, [sp]
 8025d7c:	e7c5      	b.n	8025d0a <_vsnprintf+0x2de>
 8025d7e:	05d0      	lsls	r0, r2, #23
 8025d80:	f106 0a04 	add.w	sl, r6, #4
 8025d84:	d50e      	bpl.n	8025da4 <_vsnprintf+0x378>
 8025d86:	f8cd c004 	str.w	ip, [sp, #4]
 8025d8a:	e9cd 7204 	strd	r7, r2, [sp, #16]
 8025d8e:	e9cd 3402 	strd	r3, r4, [sp, #8]
 8025d92:	6833      	ldr	r3, [r6, #0]
 8025d94:	9300      	str	r3, [sp, #0]
 8025d96:	4643      	mov	r3, r8
 8025d98:	462a      	mov	r2, r5
 8025d9a:	4648      	mov	r0, r9
 8025d9c:	910b      	str	r1, [sp, #44]	; 0x2c
 8025d9e:	f7ff fafe 	bl	802539e <_ntoa_long>
 8025da2:	e7b8      	b.n	8025d16 <_vsnprintf+0x2ea>
 8025da4:	f012 0f40 	tst.w	r2, #64	; 0x40
 8025da8:	6830      	ldr	r0, [r6, #0]
 8025daa:	d007      	beq.n	8025dbc <_vsnprintf+0x390>
 8025dac:	b2c0      	uxtb	r0, r0
 8025dae:	e9cd 3402 	strd	r3, r4, [sp, #8]
 8025db2:	2300      	movs	r3, #0
 8025db4:	e9cd 7204 	strd	r7, r2, [sp, #16]
 8025db8:	9301      	str	r3, [sp, #4]
 8025dba:	e7c2      	b.n	8025d42 <_vsnprintf+0x316>
 8025dbc:	0616      	lsls	r6, r2, #24
 8025dbe:	bf48      	it	mi
 8025dc0:	b280      	uxthmi	r0, r0
 8025dc2:	e7f4      	b.n	8025dae <_vsnprintf+0x382>
 8025dc4:	f042 0220 	orr.w	r2, r2, #32
 8025dc8:	3607      	adds	r6, #7
 8025dca:	9400      	str	r4, [sp, #0]
 8025dcc:	4643      	mov	r3, r8
 8025dce:	4648      	mov	r0, r9
 8025dd0:	f026 0607 	bic.w	r6, r6, #7
 8025dd4:	910b      	str	r1, [sp, #44]	; 0x2c
 8025dd6:	e9cd 7201 	strd	r7, r2, [sp, #4]
 8025dda:	462a      	mov	r2, r5
 8025ddc:	ecb6 0b02 	vldmia	r6!, {d0}
 8025de0:	f7ff fcd2 	bl	8025788 <_ftoa>
 8025de4:	4605      	mov	r5, r0
 8025de6:	990b      	ldr	r1, [sp, #44]	; 0x2c
 8025de8:	e62e      	b.n	8025a48 <_vsnprintf+0x1c>
 8025dea:	f012 0402 	ands.w	r4, r2, #2
 8025dee:	d025      	beq.n	8025e3c <_vsnprintf+0x410>
 8025df0:	f04f 0a01 	mov.w	sl, #1
 8025df4:	f856 0b04 	ldr.w	r0, [r6], #4
 8025df8:	4643      	mov	r3, r8
 8025dfa:	910b      	str	r1, [sp, #44]	; 0x2c
 8025dfc:	462a      	mov	r2, r5
 8025dfe:	b2c0      	uxtb	r0, r0
 8025e00:	f105 0b01 	add.w	fp, r5, #1
 8025e04:	47c8      	blx	r9
 8025e06:	990b      	ldr	r1, [sp, #44]	; 0x2c
 8025e08:	b354      	cbz	r4, 8025e60 <_vsnprintf+0x434>
 8025e0a:	4654      	mov	r4, sl
 8025e0c:	465a      	mov	r2, fp
 8025e0e:	e01f      	b.n	8025e50 <_vsnprintf+0x424>
 8025e10:	910b      	str	r1, [sp, #44]	; 0x2c
 8025e12:	4643      	mov	r3, r8
 8025e14:	2020      	movs	r0, #32
 8025e16:	47c8      	blx	r9
 8025e18:	990b      	ldr	r1, [sp, #44]	; 0x2c
 8025e1a:	eb0a 0205 	add.w	r2, sl, r5
 8025e1e:	f10a 0a01 	add.w	sl, sl, #1
 8025e22:	4557      	cmp	r7, sl
 8025e24:	d8f4      	bhi.n	8025e10 <_vsnprintf+0x3e4>
 8025e26:	2f00      	cmp	r7, #0
 8025e28:	f107 33ff 	add.w	r3, r7, #4294967295
 8025e2c:	f107 0a01 	add.w	sl, r7, #1
 8025e30:	bf04      	itt	eq
 8025e32:	2300      	moveq	r3, #0
 8025e34:	f04f 0a02 	moveq.w	sl, #2
 8025e38:	441d      	add	r5, r3
 8025e3a:	e7db      	b.n	8025df4 <_vsnprintf+0x3c8>
 8025e3c:	46a2      	mov	sl, r4
 8025e3e:	e7ec      	b.n	8025e1a <_vsnprintf+0x3ee>
 8025e40:	1c55      	adds	r5, r2, #1
 8025e42:	910b      	str	r1, [sp, #44]	; 0x2c
 8025e44:	4643      	mov	r3, r8
 8025e46:	2020      	movs	r0, #32
 8025e48:	47c8      	blx	r9
 8025e4a:	3401      	adds	r4, #1
 8025e4c:	462a      	mov	r2, r5
 8025e4e:	990b      	ldr	r1, [sp, #44]	; 0x2c
 8025e50:	42bc      	cmp	r4, r7
 8025e52:	d3f5      	bcc.n	8025e40 <_vsnprintf+0x414>
 8025e54:	eba7 030a 	sub.w	r3, r7, sl
 8025e58:	4557      	cmp	r7, sl
 8025e5a:	bf38      	it	cc
 8025e5c:	2300      	movcc	r3, #0
 8025e5e:	449b      	add	fp, r3
 8025e60:	465d      	mov	r5, fp
 8025e62:	e5f1      	b.n	8025a48 <_vsnprintf+0x1c>
 8025e64:	4633      	mov	r3, r6
 8025e66:	2c00      	cmp	r4, #0
 8025e68:	f853 ab04 	ldr.w	sl, [r3], #4
 8025e6c:	930b      	str	r3, [sp, #44]	; 0x2c
 8025e6e:	bf14      	ite	ne
 8025e70:	4623      	movne	r3, r4
 8025e72:	f04f 33ff 	moveq.w	r3, #4294967295
 8025e76:	46d3      	mov	fp, sl
 8025e78:	4453      	add	r3, sl
 8025e7a:	f89b 0000 	ldrb.w	r0, [fp]
 8025e7e:	b108      	cbz	r0, 8025e84 <_vsnprintf+0x458>
 8025e80:	459b      	cmp	fp, r3
 8025e82:	d111      	bne.n	8025ea8 <_vsnprintf+0x47c>
 8025e84:	f412 6380 	ands.w	r3, r2, #1024	; 0x400
 8025e88:	ebab 0b0a 	sub.w	fp, fp, sl
 8025e8c:	930c      	str	r3, [sp, #48]	; 0x30
 8025e8e:	d002      	beq.n	8025e96 <_vsnprintf+0x46a>
 8025e90:	45a3      	cmp	fp, r4
 8025e92:	bf28      	it	cs
 8025e94:	46a3      	movcs	fp, r4
 8025e96:	f012 0302 	ands.w	r3, r2, #2
 8025e9a:	930d      	str	r3, [sp, #52]	; 0x34
 8025e9c:	d11b      	bne.n	8025ed6 <_vsnprintf+0x4aa>
 8025e9e:	ebab 0305 	sub.w	r3, fp, r5
 8025ea2:	462a      	mov	r2, r5
 8025ea4:	930e      	str	r3, [sp, #56]	; 0x38
 8025ea6:	e009      	b.n	8025ebc <_vsnprintf+0x490>
 8025ea8:	f10b 0b01 	add.w	fp, fp, #1
 8025eac:	e7e5      	b.n	8025e7a <_vsnprintf+0x44e>
 8025eae:	1c56      	adds	r6, r2, #1
 8025eb0:	910f      	str	r1, [sp, #60]	; 0x3c
 8025eb2:	4643      	mov	r3, r8
 8025eb4:	2020      	movs	r0, #32
 8025eb6:	47c8      	blx	r9
 8025eb8:	4632      	mov	r2, r6
 8025eba:	990f      	ldr	r1, [sp, #60]	; 0x3c
 8025ebc:	9b0e      	ldr	r3, [sp, #56]	; 0x38
 8025ebe:	18d3      	adds	r3, r2, r3
 8025ec0:	429f      	cmp	r7, r3
 8025ec2:	d8f4      	bhi.n	8025eae <_vsnprintf+0x482>
 8025ec4:	eba7 030b 	sub.w	r3, r7, fp
 8025ec8:	455f      	cmp	r7, fp
 8025eca:	bf38      	it	cc
 8025ecc:	2300      	movcc	r3, #0
 8025ece:	f10b 0b01 	add.w	fp, fp, #1
 8025ed2:	441d      	add	r5, r3
 8025ed4:	449b      	add	fp, r3
 8025ed6:	4656      	mov	r6, sl
 8025ed8:	eba5 0a0a 	sub.w	sl, r5, sl
 8025edc:	e005      	b.n	8025eea <_vsnprintf+0x4be>
 8025ede:	461c      	mov	r4, r3
 8025ee0:	910e      	str	r1, [sp, #56]	; 0x38
 8025ee2:	4643      	mov	r3, r8
 8025ee4:	462a      	mov	r2, r5
 8025ee6:	47c8      	blx	r9
 8025ee8:	990e      	ldr	r1, [sp, #56]	; 0x38
 8025eea:	eb0a 0506 	add.w	r5, sl, r6
 8025eee:	f816 0b01 	ldrb.w	r0, [r6], #1
 8025ef2:	b128      	cbz	r0, 8025f00 <_vsnprintf+0x4d4>
 8025ef4:	9b0c      	ldr	r3, [sp, #48]	; 0x30
 8025ef6:	2b00      	cmp	r3, #0
 8025ef8:	d0f2      	beq.n	8025ee0 <_vsnprintf+0x4b4>
 8025efa:	1e63      	subs	r3, r4, #1
 8025efc:	2c00      	cmp	r4, #0
 8025efe:	d1ee      	bne.n	8025ede <_vsnprintf+0x4b2>
 8025f00:	9b0d      	ldr	r3, [sp, #52]	; 0x34
 8025f02:	b19b      	cbz	r3, 8025f2c <_vsnprintf+0x500>
 8025f04:	462a      	mov	r2, r5
 8025f06:	ebab 0405 	sub.w	r4, fp, r5
 8025f0a:	e006      	b.n	8025f1a <_vsnprintf+0x4ee>
 8025f0c:	1c56      	adds	r6, r2, #1
 8025f0e:	910c      	str	r1, [sp, #48]	; 0x30
 8025f10:	4643      	mov	r3, r8
 8025f12:	2020      	movs	r0, #32
 8025f14:	47c8      	blx	r9
 8025f16:	4632      	mov	r2, r6
 8025f18:	990c      	ldr	r1, [sp, #48]	; 0x30
 8025f1a:	1913      	adds	r3, r2, r4
 8025f1c:	42bb      	cmp	r3, r7
 8025f1e:	d3f5      	bcc.n	8025f0c <_vsnprintf+0x4e0>
 8025f20:	eba7 030b 	sub.w	r3, r7, fp
 8025f24:	455f      	cmp	r7, fp
 8025f26:	bf38      	it	cc
 8025f28:	2300      	movcc	r3, #0
 8025f2a:	441d      	add	r5, r3
 8025f2c:	9e0b      	ldr	r6, [sp, #44]	; 0x2c
 8025f2e:	e58b      	b.n	8025a48 <_vsnprintf+0x1c>
 8025f30:	f042 0221 	orr.w	r2, r2, #33	; 0x21
 8025f34:	2308      	movs	r3, #8
 8025f36:	4648      	mov	r0, r9
 8025f38:	910b      	str	r1, [sp, #44]	; 0x2c
 8025f3a:	9205      	str	r2, [sp, #20]
 8025f3c:	2210      	movs	r2, #16
 8025f3e:	e9cd 4303 	strd	r4, r3, [sp, #12]
 8025f42:	2300      	movs	r3, #0
 8025f44:	e9cd 3201 	strd	r3, r2, [sp, #4]
 8025f48:	f856 3b04 	ldr.w	r3, [r6], #4
 8025f4c:	462a      	mov	r2, r5
 8025f4e:	9300      	str	r3, [sp, #0]
 8025f50:	4643      	mov	r3, r8
 8025f52:	f7ff fa24 	bl	802539e <_ntoa_long>
 8025f56:	e745      	b.n	8025de4 <_vsnprintf+0x3b8>
 8025f58:	f042 0220 	orr.w	r2, r2, #32
 8025f5c:	2310      	movs	r3, #16
 8025f5e:	e6ad      	b.n	8025cbc <_vsnprintf+0x290>
 8025f60:	2308      	movs	r3, #8
 8025f62:	e6ab      	b.n	8025cbc <_vsnprintf+0x290>
 8025f64:	2302      	movs	r3, #2
 8025f66:	e6a9      	b.n	8025cbc <_vsnprintf+0x290>

08025f68 <printf_>:
 8025f68:	b40f      	push	{r0, r1, r2, r3}
 8025f6a:	b51f      	push	{r0, r1, r2, r3, r4, lr}
 8025f6c:	aa06      	add	r2, sp, #24
 8025f6e:	a902      	add	r1, sp, #8
 8025f70:	4806      	ldr	r0, [pc, #24]	; (8025f8c <printf_+0x24>)
 8025f72:	f852 3b04 	ldr.w	r3, [r2], #4
 8025f76:	9203      	str	r2, [sp, #12]
 8025f78:	9200      	str	r2, [sp, #0]
 8025f7a:	f04f 32ff 	mov.w	r2, #4294967295
 8025f7e:	f7ff fd55 	bl	8025a2c <_vsnprintf>
 8025f82:	b005      	add	sp, #20
 8025f84:	f85d eb04 	ldr.w	lr, [sp], #4
 8025f88:	b004      	add	sp, #16
 8025f8a:	4770      	bx	lr
 8025f8c:	08025a25 	.word	0x08025a25

08025f90 <HAL_MspInit>:
 8025f90:	4b07      	ldr	r3, [pc, #28]	; (8025fb0 <HAL_MspInit+0x20>)
 8025f92:	b082      	sub	sp, #8
 8025f94:	f8d3 20f4 	ldr.w	r2, [r3, #244]	; 0xf4
 8025f98:	f042 0202 	orr.w	r2, r2, #2
 8025f9c:	f8c3 20f4 	str.w	r2, [r3, #244]	; 0xf4
 8025fa0:	f8d3 30f4 	ldr.w	r3, [r3, #244]	; 0xf4
 8025fa4:	f003 0302 	and.w	r3, r3, #2
 8025fa8:	9301      	str	r3, [sp, #4]
 8025faa:	9b01      	ldr	r3, [sp, #4]
 8025fac:	b002      	add	sp, #8
 8025fae:	4770      	bx	lr
 8025fb0:	58024400 	.word	0x58024400

08025fb4 <HAL_SPI_MspInit>:
 8025fb4:	b510      	push	{r4, lr}
 8025fb6:	b0b8      	sub	sp, #224	; 0xe0
 8025fb8:	4604      	mov	r4, r0
 8025fba:	2214      	movs	r2, #20
 8025fbc:	2100      	movs	r1, #0
 8025fbe:	a803      	add	r0, sp, #12
 8025fc0:	f003 ffb0 	bl	8029f24 <memset>
 8025fc4:	22c0      	movs	r2, #192	; 0xc0
 8025fc6:	2100      	movs	r1, #0
 8025fc8:	a808      	add	r0, sp, #32
 8025fca:	f003 ffab 	bl	8029f24 <memset>
 8025fce:	6822      	ldr	r2, [r4, #0]
 8025fd0:	4b1e      	ldr	r3, [pc, #120]	; (802604c <HAL_SPI_MspInit+0x98>)
 8025fd2:	429a      	cmp	r2, r3
 8025fd4:	d138      	bne.n	8026048 <HAL_SPI_MspInit+0x94>
 8025fd6:	f44f 5280 	mov.w	r2, #4096	; 0x1000
 8025fda:	2300      	movs	r3, #0
 8025fdc:	a808      	add	r0, sp, #32
 8025fde:	e9cd 2308 	strd	r2, r3, [sp, #32]
 8025fe2:	f001 fcd1 	bl	8027988 <HAL_RCCEx_PeriphCLKConfig>
 8025fe6:	b108      	cbz	r0, 8025fec <HAL_SPI_MspInit+0x38>
 8025fe8:	f7ff f90e 	bl	8025208 <Error_Handler>
 8025fec:	4b18      	ldr	r3, [pc, #96]	; (8026050 <HAL_SPI_MspInit+0x9c>)
 8025fee:	2400      	movs	r4, #0
 8025ff0:	a903      	add	r1, sp, #12
 8025ff2:	4818      	ldr	r0, [pc, #96]	; (8026054 <HAL_SPI_MspInit+0xa0>)
 8025ff4:	f8d3 20f0 	ldr.w	r2, [r3, #240]	; 0xf0
 8025ff8:	f442 5280 	orr.w	r2, r2, #4096	; 0x1000
 8025ffc:	f8c3 20f0 	str.w	r2, [r3, #240]	; 0xf0
 8026000:	f8d3 20f0 	ldr.w	r2, [r3, #240]	; 0xf0
 8026004:	f402 5280 	and.w	r2, r2, #4096	; 0x1000
 8026008:	9201      	str	r2, [sp, #4]
 802600a:	9a01      	ldr	r2, [sp, #4]
 802600c:	f8d3 20e0 	ldr.w	r2, [r3, #224]	; 0xe0
 8026010:	f042 0201 	orr.w	r2, r2, #1
 8026014:	f8c3 20e0 	str.w	r2, [r3, #224]	; 0xe0
 8026018:	22e0      	movs	r2, #224	; 0xe0
 802601a:	f8d3 30e0 	ldr.w	r3, [r3, #224]	; 0xe0
 802601e:	f003 0301 	and.w	r3, r3, #1
 8026022:	9302      	str	r3, [sp, #8]
 8026024:	9b02      	ldr	r3, [sp, #8]
 8026026:	2302      	movs	r3, #2
 8026028:	e9cd 2303 	strd	r2, r3, [sp, #12]
 802602c:	2305      	movs	r3, #5
 802602e:	e9cd 4405 	strd	r4, r4, [sp, #20]
 8026032:	9307      	str	r3, [sp, #28]
 8026034:	f000 fd2a 	bl	8026a8c <HAL_GPIO_Init>
 8026038:	2023      	movs	r0, #35	; 0x23
 802603a:	4622      	mov	r2, r4
 802603c:	4621      	mov	r1, r4
 802603e:	f000 fbd3 	bl	80267e8 <HAL_NVIC_SetPriority>
 8026042:	2023      	movs	r0, #35	; 0x23
 8026044:	f000 fc02 	bl	802684c <HAL_NVIC_EnableIRQ>
 8026048:	b038      	add	sp, #224	; 0xe0
 802604a:	bd10      	pop	{r4, pc}
 802604c:	40013000 	.word	0x40013000
 8026050:	58024400 	.word	0x58024400
 8026054:	58020000 	.word	0x58020000

08026058 <HAL_TIM_Base_MspInit>:
 8026058:	4b0f      	ldr	r3, [pc, #60]	; (8026098 <HAL_TIM_Base_MspInit+0x40>)
 802605a:	b507      	push	{r0, r1, r2, lr}
 802605c:	6802      	ldr	r2, [r0, #0]
 802605e:	429a      	cmp	r2, r3
 8026060:	d117      	bne.n	8026092 <HAL_TIM_Base_MspInit+0x3a>
 8026062:	4b0e      	ldr	r3, [pc, #56]	; (802609c <HAL_TIM_Base_MspInit+0x44>)
 8026064:	2037      	movs	r0, #55	; 0x37
 8026066:	f8d3 20e8 	ldr.w	r2, [r3, #232]	; 0xe8
 802606a:	f042 0220 	orr.w	r2, r2, #32
 802606e:	f8c3 20e8 	str.w	r2, [r3, #232]	; 0xe8
 8026072:	2200      	movs	r2, #0
 8026074:	f8d3 30e8 	ldr.w	r3, [r3, #232]	; 0xe8
 8026078:	4611      	mov	r1, r2
 802607a:	f003 0320 	and.w	r3, r3, #32
 802607e:	9301      	str	r3, [sp, #4]
 8026080:	9b01      	ldr	r3, [sp, #4]
 8026082:	f000 fbb1 	bl	80267e8 <HAL_NVIC_SetPriority>
 8026086:	2037      	movs	r0, #55	; 0x37
 8026088:	b003      	add	sp, #12
 802608a:	f85d eb04 	ldr.w	lr, [sp], #4
 802608e:	f000 bbdd 	b.w	802684c <HAL_NVIC_EnableIRQ>
 8026092:	b003      	add	sp, #12
 8026094:	f85d fb04 	ldr.w	pc, [sp], #4
 8026098:	40001400 	.word	0x40001400
 802609c:	58024400 	.word	0x58024400

080260a0 <HAL_UART_MspInit>:
 80260a0:	b510      	push	{r4, lr}
 80260a2:	b0c0      	sub	sp, #256	; 0x100
 80260a4:	4604      	mov	r4, r0
 80260a6:	2214      	movs	r2, #20
 80260a8:	2100      	movs	r1, #0
 80260aa:	a80b      	add	r0, sp, #44	; 0x2c
 80260ac:	f003 ff3a 	bl	8029f24 <memset>
 80260b0:	22c0      	movs	r2, #192	; 0xc0
 80260b2:	2100      	movs	r1, #0
 80260b4:	a810      	add	r0, sp, #64	; 0x40
 80260b6:	f003 ff35 	bl	8029f24 <memset>
 80260ba:	6823      	ldr	r3, [r4, #0]
 80260bc:	4a7c      	ldr	r2, [pc, #496]	; (80262b0 <HAL_UART_MspInit+0x210>)
 80260be:	4293      	cmp	r3, r2
 80260c0:	d132      	bne.n	8026128 <HAL_UART_MspInit+0x88>
 80260c2:	2202      	movs	r2, #2
 80260c4:	2300      	movs	r3, #0
 80260c6:	a810      	add	r0, sp, #64	; 0x40
 80260c8:	e9cd 2310 	strd	r2, r3, [sp, #64]	; 0x40
 80260cc:	f001 fc5c 	bl	8027988 <HAL_RCCEx_PeriphCLKConfig>
 80260d0:	b108      	cbz	r0, 80260d6 <HAL_UART_MspInit+0x36>
 80260d2:	f7ff f899 	bl	8025208 <Error_Handler>
 80260d6:	4b77      	ldr	r3, [pc, #476]	; (80262b4 <HAL_UART_MspInit+0x214>)
 80260d8:	f04f 0c03 	mov.w	ip, #3
 80260dc:	f8d3 20e8 	ldr.w	r2, [r3, #232]	; 0xe8
 80260e0:	f442 2200 	orr.w	r2, r2, #524288	; 0x80000
 80260e4:	f8c3 20e8 	str.w	r2, [r3, #232]	; 0xe8
 80260e8:	f8d3 20e8 	ldr.w	r2, [r3, #232]	; 0xe8
 80260ec:	f402 2200 	and.w	r2, r2, #524288	; 0x80000
 80260f0:	9201      	str	r2, [sp, #4]
 80260f2:	9a01      	ldr	r2, [sp, #4]
 80260f4:	f8d3 20e0 	ldr.w	r2, [r3, #224]	; 0xe0
 80260f8:	f042 0201 	orr.w	r2, r2, #1
 80260fc:	f8c3 20e0 	str.w	r2, [r3, #224]	; 0xe0
 8026100:	f8d3 30e0 	ldr.w	r3, [r3, #224]	; 0xe0
 8026104:	f003 0301 	and.w	r3, r3, #1
 8026108:	9302      	str	r3, [sp, #8]
 802610a:	9b02      	ldr	r3, [sp, #8]
 802610c:	2302      	movs	r3, #2
 802610e:	e9cd c30b 	strd	ip, r3, [sp, #44]	; 0x2c
 8026112:	2300      	movs	r3, #0
 8026114:	e9cd 330d 	strd	r3, r3, [sp, #52]	; 0x34
 8026118:	2308      	movs	r3, #8
 802611a:	a90b      	add	r1, sp, #44	; 0x2c
 802611c:	4866      	ldr	r0, [pc, #408]	; (80262b8 <HAL_UART_MspInit+0x218>)
 802611e:	930f      	str	r3, [sp, #60]	; 0x3c
 8026120:	f000 fcb4 	bl	8026a8c <HAL_GPIO_Init>
 8026124:	b040      	add	sp, #256	; 0x100
 8026126:	bd10      	pop	{r4, pc}
 8026128:	4a64      	ldr	r2, [pc, #400]	; (80262bc <HAL_UART_MspInit+0x21c>)
 802612a:	4293      	cmp	r3, r2
 802612c:	d12f      	bne.n	802618e <HAL_UART_MspInit+0xee>
 802612e:	2202      	movs	r2, #2
 8026130:	2300      	movs	r3, #0
 8026132:	a810      	add	r0, sp, #64	; 0x40
 8026134:	e9cd 2310 	strd	r2, r3, [sp, #64]	; 0x40
 8026138:	f001 fc26 	bl	8027988 <HAL_RCCEx_PeriphCLKConfig>
 802613c:	b108      	cbz	r0, 8026142 <HAL_UART_MspInit+0xa2>
 802613e:	f7ff f863 	bl	8025208 <Error_Handler>
 8026142:	4b5c      	ldr	r3, [pc, #368]	; (80262b4 <HAL_UART_MspInit+0x214>)
 8026144:	f44f 5440 	mov.w	r4, #12288	; 0x3000
 8026148:	f8d3 20e8 	ldr.w	r2, [r3, #232]	; 0xe8
 802614c:	f442 1280 	orr.w	r2, r2, #1048576	; 0x100000
 8026150:	f8c3 20e8 	str.w	r2, [r3, #232]	; 0xe8
 8026154:	f8d3 20e8 	ldr.w	r2, [r3, #232]	; 0xe8
 8026158:	f402 1280 	and.w	r2, r2, #1048576	; 0x100000
 802615c:	9203      	str	r2, [sp, #12]
 802615e:	9a03      	ldr	r2, [sp, #12]
 8026160:	f8d3 20e0 	ldr.w	r2, [r3, #224]	; 0xe0
 8026164:	f042 0202 	orr.w	r2, r2, #2
 8026168:	f8c3 20e0 	str.w	r2, [r3, #224]	; 0xe0
 802616c:	f8d3 30e0 	ldr.w	r3, [r3, #224]	; 0xe0
 8026170:	f003 0302 	and.w	r3, r3, #2
 8026174:	9304      	str	r3, [sp, #16]
 8026176:	9b04      	ldr	r3, [sp, #16]
 8026178:	2302      	movs	r3, #2
 802617a:	e9cd 430b 	strd	r4, r3, [sp, #44]	; 0x2c
 802617e:	2300      	movs	r3, #0
 8026180:	e9cd 330d 	strd	r3, r3, [sp, #52]	; 0x34
 8026184:	230e      	movs	r3, #14
 8026186:	a90b      	add	r1, sp, #44	; 0x2c
 8026188:	484d      	ldr	r0, [pc, #308]	; (80262c0 <HAL_UART_MspInit+0x220>)
 802618a:	930f      	str	r3, [sp, #60]	; 0x3c
 802618c:	e7c8      	b.n	8026120 <HAL_UART_MspInit+0x80>
 802618e:	4a4d      	ldr	r2, [pc, #308]	; (80262c4 <HAL_UART_MspInit+0x224>)
 8026190:	4293      	cmp	r3, r2
 8026192:	d12c      	bne.n	80261ee <HAL_UART_MspInit+0x14e>
 8026194:	2201      	movs	r2, #1
 8026196:	2300      	movs	r3, #0
 8026198:	a810      	add	r0, sp, #64	; 0x40
 802619a:	e9cd 2310 	strd	r2, r3, [sp, #64]	; 0x40
 802619e:	f001 fbf3 	bl	8027988 <HAL_RCCEx_PeriphCLKConfig>
 80261a2:	b108      	cbz	r0, 80261a8 <HAL_UART_MspInit+0x108>
 80261a4:	f7ff f830 	bl	8025208 <Error_Handler>
 80261a8:	4b42      	ldr	r3, [pc, #264]	; (80262b4 <HAL_UART_MspInit+0x214>)
 80261aa:	f44f 4040 	mov.w	r0, #49152	; 0xc000
 80261ae:	f8d3 20f0 	ldr.w	r2, [r3, #240]	; 0xf0
 80261b2:	f042 0210 	orr.w	r2, r2, #16
 80261b6:	f8c3 20f0 	str.w	r2, [r3, #240]	; 0xf0
 80261ba:	f8d3 20f0 	ldr.w	r2, [r3, #240]	; 0xf0
 80261be:	f002 0210 	and.w	r2, r2, #16
 80261c2:	9205      	str	r2, [sp, #20]
 80261c4:	9a05      	ldr	r2, [sp, #20]
 80261c6:	f8d3 20e0 	ldr.w	r2, [r3, #224]	; 0xe0
 80261ca:	f042 0202 	orr.w	r2, r2, #2
 80261ce:	f8c3 20e0 	str.w	r2, [r3, #224]	; 0xe0
 80261d2:	f8d3 30e0 	ldr.w	r3, [r3, #224]	; 0xe0
 80261d6:	f003 0302 	and.w	r3, r3, #2
 80261da:	9306      	str	r3, [sp, #24]
 80261dc:	9b06      	ldr	r3, [sp, #24]
 80261de:	2302      	movs	r3, #2
 80261e0:	e9cd 030b 	strd	r0, r3, [sp, #44]	; 0x2c
 80261e4:	2300      	movs	r3, #0
 80261e6:	e9cd 330d 	strd	r3, r3, [sp, #52]	; 0x34
 80261ea:	2304      	movs	r3, #4
 80261ec:	e7cb      	b.n	8026186 <HAL_UART_MspInit+0xe6>
 80261ee:	4a36      	ldr	r2, [pc, #216]	; (80262c8 <HAL_UART_MspInit+0x228>)
 80261f0:	4293      	cmp	r3, r2
 80261f2:	d12b      	bne.n	802624c <HAL_UART_MspInit+0x1ac>
 80261f4:	2202      	movs	r2, #2
 80261f6:	2300      	movs	r3, #0
 80261f8:	a810      	add	r0, sp, #64	; 0x40
 80261fa:	e9cd 2310 	strd	r2, r3, [sp, #64]	; 0x40
 80261fe:	f001 fbc3 	bl	8027988 <HAL_RCCEx_PeriphCLKConfig>
 8026202:	b108      	cbz	r0, 8026208 <HAL_UART_MspInit+0x168>
 8026204:	f7ff f800 	bl	8025208 <Error_Handler>
 8026208:	4b2a      	ldr	r3, [pc, #168]	; (80262b4 <HAL_UART_MspInit+0x214>)
 802620a:	210c      	movs	r1, #12
 802620c:	f8d3 20e8 	ldr.w	r2, [r3, #232]	; 0xe8
 8026210:	f442 3200 	orr.w	r2, r2, #131072	; 0x20000
 8026214:	f8c3 20e8 	str.w	r2, [r3, #232]	; 0xe8
 8026218:	f8d3 20e8 	ldr.w	r2, [r3, #232]	; 0xe8
 802621c:	f402 3200 	and.w	r2, r2, #131072	; 0x20000
 8026220:	9207      	str	r2, [sp, #28]
 8026222:	9a07      	ldr	r2, [sp, #28]
 8026224:	f8d3 20e0 	ldr.w	r2, [r3, #224]	; 0xe0
 8026228:	f042 0201 	orr.w	r2, r2, #1
 802622c:	f8c3 20e0 	str.w	r2, [r3, #224]	; 0xe0
 8026230:	f8d3 30e0 	ldr.w	r3, [r3, #224]	; 0xe0
 8026234:	f003 0301 	and.w	r3, r3, #1
 8026238:	9308      	str	r3, [sp, #32]
 802623a:	9b08      	ldr	r3, [sp, #32]
 802623c:	2302      	movs	r3, #2
 802623e:	e9cd 130b 	strd	r1, r3, [sp, #44]	; 0x2c
 8026242:	2300      	movs	r3, #0
 8026244:	e9cd 330d 	strd	r3, r3, [sp, #52]	; 0x34
 8026248:	2307      	movs	r3, #7
 802624a:	e766      	b.n	802611a <HAL_UART_MspInit+0x7a>
 802624c:	4a1f      	ldr	r2, [pc, #124]	; (80262cc <HAL_UART_MspInit+0x22c>)
 802624e:	4293      	cmp	r3, r2
 8026250:	f47f af68 	bne.w	8026124 <HAL_UART_MspInit+0x84>
 8026254:	2202      	movs	r2, #2
 8026256:	2300      	movs	r3, #0
 8026258:	a810      	add	r0, sp, #64	; 0x40
 802625a:	e9cd 2310 	strd	r2, r3, [sp, #64]	; 0x40
 802625e:	f001 fb93 	bl	8027988 <HAL_RCCEx_PeriphCLKConfig>
 8026262:	b108      	cbz	r0, 8026268 <HAL_UART_MspInit+0x1c8>
 8026264:	f7fe ffd0 	bl	8025208 <Error_Handler>
 8026268:	4b12      	ldr	r3, [pc, #72]	; (80262b4 <HAL_UART_MspInit+0x214>)
 802626a:	f8d3 20e8 	ldr.w	r2, [r3, #232]	; 0xe8
 802626e:	f442 2280 	orr.w	r2, r2, #262144	; 0x40000
 8026272:	f8c3 20e8 	str.w	r2, [r3, #232]	; 0xe8
 8026276:	f8d3 20e8 	ldr.w	r2, [r3, #232]	; 0xe8
 802627a:	f402 2280 	and.w	r2, r2, #262144	; 0x40000
 802627e:	9209      	str	r2, [sp, #36]	; 0x24
 8026280:	9a09      	ldr	r2, [sp, #36]	; 0x24
 8026282:	f8d3 20e0 	ldr.w	r2, [r3, #224]	; 0xe0
 8026286:	f042 0202 	orr.w	r2, r2, #2
 802628a:	f8c3 20e0 	str.w	r2, [r3, #224]	; 0xe0
 802628e:	f44f 6240 	mov.w	r2, #3072	; 0xc00
 8026292:	f8d3 30e0 	ldr.w	r3, [r3, #224]	; 0xe0
 8026296:	f003 0302 	and.w	r3, r3, #2
 802629a:	930a      	str	r3, [sp, #40]	; 0x28
 802629c:	9b0a      	ldr	r3, [sp, #40]	; 0x28
 802629e:	2302      	movs	r3, #2
 80262a0:	e9cd 230b 	strd	r2, r3, [sp, #44]	; 0x2c
 80262a4:	2300      	movs	r3, #0
 80262a6:	e9cd 330d 	strd	r3, r3, [sp, #52]	; 0x34
 80262aa:	2307      	movs	r3, #7
 80262ac:	e76b      	b.n	8026186 <HAL_UART_MspInit+0xe6>
 80262ae:	bf00      	nop
 80262b0:	40004c00 	.word	0x40004c00
 80262b4:	58024400 	.word	0x58024400
 80262b8:	58020000 	.word	0x58020000
 80262bc:	40005000 	.word	0x40005000
 80262c0:	58020400 	.word	0x58020400
 80262c4:	40011000 	.word	0x40011000
 80262c8:	40004400 	.word	0x40004400
 80262cc:	40004800 	.word	0x40004800

080262d0 <HAL_UART_MspDeInit>:
 80262d0:	6803      	ldr	r3, [r0, #0]
 80262d2:	4a21      	ldr	r2, [pc, #132]	; (8026358 <HAL_UART_MspDeInit+0x88>)
 80262d4:	4293      	cmp	r3, r2
 80262d6:	d10a      	bne.n	80262ee <HAL_UART_MspDeInit+0x1e>
 80262d8:	4a20      	ldr	r2, [pc, #128]	; (802635c <HAL_UART_MspDeInit+0x8c>)
 80262da:	2103      	movs	r1, #3
 80262dc:	f8d2 30e8 	ldr.w	r3, [r2, #232]	; 0xe8
 80262e0:	f423 2300 	bic.w	r3, r3, #524288	; 0x80000
 80262e4:	f8c2 30e8 	str.w	r3, [r2, #232]	; 0xe8
 80262e8:	481d      	ldr	r0, [pc, #116]	; (8026360 <HAL_UART_MspDeInit+0x90>)
 80262ea:	f000 bcbb 	b.w	8026c64 <HAL_GPIO_DeInit>
 80262ee:	4a1d      	ldr	r2, [pc, #116]	; (8026364 <HAL_UART_MspDeInit+0x94>)
 80262f0:	4293      	cmp	r3, r2
 80262f2:	d10a      	bne.n	802630a <HAL_UART_MspDeInit+0x3a>
 80262f4:	4a19      	ldr	r2, [pc, #100]	; (802635c <HAL_UART_MspDeInit+0x8c>)
 80262f6:	f44f 5140 	mov.w	r1, #12288	; 0x3000
 80262fa:	f8d2 30e8 	ldr.w	r3, [r2, #232]	; 0xe8
 80262fe:	f423 1380 	bic.w	r3, r3, #1048576	; 0x100000
 8026302:	f8c2 30e8 	str.w	r3, [r2, #232]	; 0xe8
 8026306:	4818      	ldr	r0, [pc, #96]	; (8026368 <HAL_UART_MspDeInit+0x98>)
 8026308:	e7ef      	b.n	80262ea <HAL_UART_MspDeInit+0x1a>
 802630a:	4a18      	ldr	r2, [pc, #96]	; (802636c <HAL_UART_MspDeInit+0x9c>)
 802630c:	4293      	cmp	r3, r2
 802630e:	d109      	bne.n	8026324 <HAL_UART_MspDeInit+0x54>
 8026310:	4a12      	ldr	r2, [pc, #72]	; (802635c <HAL_UART_MspDeInit+0x8c>)
 8026312:	f44f 4140 	mov.w	r1, #49152	; 0xc000
 8026316:	f8d2 30f0 	ldr.w	r3, [r2, #240]	; 0xf0
 802631a:	f023 0310 	bic.w	r3, r3, #16
 802631e:	f8c2 30f0 	str.w	r3, [r2, #240]	; 0xf0
 8026322:	e7f0      	b.n	8026306 <HAL_UART_MspDeInit+0x36>
 8026324:	4a12      	ldr	r2, [pc, #72]	; (8026370 <HAL_UART_MspDeInit+0xa0>)
 8026326:	4293      	cmp	r3, r2
 8026328:	d108      	bne.n	802633c <HAL_UART_MspDeInit+0x6c>
 802632a:	4a0c      	ldr	r2, [pc, #48]	; (802635c <HAL_UART_MspDeInit+0x8c>)
 802632c:	210c      	movs	r1, #12
 802632e:	f8d2 30e8 	ldr.w	r3, [r2, #232]	; 0xe8
 8026332:	f423 3300 	bic.w	r3, r3, #131072	; 0x20000
 8026336:	f8c2 30e8 	str.w	r3, [r2, #232]	; 0xe8
 802633a:	e7d5      	b.n	80262e8 <HAL_UART_MspDeInit+0x18>
 802633c:	4a0d      	ldr	r2, [pc, #52]	; (8026374 <HAL_UART_MspDeInit+0xa4>)
 802633e:	4293      	cmp	r3, r2
 8026340:	d109      	bne.n	8026356 <HAL_UART_MspDeInit+0x86>
 8026342:	4a06      	ldr	r2, [pc, #24]	; (802635c <HAL_UART_MspDeInit+0x8c>)
 8026344:	f44f 6140 	mov.w	r1, #3072	; 0xc00
 8026348:	f8d2 30e8 	ldr.w	r3, [r2, #232]	; 0xe8
 802634c:	f423 2380 	bic.w	r3, r3, #262144	; 0x40000
 8026350:	f8c2 30e8 	str.w	r3, [r2, #232]	; 0xe8
 8026354:	e7d7      	b.n	8026306 <HAL_UART_MspDeInit+0x36>
 8026356:	4770      	bx	lr
 8026358:	40004c00 	.word	0x40004c00
 802635c:	58024400 	.word	0x58024400
 8026360:	58020000 	.word	0x58020000
 8026364:	40005000 	.word	0x40005000
 8026368:	58020400 	.word	0x58020400
 802636c:	40011000 	.word	0x40011000
 8026370:	40004400 	.word	0x40004400
 8026374:	40004800 	.word	0x40004800

08026378 <HAL_SRAM_MspInit>:
 8026378:	b5f0      	push	{r4, r5, r6, r7, lr}
 802637a:	b0b7      	sub	sp, #220	; 0xdc
 802637c:	2100      	movs	r1, #0
 802637e:	2214      	movs	r2, #20
 8026380:	a801      	add	r0, sp, #4
 8026382:	f003 fdcf 	bl	8029f24 <memset>
 8026386:	4b2f      	ldr	r3, [pc, #188]	; (8026444 <HAL_SRAM_MspInit+0xcc>)
 8026388:	6819      	ldr	r1, [r3, #0]
 802638a:	2900      	cmp	r1, #0
 802638c:	d157      	bne.n	802643e <HAL_SRAM_MspInit+0xc6>
 802638e:	2201      	movs	r2, #1
 8026390:	a808      	add	r0, sp, #32
 8026392:	601a      	str	r2, [r3, #0]
 8026394:	22b8      	movs	r2, #184	; 0xb8
 8026396:	f003 fdc5 	bl	8029f24 <memset>
 802639a:	f04f 7280 	mov.w	r2, #16777216	; 0x1000000
 802639e:	2300      	movs	r3, #0
 80263a0:	a806      	add	r0, sp, #24
 80263a2:	e9cd 2306 	strd	r2, r3, [sp, #24]
 80263a6:	f001 faef 	bl	8027988 <HAL_RCCEx_PeriphCLKConfig>
 80263aa:	b108      	cbz	r0, 80263b0 <HAL_SRAM_MspInit+0x38>
 80263ac:	f7fe ff2c 	bl	8025208 <Error_Handler>
 80263b0:	4b25      	ldr	r3, [pc, #148]	; (8026448 <HAL_SRAM_MspInit+0xd0>)
 80263b2:	2403      	movs	r4, #3
 80263b4:	2602      	movs	r6, #2
 80263b6:	2500      	movs	r5, #0
 80263b8:	f8d3 20d4 	ldr.w	r2, [r3, #212]	; 0xd4
 80263bc:	270c      	movs	r7, #12
 80263be:	a901      	add	r1, sp, #4
 80263c0:	4822      	ldr	r0, [pc, #136]	; (802644c <HAL_SRAM_MspInit+0xd4>)
 80263c2:	f442 5280 	orr.w	r2, r2, #4096	; 0x1000
 80263c6:	f8c3 20d4 	str.w	r2, [r3, #212]	; 0xd4
 80263ca:	f8d3 30d4 	ldr.w	r3, [r3, #212]	; 0xd4
 80263ce:	9705      	str	r7, [sp, #20]
 80263d0:	f403 5380 	and.w	r3, r3, #4096	; 0x1000
 80263d4:	9300      	str	r3, [sp, #0]
 80263d6:	9b00      	ldr	r3, [sp, #0]
 80263d8:	f24f 033f 	movw	r3, #61503	; 0xf03f
 80263dc:	e9cd 5403 	strd	r5, r4, [sp, #12]
 80263e0:	e9cd 3601 	strd	r3, r6, [sp, #4]
 80263e4:	f000 fb52 	bl	8026a8c <HAL_GPIO_Init>
 80263e8:	a901      	add	r1, sp, #4
 80263ea:	4819      	ldr	r0, [pc, #100]	; (8026450 <HAL_SRAM_MspInit+0xd8>)
 80263ec:	9705      	str	r7, [sp, #20]
 80263ee:	e9cd 4601 	strd	r4, r6, [sp, #4]
 80263f2:	e9cd 5403 	strd	r5, r4, [sp, #12]
 80263f6:	f000 fb49 	bl	8026a8c <HAL_GPIO_Init>
 80263fa:	f44f 63f0 	mov.w	r3, #1920	; 0x780
 80263fe:	a901      	add	r1, sp, #4
 8026400:	4814      	ldr	r0, [pc, #80]	; (8026454 <HAL_SRAM_MspInit+0xdc>)
 8026402:	9705      	str	r7, [sp, #20]
 8026404:	e9cd 3601 	strd	r3, r6, [sp, #4]
 8026408:	e9cd 5403 	strd	r5, r4, [sp, #12]
 802640c:	f000 fb3e 	bl	8026a8c <HAL_GPIO_Init>
 8026410:	f24c 0333 	movw	r3, #49203	; 0xc033
 8026414:	a901      	add	r1, sp, #4
 8026416:	4810      	ldr	r0, [pc, #64]	; (8026458 <HAL_SRAM_MspInit+0xe0>)
 8026418:	9705      	str	r7, [sp, #20]
 802641a:	e9cd 3601 	strd	r3, r6, [sp, #4]
 802641e:	e9cd 5403 	strd	r5, r4, [sp, #12]
 8026422:	f000 fb33 	bl	8026a8c <HAL_GPIO_Init>
 8026426:	f44f 73c0 	mov.w	r3, #384	; 0x180
 802642a:	a901      	add	r1, sp, #4
 802642c:	480b      	ldr	r0, [pc, #44]	; (802645c <HAL_SRAM_MspInit+0xe4>)
 802642e:	e9cd 3601 	strd	r3, r6, [sp, #4]
 8026432:	2309      	movs	r3, #9
 8026434:	e9cd 5403 	strd	r5, r4, [sp, #12]
 8026438:	9305      	str	r3, [sp, #20]
 802643a:	f000 fb27 	bl	8026a8c <HAL_GPIO_Init>
 802643e:	b037      	add	sp, #220	; 0xdc
 8026440:	bdf0      	pop	{r4, r5, r6, r7, pc}
 8026442:	bf00      	nop
 8026444:	24001f38 	.word	0x24001f38
 8026448:	58024400 	.word	0x58024400
 802644c:	58021400 	.word	0x58021400
 8026450:	58021800 	.word	0x58021800
 8026454:	58021000 	.word	0x58021000
 8026458:	58020c00 	.word	0x58020c00
 802645c:	58020800 	.word	0x58020800

08026460 <NMI_Handler>:
 8026460:	e7fe      	b.n	8026460 <NMI_Handler>

08026462 <HardFault_Handler>:
 8026462:	e7fe      	b.n	8026462 <HardFault_Handler>

08026464 <MemManage_Handler>:
 8026464:	e7fe      	b.n	8026464 <MemManage_Handler>

08026466 <BusFault_Handler>:
 8026466:	e7fe      	b.n	8026466 <BusFault_Handler>

08026468 <UsageFault_Handler>:
 8026468:	e7fe      	b.n	8026468 <UsageFault_Handler>

0802646a <SVC_Handler>:
 802646a:	4770      	bx	lr

0802646c <DebugMon_Handler>:
 802646c:	4770      	bx	lr

0802646e <PendSV_Handler>:
 802646e:	4770      	bx	lr

08026470 <SysTick_Handler>:
 8026470:	b538      	push	{r3, r4, r5, lr}
 8026472:	f000 f97d 	bl	8026770 <HAL_IncTick>
 8026476:	f000 f987 	bl	8026788 <HAL_GetTick>
 802647a:	4b14      	ldr	r3, [pc, #80]	; (80264cc <SysTick_Handler+0x5c>)
 802647c:	6018      	str	r0, [r3, #0]
 802647e:	4b14      	ldr	r3, [pc, #80]	; (80264d0 <SysTick_Handler+0x60>)
 8026480:	781b      	ldrb	r3, [r3, #0]
 8026482:	b163      	cbz	r3, 802649e <SysTick_Handler+0x2e>
 8026484:	f7fe fe28 	bl	80250d8 <dip_sw>
 8026488:	4c12      	ldr	r4, [pc, #72]	; (80264d4 <SysTick_Handler+0x64>)
 802648a:	b2c0      	uxtb	r0, r0
 802648c:	f010 0f36 	tst.w	r0, #54	; 0x36
 8026490:	7020      	strb	r0, [r4, #0]
 8026492:	d005      	beq.n	80264a0 <SysTick_Handler+0x30>
 8026494:	f7fd f98a 	bl	80237ac <TestAging>
 8026498:	7822      	ldrb	r2, [r4, #0]
 802649a:	4b0f      	ldr	r3, [pc, #60]	; (80264d8 <SysTick_Handler+0x68>)
 802649c:	701a      	strb	r2, [r3, #0]
 802649e:	bd38      	pop	{r3, r4, r5, pc}
 80264a0:	07c2      	lsls	r2, r0, #31
 80264a2:	d4f9      	bmi.n	8026498 <SysTick_Handler+0x28>
 80264a4:	0643      	lsls	r3, r0, #25
 80264a6:	d50a      	bpl.n	80264be <SysTick_Handler+0x4e>
 80264a8:	4d0c      	ldr	r5, [pc, #48]	; (80264dc <SysTick_Handler+0x6c>)
 80264aa:	490c      	ldr	r1, [pc, #48]	; (80264dc <SysTick_Handler+0x6c>)
 80264ac:	2000      	movs	r0, #0
 80264ae:	f7fd fdef 	bl	8024090 <IUart_RecvByte_check>
 80264b2:	2800      	cmp	r0, #0
 80264b4:	d0f0      	beq.n	8026498 <SysTick_Handler+0x28>
 80264b6:	7828      	ldrb	r0, [r5, #0]
 80264b8:	f7fd fabc 	bl	8023a34 <CMD_Test>
 80264bc:	e7f5      	b.n	80264aa <SysTick_Handler+0x3a>
 80264be:	4b06      	ldr	r3, [pc, #24]	; (80264d8 <SysTick_Handler+0x68>)
 80264c0:	781b      	ldrb	r3, [r3, #0]
 80264c2:	4283      	cmp	r3, r0
 80264c4:	d1e8      	bne.n	8026498 <SysTick_Handler+0x28>
 80264c6:	f7fc ffcb 	bl	8023460 <PassageProcessForSwing>
 80264ca:	e7e5      	b.n	8026498 <SysTick_Handler+0x28>
 80264cc:	24001f48 	.word	0x24001f48
 80264d0:	24001f34 	.word	0x24001f34
 80264d4:	24001f3d 	.word	0x24001f3d
 80264d8:	24001f3e 	.word	0x24001f3e
 80264dc:	24001f3c 	.word	0x24001f3c

080264e0 <SPI1_IRQHandler>:
 80264e0:	4801      	ldr	r0, [pc, #4]	; (80264e8 <SPI1_IRQHandler+0x8>)
 80264e2:	f002 bd21 	b.w	8028f28 <HAL_SPI_IRQHandler>
 80264e6:	bf00      	nop
 80264e8:	24001ae4 	.word	0x24001ae4

080264ec <TIM7_IRQHandler>:
 80264ec:	4801      	ldr	r0, [pc, #4]	; (80264f4 <TIM7_IRQHandler+0x8>)
 80264ee:	f002 be95 	b.w	802921c <HAL_TIM_IRQHandler>
 80264f2:	bf00      	nop
 80264f4:	24001c04 	.word	0x24001c04

080264f8 <_read>:
 80264f8:	b570      	push	{r4, r5, r6, lr}
 80264fa:	460d      	mov	r5, r1
 80264fc:	4614      	mov	r4, r2
 80264fe:	460e      	mov	r6, r1
 8026500:	1b73      	subs	r3, r6, r5
 8026502:	429c      	cmp	r4, r3
 8026504:	dc01      	bgt.n	802650a <_read+0x12>
 8026506:	4620      	mov	r0, r4
 8026508:	bd70      	pop	{r4, r5, r6, pc}
 802650a:	f7fe fa57 	bl	80249bc <__io_getchar>
 802650e:	f806 0b01 	strb.w	r0, [r6], #1
 8026512:	e7f5      	b.n	8026500 <_read+0x8>

08026514 <_write>:
 8026514:	b570      	push	{r4, r5, r6, lr}
 8026516:	460d      	mov	r5, r1
 8026518:	4614      	mov	r4, r2
 802651a:	460e      	mov	r6, r1
 802651c:	1b73      	subs	r3, r6, r5
 802651e:	429c      	cmp	r4, r3
 8026520:	dc01      	bgt.n	8026526 <_write+0x12>
 8026522:	4620      	mov	r0, r4
 8026524:	bd70      	pop	{r4, r5, r6, pc}
 8026526:	f816 0b01 	ldrb.w	r0, [r6], #1
 802652a:	f7fe fa75 	bl	8024a18 <__io_putchar>
 802652e:	e7f5      	b.n	802651c <_write+0x8>

08026530 <_close>:
 8026530:	f04f 30ff 	mov.w	r0, #4294967295
 8026534:	4770      	bx	lr

08026536 <_fstat>:
 8026536:	f44f 5300 	mov.w	r3, #8192	; 0x2000
 802653a:	2000      	movs	r0, #0
 802653c:	604b      	str	r3, [r1, #4]
 802653e:	4770      	bx	lr

08026540 <_isatty>:
 8026540:	2001      	movs	r0, #1
 8026542:	4770      	bx	lr

08026544 <_lseek>:
 8026544:	2000      	movs	r0, #0
 8026546:	4770      	bx	lr

08026548 <_sbrk>:
 8026548:	4a0b      	ldr	r2, [pc, #44]	; (8026578 <_sbrk+0x30>)
 802654a:	4603      	mov	r3, r0
 802654c:	6811      	ldr	r1, [r2, #0]
 802654e:	b510      	push	{r4, lr}
 8026550:	b909      	cbnz	r1, 8026556 <_sbrk+0xe>
 8026552:	490a      	ldr	r1, [pc, #40]	; (802657c <_sbrk+0x34>)
 8026554:	6011      	str	r1, [r2, #0]
 8026556:	6810      	ldr	r0, [r2, #0]
 8026558:	4909      	ldr	r1, [pc, #36]	; (8026580 <_sbrk+0x38>)
 802655a:	4c0a      	ldr	r4, [pc, #40]	; (8026584 <_sbrk+0x3c>)
 802655c:	4403      	add	r3, r0
 802655e:	1b09      	subs	r1, r1, r4
 8026560:	428b      	cmp	r3, r1
 8026562:	d906      	bls.n	8026572 <_sbrk+0x2a>
 8026564:	f003 fc96 	bl	8029e94 <__errno>
 8026568:	230c      	movs	r3, #12
 802656a:	6003      	str	r3, [r0, #0]
 802656c:	f04f 30ff 	mov.w	r0, #4294967295
 8026570:	bd10      	pop	{r4, pc}
 8026572:	6013      	str	r3, [r2, #0]
 8026574:	e7fc      	b.n	8026570 <_sbrk+0x28>
 8026576:	bf00      	nop
 8026578:	24001f40 	.word	0x24001f40
 802657c:	24001f60 	.word	0x24001f60
 8026580:	24080000 	.word	0x24080000
 8026584:	00000800 	.word	0x00000800

08026588 <SystemInit>:
 8026588:	4a27      	ldr	r2, [pc, #156]	; (8026628 <SystemInit+0xa0>)
 802658a:	f8d2 3088 	ldr.w	r3, [r2, #136]	; 0x88
 802658e:	f443 0370 	orr.w	r3, r3, #15728640	; 0xf00000
 8026592:	f8c2 3088 	str.w	r3, [r2, #136]	; 0x88
 8026596:	4a25      	ldr	r2, [pc, #148]	; (802662c <SystemInit+0xa4>)
 8026598:	6813      	ldr	r3, [r2, #0]
 802659a:	f003 030f 	and.w	r3, r3, #15
 802659e:	2b06      	cmp	r3, #6
 80265a0:	d805      	bhi.n	80265ae <SystemInit+0x26>
 80265a2:	6813      	ldr	r3, [r2, #0]
 80265a4:	f023 030f 	bic.w	r3, r3, #15
 80265a8:	f043 0307 	orr.w	r3, r3, #7
 80265ac:	6013      	str	r3, [r2, #0]
 80265ae:	4b20      	ldr	r3, [pc, #128]	; (8026630 <SystemInit+0xa8>)
 80265b0:	681a      	ldr	r2, [r3, #0]
 80265b2:	f042 0201 	orr.w	r2, r2, #1
 80265b6:	601a      	str	r2, [r3, #0]
 80265b8:	2200      	movs	r2, #0
 80265ba:	611a      	str	r2, [r3, #16]
 80265bc:	4a1d      	ldr	r2, [pc, #116]	; (8026634 <SystemInit+0xac>)
 80265be:	6819      	ldr	r1, [r3, #0]
 80265c0:	400a      	ands	r2, r1
 80265c2:	491a      	ldr	r1, [pc, #104]	; (802662c <SystemInit+0xa4>)
 80265c4:	601a      	str	r2, [r3, #0]
 80265c6:	680a      	ldr	r2, [r1, #0]
 80265c8:	0712      	lsls	r2, r2, #28
 80265ca:	d505      	bpl.n	80265d8 <SystemInit+0x50>
 80265cc:	680a      	ldr	r2, [r1, #0]
 80265ce:	f022 020f 	bic.w	r2, r2, #15
 80265d2:	f042 0207 	orr.w	r2, r2, #7
 80265d6:	600a      	str	r2, [r1, #0]
 80265d8:	2200      	movs	r2, #0
 80265da:	4917      	ldr	r1, [pc, #92]	; (8026638 <SystemInit+0xb0>)
 80265dc:	619a      	str	r2, [r3, #24]
 80265de:	61da      	str	r2, [r3, #28]
 80265e0:	621a      	str	r2, [r3, #32]
 80265e2:	6299      	str	r1, [r3, #40]	; 0x28
 80265e4:	4915      	ldr	r1, [pc, #84]	; (802663c <SystemInit+0xb4>)
 80265e6:	62d9      	str	r1, [r3, #44]	; 0x2c
 80265e8:	4915      	ldr	r1, [pc, #84]	; (8026640 <SystemInit+0xb8>)
 80265ea:	6319      	str	r1, [r3, #48]	; 0x30
 80265ec:	635a      	str	r2, [r3, #52]	; 0x34
 80265ee:	6399      	str	r1, [r3, #56]	; 0x38
 80265f0:	63da      	str	r2, [r3, #60]	; 0x3c
 80265f2:	6419      	str	r1, [r3, #64]	; 0x40
 80265f4:	645a      	str	r2, [r3, #68]	; 0x44
 80265f6:	6819      	ldr	r1, [r3, #0]
 80265f8:	f421 2180 	bic.w	r1, r1, #262144	; 0x40000
 80265fc:	6019      	str	r1, [r3, #0]
 80265fe:	661a      	str	r2, [r3, #96]	; 0x60
 8026600:	4b10      	ldr	r3, [pc, #64]	; (8026644 <SystemInit+0xbc>)
 8026602:	681b      	ldr	r3, [r3, #0]
 8026604:	0c1b      	lsrs	r3, r3, #16
 8026606:	041b      	lsls	r3, r3, #16
 8026608:	f1b3 5f00 	cmp.w	r3, #536870912	; 0x20000000
 802660c:	d203      	bcs.n	8026616 <SystemInit+0x8e>
 802660e:	4b0e      	ldr	r3, [pc, #56]	; (8026648 <SystemInit+0xc0>)
 8026610:	2201      	movs	r2, #1
 8026612:	f8c3 2108 	str.w	r2, [r3, #264]	; 0x108
 8026616:	4b0d      	ldr	r3, [pc, #52]	; (802664c <SystemInit+0xc4>)
 8026618:	f243 02d2 	movw	r2, #12498	; 0x30d2
 802661c:	601a      	str	r2, [r3, #0]
 802661e:	4b02      	ldr	r3, [pc, #8]	; (8026628 <SystemInit+0xa0>)
 8026620:	4a0b      	ldr	r2, [pc, #44]	; (8026650 <SystemInit+0xc8>)
 8026622:	609a      	str	r2, [r3, #8]
 8026624:	4770      	bx	lr
 8026626:	bf00      	nop
 8026628:	e000ed00 	.word	0xe000ed00
 802662c:	52002000 	.word	0x52002000
 8026630:	58024400 	.word	0x58024400
 8026634:	eaf6ed7f 	.word	0xeaf6ed7f
 8026638:	02020200 	.word	0x02020200
 802663c:	01ff0000 	.word	0x01ff0000
 8026640:	01010280 	.word	0x01010280
 8026644:	5c001000 	.word	0x5c001000
 8026648:	51008000 	.word	0x51008000
 802664c:	52004000 	.word	0x52004000
 8026650:	08020000 	.word	0x08020000

08026654 <mstimeout>:
 8026654:	b538      	push	{r3, r4, r5, lr}
 8026656:	460d      	mov	r5, r1
 8026658:	4604      	mov	r4, r0
 802665a:	f7fe f921 	bl	80248a0 <bsp_GetTickCount>
 802665e:	b915      	cbnz	r5, 8026666 <mstimeout+0x12>
 8026660:	6020      	str	r0, [r4, #0]
 8026662:	2001      	movs	r0, #1
 8026664:	bd38      	pop	{r3, r4, r5, pc}
 8026666:	6823      	ldr	r3, [r4, #0]
 8026668:	1ac3      	subs	r3, r0, r3
 802666a:	429d      	cmp	r5, r3
 802666c:	d9f8      	bls.n	8026660 <mstimeout+0xc>
 802666e:	2000      	movs	r0, #0
 8026670:	e7f8      	b.n	8026664 <mstimeout+0x10>
	...

08026674 <Reset_Handler>:
 8026674:	f8df d034 	ldr.w	sp, [pc, #52]	; 80266ac <LoopFillZerobss+0xe>
 8026678:	f7ff ff86 	bl	8026588 <SystemInit>
 802667c:	480c      	ldr	r0, [pc, #48]	; (80266b0 <LoopFillZerobss+0x12>)
 802667e:	490d      	ldr	r1, [pc, #52]	; (80266b4 <LoopFillZerobss+0x16>)
 8026680:	4a0d      	ldr	r2, [pc, #52]	; (80266b8 <LoopFillZerobss+0x1a>)
 8026682:	2300      	movs	r3, #0
 8026684:	e002      	b.n	802668c <LoopCopyDataInit>

08026686 <CopyDataInit>:
 8026686:	58d4      	ldr	r4, [r2, r3]
 8026688:	50c4      	str	r4, [r0, r3]
 802668a:	3304      	adds	r3, #4

0802668c <LoopCopyDataInit>:
 802668c:	18c4      	adds	r4, r0, r3
 802668e:	428c      	cmp	r4, r1
 8026690:	d3f9      	bcc.n	8026686 <CopyDataInit>
 8026692:	4a0a      	ldr	r2, [pc, #40]	; (80266bc <LoopFillZerobss+0x1e>)
 8026694:	4c0a      	ldr	r4, [pc, #40]	; (80266c0 <LoopFillZerobss+0x22>)
 8026696:	2300      	movs	r3, #0
 8026698:	e001      	b.n	802669e <LoopFillZerobss>

0802669a <FillZerobss>:
 802669a:	6013      	str	r3, [r2, #0]
 802669c:	3204      	adds	r2, #4

0802669e <LoopFillZerobss>:
 802669e:	42a2      	cmp	r2, r4
 80266a0:	d3fb      	bcc.n	802669a <FillZerobss>
 80266a2:	f003 fbfd 	bl	8029ea0 <__libc_init_array>
 80266a6:	f7fe fd55 	bl	8025154 <main>
 80266aa:	4770      	bx	lr
 80266ac:	24080000 	.word	0x24080000
 80266b0:	24000000 	.word	0x24000000
 80266b4:	240000a4 	.word	0x240000a4
 80266b8:	0802bf94 	.word	0x0802bf94
 80266bc:	240000a8 	.word	0x240000a8
 80266c0:	24001f5c 	.word	0x24001f5c

080266c4 <ADC3_IRQHandler>:
 80266c4:	e7fe      	b.n	80266c4 <ADC3_IRQHandler>
	...

080266c8 <HAL_InitTick>:
 80266c8:	b538      	push	{r3, r4, r5, lr}
 80266ca:	4b0f      	ldr	r3, [pc, #60]	; (8026708 <HAL_InitTick+0x40>)
 80266cc:	4605      	mov	r5, r0
 80266ce:	7818      	ldrb	r0, [r3, #0]
 80266d0:	b908      	cbnz	r0, 80266d6 <HAL_InitTick+0xe>
 80266d2:	2001      	movs	r0, #1
 80266d4:	bd38      	pop	{r3, r4, r5, pc}
 80266d6:	f44f 737a 	mov.w	r3, #1000	; 0x3e8
 80266da:	4a0c      	ldr	r2, [pc, #48]	; (802670c <HAL_InitTick+0x44>)
 80266dc:	fbb3 f3f0 	udiv	r3, r3, r0
 80266e0:	6810      	ldr	r0, [r2, #0]
 80266e2:	fbb0 f0f3 	udiv	r0, r0, r3
 80266e6:	f000 f8bf 	bl	8026868 <HAL_SYSTICK_Config>
 80266ea:	4604      	mov	r4, r0
 80266ec:	2800      	cmp	r0, #0
 80266ee:	d1f0      	bne.n	80266d2 <HAL_InitTick+0xa>
 80266f0:	2d0f      	cmp	r5, #15
 80266f2:	d8ee      	bhi.n	80266d2 <HAL_InitTick+0xa>
 80266f4:	4602      	mov	r2, r0
 80266f6:	4629      	mov	r1, r5
 80266f8:	f04f 30ff 	mov.w	r0, #4294967295
 80266fc:	f000 f874 	bl	80267e8 <HAL_NVIC_SetPriority>
 8026700:	4b03      	ldr	r3, [pc, #12]	; (8026710 <HAL_InitTick+0x48>)
 8026702:	4620      	mov	r0, r4
 8026704:	601d      	str	r5, [r3, #0]
 8026706:	e7e5      	b.n	80266d4 <HAL_InitTick+0xc>
 8026708:	24000038 	.word	0x24000038
 802670c:	24000030 	.word	0x24000030
 8026710:	2400003c 	.word	0x2400003c

08026714 <HAL_Init>:
 8026714:	b510      	push	{r4, lr}
 8026716:	2003      	movs	r0, #3
 8026718:	f000 f854 	bl	80267c4 <HAL_NVIC_SetPriorityGrouping>
 802671c:	f000 fe38 	bl	8027390 <HAL_RCC_GetSysClockFreq>
 8026720:	490f      	ldr	r1, [pc, #60]	; (8026760 <HAL_Init+0x4c>)
 8026722:	4a10      	ldr	r2, [pc, #64]	; (8026764 <HAL_Init+0x50>)
 8026724:	698b      	ldr	r3, [r1, #24]
 8026726:	f3c3 2303 	ubfx	r3, r3, #8, #4
 802672a:	5cd3      	ldrb	r3, [r2, r3]
 802672c:	f003 031f 	and.w	r3, r3, #31
 8026730:	40d8      	lsrs	r0, r3
 8026732:	698b      	ldr	r3, [r1, #24]
 8026734:	f003 030f 	and.w	r3, r3, #15
 8026738:	5cd3      	ldrb	r3, [r2, r3]
 802673a:	4a0b      	ldr	r2, [pc, #44]	; (8026768 <HAL_Init+0x54>)
 802673c:	f003 031f 	and.w	r3, r3, #31
 8026740:	fa20 f303 	lsr.w	r3, r0, r3
 8026744:	6013      	str	r3, [r2, #0]
 8026746:	4b09      	ldr	r3, [pc, #36]	; (802676c <HAL_Init+0x58>)
 8026748:	6018      	str	r0, [r3, #0]
 802674a:	200f      	movs	r0, #15
 802674c:	f7ff ffbc 	bl	80266c8 <HAL_InitTick>
 8026750:	4604      	mov	r4, r0
 8026752:	b918      	cbnz	r0, 802675c <HAL_Init+0x48>
 8026754:	f7ff fc1c 	bl	8025f90 <HAL_MspInit>
 8026758:	4620      	mov	r0, r4
 802675a:	bd10      	pop	{r4, pc}
 802675c:	2401      	movs	r4, #1
 802675e:	e7fb      	b.n	8026758 <HAL_Init+0x44>
 8026760:	58024400 	.word	0x58024400
 8026764:	0802be70 	.word	0x0802be70
 8026768:	24000034 	.word	0x24000034
 802676c:	24000030 	.word	0x24000030

08026770 <HAL_IncTick>:
 8026770:	4a03      	ldr	r2, [pc, #12]	; (8026780 <HAL_IncTick+0x10>)
 8026772:	4b04      	ldr	r3, [pc, #16]	; (8026784 <HAL_IncTick+0x14>)
 8026774:	6811      	ldr	r1, [r2, #0]
 8026776:	781b      	ldrb	r3, [r3, #0]
 8026778:	440b      	add	r3, r1
 802677a:	6013      	str	r3, [r2, #0]
 802677c:	4770      	bx	lr
 802677e:	bf00      	nop
 8026780:	24001f44 	.word	0x24001f44
 8026784:	24000038 	.word	0x24000038

08026788 <HAL_GetTick>:
 8026788:	4b01      	ldr	r3, [pc, #4]	; (8026790 <HAL_GetTick+0x8>)
 802678a:	6818      	ldr	r0, [r3, #0]
 802678c:	4770      	bx	lr
 802678e:	bf00      	nop
 8026790:	24001f44 	.word	0x24001f44

08026794 <HAL_Delay>:
 8026794:	b538      	push	{r3, r4, r5, lr}
 8026796:	4604      	mov	r4, r0
 8026798:	f7ff fff6 	bl	8026788 <HAL_GetTick>
 802679c:	4605      	mov	r5, r0
 802679e:	1c63      	adds	r3, r4, #1
 80267a0:	bf1e      	ittt	ne
 80267a2:	4b04      	ldrne	r3, [pc, #16]	; (80267b4 <HAL_Delay+0x20>)
 80267a4:	781b      	ldrbne	r3, [r3, #0]
 80267a6:	18e4      	addne	r4, r4, r3
 80267a8:	f7ff ffee 	bl	8026788 <HAL_GetTick>
 80267ac:	1b43      	subs	r3, r0, r5
 80267ae:	42a3      	cmp	r3, r4
 80267b0:	d3fa      	bcc.n	80267a8 <HAL_Delay+0x14>
 80267b2:	bd38      	pop	{r3, r4, r5, pc}
 80267b4:	24000038 	.word	0x24000038

080267b8 <HAL_GetREVID>:
 80267b8:	4b01      	ldr	r3, [pc, #4]	; (80267c0 <HAL_GetREVID+0x8>)
 80267ba:	6818      	ldr	r0, [r3, #0]
 80267bc:	0c00      	lsrs	r0, r0, #16
 80267be:	4770      	bx	lr
 80267c0:	5c001000 	.word	0x5c001000

080267c4 <HAL_NVIC_SetPriorityGrouping>:
 80267c4:	4907      	ldr	r1, [pc, #28]	; (80267e4 <HAL_NVIC_SetPriorityGrouping+0x20>)
 80267c6:	0203      	lsls	r3, r0, #8
 80267c8:	68ca      	ldr	r2, [r1, #12]
 80267ca:	f403 63e0 	and.w	r3, r3, #1792	; 0x700
 80267ce:	f422 62e0 	bic.w	r2, r2, #1792	; 0x700
 80267d2:	0412      	lsls	r2, r2, #16
 80267d4:	0c12      	lsrs	r2, r2, #16
 80267d6:	4313      	orrs	r3, r2
 80267d8:	f043 63bf 	orr.w	r3, r3, #100139008	; 0x5f80000
 80267dc:	f443 3300 	orr.w	r3, r3, #131072	; 0x20000
 80267e0:	60cb      	str	r3, [r1, #12]
 80267e2:	4770      	bx	lr
 80267e4:	e000ed00 	.word	0xe000ed00

080267e8 <HAL_NVIC_SetPriority>:
 80267e8:	4b16      	ldr	r3, [pc, #88]	; (8026844 <HAL_NVIC_SetPriority+0x5c>)
 80267ea:	b530      	push	{r4, r5, lr}
 80267ec:	68dc      	ldr	r4, [r3, #12]
 80267ee:	f3c4 2402 	ubfx	r4, r4, #8, #3
 80267f2:	f1c4 0507 	rsb	r5, r4, #7
 80267f6:	1d23      	adds	r3, r4, #4
 80267f8:	2d04      	cmp	r5, #4
 80267fa:	bf28      	it	cs
 80267fc:	2504      	movcs	r5, #4
 80267fe:	2b06      	cmp	r3, #6
 8026800:	f04f 33ff 	mov.w	r3, #4294967295
 8026804:	bf8c      	ite	hi
 8026806:	3c03      	subhi	r4, #3
 8026808:	2400      	movls	r4, #0
 802680a:	fa03 f505 	lsl.w	r5, r3, r5
 802680e:	2800      	cmp	r0, #0
 8026810:	fa03 f304 	lsl.w	r3, r3, r4
 8026814:	ea21 0105 	bic.w	r1, r1, r5
 8026818:	ea22 0203 	bic.w	r2, r2, r3
 802681c:	fa01 f104 	lsl.w	r1, r1, r4
 8026820:	ea41 0302 	orr.w	r3, r1, r2
 8026824:	ea4f 1303 	mov.w	r3, r3, lsl #4
 8026828:	b2db      	uxtb	r3, r3
 802682a:	db06      	blt.n	802683a <HAL_NVIC_SetPriority+0x52>
 802682c:	f100 4060 	add.w	r0, r0, #3758096384	; 0xe0000000
 8026830:	f500 4061 	add.w	r0, r0, #57600	; 0xe100
 8026834:	f880 3300 	strb.w	r3, [r0, #768]	; 0x300
 8026838:	bd30      	pop	{r4, r5, pc}
 802683a:	f000 000f 	and.w	r0, r0, #15
 802683e:	4a02      	ldr	r2, [pc, #8]	; (8026848 <HAL_NVIC_SetPriority+0x60>)
 8026840:	5413      	strb	r3, [r2, r0]
 8026842:	e7f9      	b.n	8026838 <HAL_NVIC_SetPriority+0x50>
 8026844:	e000ed00 	.word	0xe000ed00
 8026848:	e000ed14 	.word	0xe000ed14

0802684c <HAL_NVIC_EnableIRQ>:
 802684c:	2800      	cmp	r0, #0
 802684e:	db08      	blt.n	8026862 <HAL_NVIC_EnableIRQ+0x16>
 8026850:	2301      	movs	r3, #1
 8026852:	0942      	lsrs	r2, r0, #5
 8026854:	f000 001f 	and.w	r0, r0, #31
 8026858:	fa03 f000 	lsl.w	r0, r3, r0
 802685c:	4b01      	ldr	r3, [pc, #4]	; (8026864 <HAL_NVIC_EnableIRQ+0x18>)
 802685e:	f843 0022 	str.w	r0, [r3, r2, lsl #2]
 8026862:	4770      	bx	lr
 8026864:	e000e100 	.word	0xe000e100

08026868 <HAL_SYSTICK_Config>:
 8026868:	3801      	subs	r0, #1
 802686a:	f1b0 7f80 	cmp.w	r0, #16777216	; 0x1000000
 802686e:	d20b      	bcs.n	8026888 <HAL_SYSTICK_Config+0x20>
 8026870:	f04f 23e0 	mov.w	r3, #3758153728	; 0xe000e000
 8026874:	4a05      	ldr	r2, [pc, #20]	; (802688c <HAL_SYSTICK_Config+0x24>)
 8026876:	21f0      	movs	r1, #240	; 0xf0
 8026878:	6158      	str	r0, [r3, #20]
 802687a:	2000      	movs	r0, #0
 802687c:	f882 1023 	strb.w	r1, [r2, #35]	; 0x23
 8026880:	2207      	movs	r2, #7
 8026882:	6198      	str	r0, [r3, #24]
 8026884:	611a      	str	r2, [r3, #16]
 8026886:	4770      	bx	lr
 8026888:	2001      	movs	r0, #1
 802688a:	4770      	bx	lr
 802688c:	e000ed00 	.word	0xe000ed00

08026890 <HAL_MPU_Disable>:
 8026890:	f3bf 8f5f 	dmb	sy
 8026894:	4b04      	ldr	r3, [pc, #16]	; (80268a8 <HAL_MPU_Disable+0x18>)
 8026896:	6a5a      	ldr	r2, [r3, #36]	; 0x24
 8026898:	f422 3280 	bic.w	r2, r2, #65536	; 0x10000
 802689c:	625a      	str	r2, [r3, #36]	; 0x24
 802689e:	2200      	movs	r2, #0
 80268a0:	f8c3 2094 	str.w	r2, [r3, #148]	; 0x94
 80268a4:	4770      	bx	lr
 80268a6:	bf00      	nop
 80268a8:	e000ed00 	.word	0xe000ed00

080268ac <HAL_MPU_Enable>:
 80268ac:	4b06      	ldr	r3, [pc, #24]	; (80268c8 <HAL_MPU_Enable+0x1c>)
 80268ae:	f040 0001 	orr.w	r0, r0, #1
 80268b2:	f8c3 0094 	str.w	r0, [r3, #148]	; 0x94
 80268b6:	6a5a      	ldr	r2, [r3, #36]	; 0x24
 80268b8:	f442 3280 	orr.w	r2, r2, #65536	; 0x10000
 80268bc:	625a      	str	r2, [r3, #36]	; 0x24
 80268be:	f3bf 8f4f 	dsb	sy
 80268c2:	f3bf 8f6f 	isb	sy
 80268c6:	4770      	bx	lr
 80268c8:	e000ed00 	.word	0xe000ed00

080268cc <HAL_MPU_ConfigRegion>:
 80268cc:	7843      	ldrb	r3, [r0, #1]
 80268ce:	4a14      	ldr	r2, [pc, #80]	; (8026920 <HAL_MPU_ConfigRegion+0x54>)
 80268d0:	b510      	push	{r4, lr}
 80268d2:	f8c2 3098 	str.w	r3, [r2, #152]	; 0x98
 80268d6:	7801      	ldrb	r1, [r0, #0]
 80268d8:	b1e9      	cbz	r1, 8026916 <HAL_MPU_ConfigRegion+0x4a>
 80268da:	6843      	ldr	r3, [r0, #4]
 80268dc:	f8c2 309c 	str.w	r3, [r2, #156]	; 0x9c
 80268e0:	7ac3      	ldrb	r3, [r0, #11]
 80268e2:	7b04      	ldrb	r4, [r0, #12]
 80268e4:	061b      	lsls	r3, r3, #24
 80268e6:	ea43 7304 	orr.w	r3, r3, r4, lsl #28
 80268ea:	430b      	orrs	r3, r1
 80268ec:	7a81      	ldrb	r1, [r0, #10]
 80268ee:	ea43 43c1 	orr.w	r3, r3, r1, lsl #19
 80268f2:	7b41      	ldrb	r1, [r0, #13]
 80268f4:	ea43 4381 	orr.w	r3, r3, r1, lsl #18
 80268f8:	7b81      	ldrb	r1, [r0, #14]
 80268fa:	ea43 4341 	orr.w	r3, r3, r1, lsl #17
 80268fe:	7bc1      	ldrb	r1, [r0, #15]
 8026900:	ea43 4301 	orr.w	r3, r3, r1, lsl #16
 8026904:	7a41      	ldrb	r1, [r0, #9]
 8026906:	ea43 2301 	orr.w	r3, r3, r1, lsl #8
 802690a:	7a01      	ldrb	r1, [r0, #8]
 802690c:	ea43 0341 	orr.w	r3, r3, r1, lsl #1
 8026910:	f8c2 30a0 	str.w	r3, [r2, #160]	; 0xa0
 8026914:	bd10      	pop	{r4, pc}
 8026916:	f8c2 109c 	str.w	r1, [r2, #156]	; 0x9c
 802691a:	f8c2 10a0 	str.w	r1, [r2, #160]	; 0xa0
 802691e:	e7f9      	b.n	8026914 <HAL_MPU_ConfigRegion+0x48>
 8026920:	e000ed00 	.word	0xe000ed00

08026924 <HAL_DMA_Abort_IT>:
 8026924:	b510      	push	{r4, lr}
 8026926:	b128      	cbz	r0, 8026934 <HAL_DMA_Abort_IT+0x10>
 8026928:	f890 3035 	ldrb.w	r3, [r0, #53]	; 0x35
 802692c:	2b02      	cmp	r3, #2
 802692e:	d003      	beq.n	8026938 <HAL_DMA_Abort_IT+0x14>
 8026930:	2380      	movs	r3, #128	; 0x80
 8026932:	6543      	str	r3, [r0, #84]	; 0x54
 8026934:	2001      	movs	r0, #1
 8026936:	e07f      	b.n	8026a38 <HAL_DMA_Abort_IT+0x114>
 8026938:	6803      	ldr	r3, [r0, #0]
 802693a:	4a50      	ldr	r2, [pc, #320]	; (8026a7c <HAL_DMA_Abort_IT+0x158>)
 802693c:	4293      	cmp	r3, r2
 802693e:	d052      	beq.n	80269e6 <HAL_DMA_Abort_IT+0xc2>
 8026940:	494f      	ldr	r1, [pc, #316]	; (8026a80 <HAL_DMA_Abort_IT+0x15c>)
 8026942:	428b      	cmp	r3, r1
 8026944:	d04f      	beq.n	80269e6 <HAL_DMA_Abort_IT+0xc2>
 8026946:	3118      	adds	r1, #24
 8026948:	428b      	cmp	r3, r1
 802694a:	d04c      	beq.n	80269e6 <HAL_DMA_Abort_IT+0xc2>
 802694c:	3118      	adds	r1, #24
 802694e:	428b      	cmp	r3, r1
 8026950:	d049      	beq.n	80269e6 <HAL_DMA_Abort_IT+0xc2>
 8026952:	3118      	adds	r1, #24
 8026954:	428b      	cmp	r3, r1
 8026956:	d046      	beq.n	80269e6 <HAL_DMA_Abort_IT+0xc2>
 8026958:	3118      	adds	r1, #24
 802695a:	428b      	cmp	r3, r1
 802695c:	d043      	beq.n	80269e6 <HAL_DMA_Abort_IT+0xc2>
 802695e:	3118      	adds	r1, #24
 8026960:	428b      	cmp	r3, r1
 8026962:	d040      	beq.n	80269e6 <HAL_DMA_Abort_IT+0xc2>
 8026964:	3118      	adds	r1, #24
 8026966:	428b      	cmp	r3, r1
 8026968:	d03d      	beq.n	80269e6 <HAL_DMA_Abort_IT+0xc2>
 802696a:	f501 7156 	add.w	r1, r1, #856	; 0x358
 802696e:	428b      	cmp	r3, r1
 8026970:	d039      	beq.n	80269e6 <HAL_DMA_Abort_IT+0xc2>
 8026972:	3118      	adds	r1, #24
 8026974:	428b      	cmp	r3, r1
 8026976:	d036      	beq.n	80269e6 <HAL_DMA_Abort_IT+0xc2>
 8026978:	3118      	adds	r1, #24
 802697a:	428b      	cmp	r3, r1
 802697c:	d033      	beq.n	80269e6 <HAL_DMA_Abort_IT+0xc2>
 802697e:	3118      	adds	r1, #24
 8026980:	428b      	cmp	r3, r1
 8026982:	d030      	beq.n	80269e6 <HAL_DMA_Abort_IT+0xc2>
 8026984:	3118      	adds	r1, #24
 8026986:	428b      	cmp	r3, r1
 8026988:	d02d      	beq.n	80269e6 <HAL_DMA_Abort_IT+0xc2>
 802698a:	3118      	adds	r1, #24
 802698c:	428b      	cmp	r3, r1
 802698e:	d02a      	beq.n	80269e6 <HAL_DMA_Abort_IT+0xc2>
 8026990:	3118      	adds	r1, #24
 8026992:	428b      	cmp	r3, r1
 8026994:	d027      	beq.n	80269e6 <HAL_DMA_Abort_IT+0xc2>
 8026996:	3118      	adds	r1, #24
 8026998:	428b      	cmp	r3, r1
 802699a:	d024      	beq.n	80269e6 <HAL_DMA_Abort_IT+0xc2>
 802699c:	681a      	ldr	r2, [r3, #0]
 802699e:	f022 020e 	bic.w	r2, r2, #14
 80269a2:	601a      	str	r2, [r3, #0]
 80269a4:	681a      	ldr	r2, [r3, #0]
 80269a6:	f022 0201 	bic.w	r2, r2, #1
 80269aa:	601a      	str	r2, [r3, #0]
 80269ac:	4a35      	ldr	r2, [pc, #212]	; (8026a84 <HAL_DMA_Abort_IT+0x160>)
 80269ae:	4293      	cmp	r3, r2
 80269b0:	d143      	bne.n	8026a3a <HAL_DMA_Abort_IT+0x116>
 80269b2:	6e02      	ldr	r2, [r0, #96]	; 0x60
 80269b4:	6813      	ldr	r3, [r2, #0]
 80269b6:	f423 7380 	bic.w	r3, r3, #256	; 0x100
 80269ba:	6013      	str	r3, [r2, #0]
 80269bc:	e9d0 1316 	ldrd	r1, r3, [r0, #88]	; 0x58
 80269c0:	f003 021f 	and.w	r2, r3, #31
 80269c4:	2301      	movs	r3, #1
 80269c6:	4093      	lsls	r3, r2
 80269c8:	604b      	str	r3, [r1, #4]
 80269ca:	e9d0 3219 	ldrd	r3, r2, [r0, #100]	; 0x64
 80269ce:	605a      	str	r2, [r3, #4]
 80269d0:	6ec3      	ldr	r3, [r0, #108]	; 0x6c
 80269d2:	2b00      	cmp	r3, #0
 80269d4:	d046      	beq.n	8026a64 <HAL_DMA_Abort_IT+0x140>
 80269d6:	681a      	ldr	r2, [r3, #0]
 80269d8:	f422 7280 	bic.w	r2, r2, #256	; 0x100
 80269dc:	601a      	str	r2, [r3, #0]
 80269de:	e9d0 321c 	ldrd	r3, r2, [r0, #112]	; 0x70
 80269e2:	605a      	str	r2, [r3, #4]
 80269e4:	e03e      	b.n	8026a64 <HAL_DMA_Abort_IT+0x140>
 80269e6:	2104      	movs	r1, #4
 80269e8:	4293      	cmp	r3, r2
 80269ea:	f880 1035 	strb.w	r1, [r0, #53]	; 0x35
 80269ee:	d01e      	beq.n	8026a2e <HAL_DMA_Abort_IT+0x10a>
 80269f0:	4a23      	ldr	r2, [pc, #140]	; (8026a80 <HAL_DMA_Abort_IT+0x15c>)
 80269f2:	4293      	cmp	r3, r2
 80269f4:	d01b      	beq.n	8026a2e <HAL_DMA_Abort_IT+0x10a>
 80269f6:	3218      	adds	r2, #24
 80269f8:	4293      	cmp	r3, r2
 80269fa:	d018      	beq.n	8026a2e <HAL_DMA_Abort_IT+0x10a>
 80269fc:	3218      	adds	r2, #24
 80269fe:	4293      	cmp	r3, r2
 8026a00:	d015      	beq.n	8026a2e <HAL_DMA_Abort_IT+0x10a>
 8026a02:	3218      	adds	r2, #24
 8026a04:	4293      	cmp	r3, r2
 8026a06:	d012      	beq.n	8026a2e <HAL_DMA_Abort_IT+0x10a>
 8026a08:	3218      	adds	r2, #24
 8026a0a:	4293      	cmp	r3, r2
 8026a0c:	d00f      	beq.n	8026a2e <HAL_DMA_Abort_IT+0x10a>
 8026a0e:	3218      	adds	r2, #24
 8026a10:	4293      	cmp	r3, r2
 8026a12:	d00c      	beq.n	8026a2e <HAL_DMA_Abort_IT+0x10a>
 8026a14:	3218      	adds	r2, #24
 8026a16:	4293      	cmp	r3, r2
 8026a18:	d009      	beq.n	8026a2e <HAL_DMA_Abort_IT+0x10a>
 8026a1a:	f502 7256 	add.w	r2, r2, #856	; 0x358
 8026a1e:	4293      	cmp	r3, r2
 8026a20:	d005      	beq.n	8026a2e <HAL_DMA_Abort_IT+0x10a>
 8026a22:	3218      	adds	r2, #24
 8026a24:	4293      	cmp	r3, r2
 8026a26:	d002      	beq.n	8026a2e <HAL_DMA_Abort_IT+0x10a>
 8026a28:	3218      	adds	r2, #24
 8026a2a:	4293      	cmp	r3, r2
 8026a2c:	d0ff      	beq.n	8026a2e <HAL_DMA_Abort_IT+0x10a>
 8026a2e:	681a      	ldr	r2, [r3, #0]
 8026a30:	f022 0201 	bic.w	r2, r2, #1
 8026a34:	601a      	str	r2, [r3, #0]
 8026a36:	2000      	movs	r0, #0
 8026a38:	bd10      	pop	{r4, pc}
 8026a3a:	4a13      	ldr	r2, [pc, #76]	; (8026a88 <HAL_DMA_Abort_IT+0x164>)
 8026a3c:	4293      	cmp	r3, r2
 8026a3e:	d0b8      	beq.n	80269b2 <HAL_DMA_Abort_IT+0x8e>
 8026a40:	3214      	adds	r2, #20
 8026a42:	4293      	cmp	r3, r2
 8026a44:	d0b5      	beq.n	80269b2 <HAL_DMA_Abort_IT+0x8e>
 8026a46:	3214      	adds	r2, #20
 8026a48:	4293      	cmp	r3, r2
 8026a4a:	d0b2      	beq.n	80269b2 <HAL_DMA_Abort_IT+0x8e>
 8026a4c:	3214      	adds	r2, #20
 8026a4e:	4293      	cmp	r3, r2
 8026a50:	d0af      	beq.n	80269b2 <HAL_DMA_Abort_IT+0x8e>
 8026a52:	3214      	adds	r2, #20
 8026a54:	4293      	cmp	r3, r2
 8026a56:	d0ac      	beq.n	80269b2 <HAL_DMA_Abort_IT+0x8e>
 8026a58:	3214      	adds	r2, #20
 8026a5a:	4293      	cmp	r3, r2
 8026a5c:	d0a9      	beq.n	80269b2 <HAL_DMA_Abort_IT+0x8e>
 8026a5e:	3214      	adds	r2, #20
 8026a60:	4293      	cmp	r3, r2
 8026a62:	d0a6      	beq.n	80269b2 <HAL_DMA_Abort_IT+0x8e>
 8026a64:	2301      	movs	r3, #1
 8026a66:	2400      	movs	r4, #0
 8026a68:	f880 3035 	strb.w	r3, [r0, #53]	; 0x35
 8026a6c:	6d03      	ldr	r3, [r0, #80]	; 0x50
 8026a6e:	f880 4034 	strb.w	r4, [r0, #52]	; 0x34
 8026a72:	b10b      	cbz	r3, 8026a78 <HAL_DMA_Abort_IT+0x154>
 8026a74:	4798      	blx	r3
 8026a76:	e7de      	b.n	8026a36 <HAL_DMA_Abort_IT+0x112>
 8026a78:	4618      	mov	r0, r3
 8026a7a:	e7dd      	b.n	8026a38 <HAL_DMA_Abort_IT+0x114>
 8026a7c:	40020010 	.word	0x40020010
 8026a80:	40020028 	.word	0x40020028
 8026a84:	58025408 	.word	0x58025408
 8026a88:	5802541c 	.word	0x5802541c

08026a8c <HAL_GPIO_Init>:
 8026a8c:	e92d 4ff7 	stmdb	sp!, {r0, r1, r2, r4, r5, r6, r7, r8, r9, sl, fp, lr}
 8026a90:	2300      	movs	r3, #0
 8026a92:	f8df 91cc 	ldr.w	r9, [pc, #460]	; 8026c60 <HAL_GPIO_Init+0x1d4>
 8026a96:	f04f 44b0 	mov.w	r4, #1476395008	; 0x58000000
 8026a9a:	680a      	ldr	r2, [r1, #0]
 8026a9c:	fa32 f503 	lsrs.w	r5, r2, r3
 8026aa0:	d102      	bne.n	8026aa8 <HAL_GPIO_Init+0x1c>
 8026aa2:	b003      	add	sp, #12
 8026aa4:	e8bd 8ff0 	ldmia.w	sp!, {r4, r5, r6, r7, r8, r9, sl, fp, pc}
 8026aa8:	f04f 0e01 	mov.w	lr, #1
 8026aac:	fa0e fe03 	lsl.w	lr, lr, r3
 8026ab0:	ea1e 0202 	ands.w	r2, lr, r2
 8026ab4:	f000 80bd 	beq.w	8026c32 <HAL_GPIO_Init+0x1a6>
 8026ab8:	684e      	ldr	r6, [r1, #4]
 8026aba:	ea4f 0843 	mov.w	r8, r3, lsl #1
 8026abe:	f04f 0c03 	mov.w	ip, #3
 8026ac2:	f006 0503 	and.w	r5, r6, #3
 8026ac6:	fa0c fc08 	lsl.w	ip, ip, r8
 8026aca:	1e6f      	subs	r7, r5, #1
 8026acc:	ea6f 0c0c 	mvn.w	ip, ip
 8026ad0:	2f01      	cmp	r7, #1
 8026ad2:	d834      	bhi.n	8026b3e <HAL_GPIO_Init+0xb2>
 8026ad4:	6887      	ldr	r7, [r0, #8]
 8026ad6:	ea07 0a0c 	and.w	sl, r7, ip
 8026ada:	68cf      	ldr	r7, [r1, #12]
 8026adc:	fa07 f708 	lsl.w	r7, r7, r8
 8026ae0:	ea47 070a 	orr.w	r7, r7, sl
 8026ae4:	6087      	str	r7, [r0, #8]
 8026ae6:	6847      	ldr	r7, [r0, #4]
 8026ae8:	ea27 0e0e 	bic.w	lr, r7, lr
 8026aec:	f3c6 1700 	ubfx	r7, r6, #4, #1
 8026af0:	409f      	lsls	r7, r3
 8026af2:	ea47 070e 	orr.w	r7, r7, lr
 8026af6:	6047      	str	r7, [r0, #4]
 8026af8:	68c7      	ldr	r7, [r0, #12]
 8026afa:	2d02      	cmp	r5, #2
 8026afc:	ea07 0e0c 	and.w	lr, r7, ip
 8026b00:	688f      	ldr	r7, [r1, #8]
 8026b02:	fa07 f708 	lsl.w	r7, r7, r8
 8026b06:	ea47 070e 	orr.w	r7, r7, lr
 8026b0a:	60c7      	str	r7, [r0, #12]
 8026b0c:	d119      	bne.n	8026b42 <HAL_GPIO_Init+0xb6>
 8026b0e:	ea4f 0ad3 	mov.w	sl, r3, lsr #3
 8026b12:	f003 0b07 	and.w	fp, r3, #7
 8026b16:	f04f 0e0f 	mov.w	lr, #15
 8026b1a:	eb00 0a8a 	add.w	sl, r0, sl, lsl #2
 8026b1e:	ea4f 0b8b 	mov.w	fp, fp, lsl #2
 8026b22:	f8da 7020 	ldr.w	r7, [sl, #32]
 8026b26:	fa0e fe0b 	lsl.w	lr, lr, fp
 8026b2a:	ea27 0e0e 	bic.w	lr, r7, lr
 8026b2e:	690f      	ldr	r7, [r1, #16]
 8026b30:	fa07 f70b 	lsl.w	r7, r7, fp
 8026b34:	ea47 070e 	orr.w	r7, r7, lr
 8026b38:	f8ca 7020 	str.w	r7, [sl, #32]
 8026b3c:	e001      	b.n	8026b42 <HAL_GPIO_Init+0xb6>
 8026b3e:	2d03      	cmp	r5, #3
 8026b40:	d1da      	bne.n	8026af8 <HAL_GPIO_Init+0x6c>
 8026b42:	6807      	ldr	r7, [r0, #0]
 8026b44:	fa05 f508 	lsl.w	r5, r5, r8
 8026b48:	f416 3f40 	tst.w	r6, #196608	; 0x30000
 8026b4c:	ea07 070c 	and.w	r7, r7, ip
 8026b50:	ea47 0705 	orr.w	r7, r7, r5
 8026b54:	6007      	str	r7, [r0, #0]
 8026b56:	d06c      	beq.n	8026c32 <HAL_GPIO_Init+0x1a6>
 8026b58:	f8d9 50f4 	ldr.w	r5, [r9, #244]	; 0xf4
 8026b5c:	f023 0703 	bic.w	r7, r3, #3
 8026b60:	f003 0c03 	and.w	ip, r3, #3
 8026b64:	f04f 0e0f 	mov.w	lr, #15
 8026b68:	f045 0502 	orr.w	r5, r5, #2
 8026b6c:	f107 47b0 	add.w	r7, r7, #1476395008	; 0x58000000
 8026b70:	ea4f 0c8c 	mov.w	ip, ip, lsl #2
 8026b74:	f8c9 50f4 	str.w	r5, [r9, #244]	; 0xf4
 8026b78:	f507 6780 	add.w	r7, r7, #1024	; 0x400
 8026b7c:	f8d9 50f4 	ldr.w	r5, [r9, #244]	; 0xf4
 8026b80:	f005 0502 	and.w	r5, r5, #2
 8026b84:	9501      	str	r5, [sp, #4]
 8026b86:	9d01      	ldr	r5, [sp, #4]
 8026b88:	fa0e f50c 	lsl.w	r5, lr, ip
 8026b8c:	f8d7 8008 	ldr.w	r8, [r7, #8]
 8026b90:	ea28 0e05 	bic.w	lr, r8, r5
 8026b94:	4d31      	ldr	r5, [pc, #196]	; (8026c5c <HAL_GPIO_Init+0x1d0>)
 8026b96:	42a8      	cmp	r0, r5
 8026b98:	d04d      	beq.n	8026c36 <HAL_GPIO_Init+0x1aa>
 8026b9a:	f505 6580 	add.w	r5, r5, #1024	; 0x400
 8026b9e:	42a8      	cmp	r0, r5
 8026ba0:	d04b      	beq.n	8026c3a <HAL_GPIO_Init+0x1ae>
 8026ba2:	f505 6580 	add.w	r5, r5, #1024	; 0x400
 8026ba6:	42a8      	cmp	r0, r5
 8026ba8:	d049      	beq.n	8026c3e <HAL_GPIO_Init+0x1b2>
 8026baa:	f505 6580 	add.w	r5, r5, #1024	; 0x400
 8026bae:	42a8      	cmp	r0, r5
 8026bb0:	d047      	beq.n	8026c42 <HAL_GPIO_Init+0x1b6>
 8026bb2:	f505 6580 	add.w	r5, r5, #1024	; 0x400
 8026bb6:	42a8      	cmp	r0, r5
 8026bb8:	d045      	beq.n	8026c46 <HAL_GPIO_Init+0x1ba>
 8026bba:	f505 6580 	add.w	r5, r5, #1024	; 0x400
 8026bbe:	42a8      	cmp	r0, r5
 8026bc0:	d043      	beq.n	8026c4a <HAL_GPIO_Init+0x1be>
 8026bc2:	f505 6580 	add.w	r5, r5, #1024	; 0x400
 8026bc6:	42a8      	cmp	r0, r5
 8026bc8:	d041      	beq.n	8026c4e <HAL_GPIO_Init+0x1c2>
 8026bca:	f505 6580 	add.w	r5, r5, #1024	; 0x400
 8026bce:	42a8      	cmp	r0, r5
 8026bd0:	d03f      	beq.n	8026c52 <HAL_GPIO_Init+0x1c6>
 8026bd2:	f505 6580 	add.w	r5, r5, #1024	; 0x400
 8026bd6:	42a8      	cmp	r0, r5
 8026bd8:	d03d      	beq.n	8026c56 <HAL_GPIO_Init+0x1ca>
 8026bda:	f505 6580 	add.w	r5, r5, #1024	; 0x400
 8026bde:	42a8      	cmp	r0, r5
 8026be0:	bf0c      	ite	eq
 8026be2:	2509      	moveq	r5, #9
 8026be4:	250a      	movne	r5, #10
 8026be6:	fa05 f50c 	lsl.w	r5, r5, ip
 8026bea:	f416 1f80 	tst.w	r6, #1048576	; 0x100000
 8026bee:	ea45 050e 	orr.w	r5, r5, lr
 8026bf2:	60bd      	str	r5, [r7, #8]
 8026bf4:	ea6f 0702 	mvn.w	r7, r2
 8026bf8:	6825      	ldr	r5, [r4, #0]
 8026bfa:	bf0c      	ite	eq
 8026bfc:	403d      	andeq	r5, r7
 8026bfe:	4315      	orrne	r5, r2
 8026c00:	f416 1f00 	tst.w	r6, #2097152	; 0x200000
 8026c04:	6025      	str	r5, [r4, #0]
 8026c06:	6865      	ldr	r5, [r4, #4]
 8026c08:	bf0c      	ite	eq
 8026c0a:	403d      	andeq	r5, r7
 8026c0c:	4315      	orrne	r5, r2
 8026c0e:	f416 3f00 	tst.w	r6, #131072	; 0x20000
 8026c12:	6065      	str	r5, [r4, #4]
 8026c14:	f8d4 5084 	ldr.w	r5, [r4, #132]	; 0x84
 8026c18:	bf0c      	ite	eq
 8026c1a:	403d      	andeq	r5, r7
 8026c1c:	4315      	orrne	r5, r2
 8026c1e:	03f6      	lsls	r6, r6, #15
 8026c20:	f8c4 5084 	str.w	r5, [r4, #132]	; 0x84
 8026c24:	f8d4 5080 	ldr.w	r5, [r4, #128]	; 0x80
 8026c28:	bf54      	ite	pl
 8026c2a:	403d      	andpl	r5, r7
 8026c2c:	4315      	orrmi	r5, r2
 8026c2e:	f8c4 5080 	str.w	r5, [r4, #128]	; 0x80
 8026c32:	3301      	adds	r3, #1
 8026c34:	e731      	b.n	8026a9a <HAL_GPIO_Init+0xe>
 8026c36:	2500      	movs	r5, #0
 8026c38:	e7d5      	b.n	8026be6 <HAL_GPIO_Init+0x15a>
 8026c3a:	2501      	movs	r5, #1
 8026c3c:	e7d3      	b.n	8026be6 <HAL_GPIO_Init+0x15a>
 8026c3e:	2502      	movs	r5, #2
 8026c40:	e7d1      	b.n	8026be6 <HAL_GPIO_Init+0x15a>
 8026c42:	2503      	movs	r5, #3
 8026c44:	e7cf      	b.n	8026be6 <HAL_GPIO_Init+0x15a>
 8026c46:	2504      	movs	r5, #4
 8026c48:	e7cd      	b.n	8026be6 <HAL_GPIO_Init+0x15a>
 8026c4a:	2505      	movs	r5, #5
 8026c4c:	e7cb      	b.n	8026be6 <HAL_GPIO_Init+0x15a>
 8026c4e:	2506      	movs	r5, #6
 8026c50:	e7c9      	b.n	8026be6 <HAL_GPIO_Init+0x15a>
 8026c52:	2507      	movs	r5, #7
 8026c54:	e7c7      	b.n	8026be6 <HAL_GPIO_Init+0x15a>
 8026c56:	2508      	movs	r5, #8
 8026c58:	e7c5      	b.n	8026be6 <HAL_GPIO_Init+0x15a>
 8026c5a:	bf00      	nop
 8026c5c:	58020000 	.word	0x58020000
 8026c60:	58024400 	.word	0x58024400

08026c64 <HAL_GPIO_DeInit>:
 8026c64:	e92d 4ff0 	stmdb	sp!, {r4, r5, r6, r7, r8, r9, sl, fp, lr}
 8026c68:	2200      	movs	r2, #0
 8026c6a:	f8df 812c 	ldr.w	r8, [pc, #300]	; 8026d98 <HAL_GPIO_DeInit+0x134>
 8026c6e:	f8df 912c 	ldr.w	r9, [pc, #300]	; 8026d9c <HAL_GPIO_DeInit+0x138>
 8026c72:	f8df a12c 	ldr.w	sl, [pc, #300]	; 8026da0 <HAL_GPIO_DeInit+0x13c>
 8026c76:	f8df b12c 	ldr.w	fp, [pc, #300]	; 8026da4 <HAL_GPIO_DeInit+0x140>
 8026c7a:	fa31 f302 	lsrs.w	r3, r1, r2
 8026c7e:	d101      	bne.n	8026c84 <HAL_GPIO_DeInit+0x20>
 8026c80:	e8bd 8ff0 	ldmia.w	sp!, {r4, r5, r6, r7, r8, r9, sl, fp, pc}
 8026c84:	2301      	movs	r3, #1
 8026c86:	fa03 fc02 	lsl.w	ip, r3, r2
 8026c8a:	ea1c 0601 	ands.w	r6, ip, r1
 8026c8e:	d06d      	beq.n	8026d6c <HAL_GPIO_DeInit+0x108>
 8026c90:	f022 0403 	bic.w	r4, r2, #3
 8026c94:	f002 0703 	and.w	r7, r2, #3
 8026c98:	250f      	movs	r5, #15
 8026c9a:	4b3e      	ldr	r3, [pc, #248]	; (8026d94 <HAL_GPIO_DeInit+0x130>)
 8026c9c:	f104 44b0 	add.w	r4, r4, #1476395008	; 0x58000000
 8026ca0:	00bf      	lsls	r7, r7, #2
 8026ca2:	4298      	cmp	r0, r3
 8026ca4:	fa05 f507 	lsl.w	r5, r5, r7
 8026ca8:	f8d4 e408 	ldr.w	lr, [r4, #1032]	; 0x408
 8026cac:	f504 6480 	add.w	r4, r4, #1024	; 0x400
 8026cb0:	ea05 0e0e 	and.w	lr, r5, lr
 8026cb4:	d05c      	beq.n	8026d70 <HAL_GPIO_DeInit+0x10c>
 8026cb6:	f503 6380 	add.w	r3, r3, #1024	; 0x400
 8026cba:	4298      	cmp	r0, r3
 8026cbc:	d05a      	beq.n	8026d74 <HAL_GPIO_DeInit+0x110>
 8026cbe:	f503 6380 	add.w	r3, r3, #1024	; 0x400
 8026cc2:	4298      	cmp	r0, r3
 8026cc4:	d058      	beq.n	8026d78 <HAL_GPIO_DeInit+0x114>
 8026cc6:	f503 6380 	add.w	r3, r3, #1024	; 0x400
 8026cca:	4298      	cmp	r0, r3
 8026ccc:	d056      	beq.n	8026d7c <HAL_GPIO_DeInit+0x118>
 8026cce:	f503 6380 	add.w	r3, r3, #1024	; 0x400
 8026cd2:	4298      	cmp	r0, r3
 8026cd4:	d054      	beq.n	8026d80 <HAL_GPIO_DeInit+0x11c>
 8026cd6:	4540      	cmp	r0, r8
 8026cd8:	d054      	beq.n	8026d84 <HAL_GPIO_DeInit+0x120>
 8026cda:	4548      	cmp	r0, r9
 8026cdc:	d054      	beq.n	8026d88 <HAL_GPIO_DeInit+0x124>
 8026cde:	4550      	cmp	r0, sl
 8026ce0:	d054      	beq.n	8026d8c <HAL_GPIO_DeInit+0x128>
 8026ce2:	4558      	cmp	r0, fp
 8026ce4:	d054      	beq.n	8026d90 <HAL_GPIO_DeInit+0x12c>
 8026ce6:	f503 53a0 	add.w	r3, r3, #5120	; 0x1400
 8026cea:	4298      	cmp	r0, r3
 8026cec:	bf0c      	ite	eq
 8026cee:	2309      	moveq	r3, #9
 8026cf0:	230a      	movne	r3, #10
 8026cf2:	40bb      	lsls	r3, r7
 8026cf4:	4573      	cmp	r3, lr
 8026cf6:	d119      	bne.n	8026d2c <HAL_GPIO_DeInit+0xc8>
 8026cf8:	f04f 43b0 	mov.w	r3, #1476395008	; 0x58000000
 8026cfc:	f8d3 7080 	ldr.w	r7, [r3, #128]	; 0x80
 8026d00:	ea27 0706 	bic.w	r7, r7, r6
 8026d04:	f8c3 7080 	str.w	r7, [r3, #128]	; 0x80
 8026d08:	f8d3 7084 	ldr.w	r7, [r3, #132]	; 0x84
 8026d0c:	ea27 0706 	bic.w	r7, r7, r6
 8026d10:	f8c3 7084 	str.w	r7, [r3, #132]	; 0x84
 8026d14:	685f      	ldr	r7, [r3, #4]
 8026d16:	ea27 0706 	bic.w	r7, r7, r6
 8026d1a:	605f      	str	r7, [r3, #4]
 8026d1c:	681f      	ldr	r7, [r3, #0]
 8026d1e:	ea27 0606 	bic.w	r6, r7, r6
 8026d22:	601e      	str	r6, [r3, #0]
 8026d24:	68a3      	ldr	r3, [r4, #8]
 8026d26:	ea23 0305 	bic.w	r3, r3, r5
 8026d2a:	60a3      	str	r3, [r4, #8]
 8026d2c:	2503      	movs	r5, #3
 8026d2e:	0053      	lsls	r3, r2, #1
 8026d30:	6804      	ldr	r4, [r0, #0]
 8026d32:	f002 0707 	and.w	r7, r2, #7
 8026d36:	fa05 f303 	lsl.w	r3, r5, r3
 8026d3a:	260f      	movs	r6, #15
 8026d3c:	00bf      	lsls	r7, r7, #2
 8026d3e:	431c      	orrs	r4, r3
 8026d40:	40be      	lsls	r6, r7
 8026d42:	6004      	str	r4, [r0, #0]
 8026d44:	fa22 f405 	lsr.w	r4, r2, r5
 8026d48:	eb00 0484 	add.w	r4, r0, r4, lsl #2
 8026d4c:	6a25      	ldr	r5, [r4, #32]
 8026d4e:	ea25 0606 	bic.w	r6, r5, r6
 8026d52:	6226      	str	r6, [r4, #32]
 8026d54:	68c4      	ldr	r4, [r0, #12]
 8026d56:	ea24 0403 	bic.w	r4, r4, r3
 8026d5a:	60c4      	str	r4, [r0, #12]
 8026d5c:	6844      	ldr	r4, [r0, #4]
 8026d5e:	ea24 040c 	bic.w	r4, r4, ip
 8026d62:	6044      	str	r4, [r0, #4]
 8026d64:	6884      	ldr	r4, [r0, #8]
 8026d66:	ea24 0303 	bic.w	r3, r4, r3
 8026d6a:	6083      	str	r3, [r0, #8]
 8026d6c:	3201      	adds	r2, #1
 8026d6e:	e784      	b.n	8026c7a <HAL_GPIO_DeInit+0x16>
 8026d70:	2300      	movs	r3, #0
 8026d72:	e7be      	b.n	8026cf2 <HAL_GPIO_DeInit+0x8e>
 8026d74:	2301      	movs	r3, #1
 8026d76:	e7bc      	b.n	8026cf2 <HAL_GPIO_DeInit+0x8e>
 8026d78:	2302      	movs	r3, #2
 8026d7a:	e7ba      	b.n	8026cf2 <HAL_GPIO_DeInit+0x8e>
 8026d7c:	2303      	movs	r3, #3
 8026d7e:	e7b8      	b.n	8026cf2 <HAL_GPIO_DeInit+0x8e>
 8026d80:	2304      	movs	r3, #4
 8026d82:	e7b6      	b.n	8026cf2 <HAL_GPIO_DeInit+0x8e>
 8026d84:	2305      	movs	r3, #5
 8026d86:	e7b4      	b.n	8026cf2 <HAL_GPIO_DeInit+0x8e>
 8026d88:	2306      	movs	r3, #6
 8026d8a:	e7b2      	b.n	8026cf2 <HAL_GPIO_DeInit+0x8e>
 8026d8c:	2307      	movs	r3, #7
 8026d8e:	e7b0      	b.n	8026cf2 <HAL_GPIO_DeInit+0x8e>
 8026d90:	2308      	movs	r3, #8
 8026d92:	e7ae      	b.n	8026cf2 <HAL_GPIO_DeInit+0x8e>
 8026d94:	58020000 	.word	0x58020000
 8026d98:	58021400 	.word	0x58021400
 8026d9c:	58021800 	.word	0x58021800
 8026da0:	58021c00 	.word	0x58021c00
 8026da4:	58022000 	.word	0x58022000

08026da8 <HAL_GPIO_ReadPin>:
 8026da8:	6903      	ldr	r3, [r0, #16]
 8026daa:	4219      	tst	r1, r3
 8026dac:	bf14      	ite	ne
 8026dae:	2001      	movne	r0, #1
 8026db0:	2000      	moveq	r0, #0
 8026db2:	4770      	bx	lr

08026db4 <HAL_GPIO_WritePin>:
 8026db4:	b10a      	cbz	r2, 8026dba <HAL_GPIO_WritePin+0x6>
 8026db6:	6181      	str	r1, [r0, #24]
 8026db8:	4770      	bx	lr
 8026dba:	0409      	lsls	r1, r1, #16
 8026dbc:	e7fb      	b.n	8026db6 <HAL_GPIO_WritePin+0x2>

08026dbe <HAL_GPIO_TogglePin>:
 8026dbe:	6943      	ldr	r3, [r0, #20]
 8026dc0:	ea01 0203 	and.w	r2, r1, r3
 8026dc4:	ea21 0103 	bic.w	r1, r1, r3
 8026dc8:	ea41 4102 	orr.w	r1, r1, r2, lsl #16
 8026dcc:	6181      	str	r1, [r0, #24]
 8026dce:	4770      	bx	lr

08026dd0 <HAL_PWR_EnableBkUpAccess>:
 8026dd0:	4a02      	ldr	r2, [pc, #8]	; (8026ddc <HAL_PWR_EnableBkUpAccess+0xc>)
 8026dd2:	6813      	ldr	r3, [r2, #0]
 8026dd4:	f443 7380 	orr.w	r3, r3, #256	; 0x100
 8026dd8:	6013      	str	r3, [r2, #0]
 8026dda:	4770      	bx	lr
 8026ddc:	58024800 	.word	0x58024800

08026de0 <HAL_PWREx_ConfigSupply>:
 8026de0:	b538      	push	{r3, r4, r5, lr}
 8026de2:	4c10      	ldr	r4, [pc, #64]	; (8026e24 <HAL_PWREx_ConfigSupply+0x44>)
 8026de4:	68e3      	ldr	r3, [r4, #12]
 8026de6:	f013 0f04 	tst.w	r3, #4
 8026dea:	68e3      	ldr	r3, [r4, #12]
 8026dec:	d105      	bne.n	8026dfa <HAL_PWREx_ConfigSupply+0x1a>
 8026dee:	f003 0307 	and.w	r3, r3, #7
 8026df2:	1a18      	subs	r0, r3, r0
 8026df4:	bf18      	it	ne
 8026df6:	2001      	movne	r0, #1
 8026df8:	bd38      	pop	{r3, r4, r5, pc}
 8026dfa:	f023 0307 	bic.w	r3, r3, #7
 8026dfe:	4318      	orrs	r0, r3
 8026e00:	60e0      	str	r0, [r4, #12]
 8026e02:	f7ff fcc1 	bl	8026788 <HAL_GetTick>
 8026e06:	4605      	mov	r5, r0
 8026e08:	6863      	ldr	r3, [r4, #4]
 8026e0a:	049b      	lsls	r3, r3, #18
 8026e0c:	d501      	bpl.n	8026e12 <HAL_PWREx_ConfigSupply+0x32>
 8026e0e:	2000      	movs	r0, #0
 8026e10:	e7f2      	b.n	8026df8 <HAL_PWREx_ConfigSupply+0x18>
 8026e12:	f7ff fcb9 	bl	8026788 <HAL_GetTick>
 8026e16:	1b40      	subs	r0, r0, r5
 8026e18:	f5b0 7f7a 	cmp.w	r0, #1000	; 0x3e8
 8026e1c:	d9f4      	bls.n	8026e08 <HAL_PWREx_ConfigSupply+0x28>
 8026e1e:	2001      	movs	r0, #1
 8026e20:	e7ea      	b.n	8026df8 <HAL_PWREx_ConfigSupply+0x18>
 8026e22:	bf00      	nop
 8026e24:	58024800 	.word	0x58024800

08026e28 <HAL_RCC_OscConfig>:
 8026e28:	b5f8      	push	{r3, r4, r5, r6, r7, lr}
 8026e2a:	4604      	mov	r4, r0
 8026e2c:	b908      	cbnz	r0, 8026e32 <HAL_RCC_OscConfig+0xa>
 8026e2e:	2001      	movs	r0, #1
 8026e30:	e08b      	b.n	8026f4a <HAL_RCC_OscConfig+0x122>
 8026e32:	6803      	ldr	r3, [r0, #0]
 8026e34:	07df      	lsls	r7, r3, #31
 8026e36:	d45e      	bmi.n	8026ef6 <HAL_RCC_OscConfig+0xce>
 8026e38:	6823      	ldr	r3, [r4, #0]
 8026e3a:	079e      	lsls	r6, r3, #30
 8026e3c:	f100 80af 	bmi.w	8026f9e <HAL_RCC_OscConfig+0x176>
 8026e40:	6823      	ldr	r3, [r4, #0]
 8026e42:	06da      	lsls	r2, r3, #27
 8026e44:	d527      	bpl.n	8026e96 <HAL_RCC_OscConfig+0x6e>
 8026e46:	4b9e      	ldr	r3, [pc, #632]	; (80270c0 <HAL_RCC_OscConfig+0x298>)
 8026e48:	691a      	ldr	r2, [r3, #16]
 8026e4a:	6a99      	ldr	r1, [r3, #40]	; 0x28
 8026e4c:	f002 0238 	and.w	r2, r2, #56	; 0x38
 8026e50:	2a08      	cmp	r2, #8
 8026e52:	d007      	beq.n	8026e64 <HAL_RCC_OscConfig+0x3c>
 8026e54:	2a18      	cmp	r2, #24
 8026e56:	f040 8107 	bne.w	8027068 <HAL_RCC_OscConfig+0x240>
 8026e5a:	f001 0203 	and.w	r2, r1, #3
 8026e5e:	2a01      	cmp	r2, #1
 8026e60:	f040 8102 	bne.w	8027068 <HAL_RCC_OscConfig+0x240>
 8026e64:	681b      	ldr	r3, [r3, #0]
 8026e66:	05db      	lsls	r3, r3, #23
 8026e68:	d502      	bpl.n	8026e70 <HAL_RCC_OscConfig+0x48>
 8026e6a:	69e3      	ldr	r3, [r4, #28]
 8026e6c:	2b80      	cmp	r3, #128	; 0x80
 8026e6e:	d1de      	bne.n	8026e2e <HAL_RCC_OscConfig+0x6>
 8026e70:	f7ff fca2 	bl	80267b8 <HAL_GetREVID>
 8026e74:	f241 0303 	movw	r3, #4099	; 0x1003
 8026e78:	6a21      	ldr	r1, [r4, #32]
 8026e7a:	4298      	cmp	r0, r3
 8026e7c:	4b90      	ldr	r3, [pc, #576]	; (80270c0 <HAL_RCC_OscConfig+0x298>)
 8026e7e:	f200 80ec 	bhi.w	802705a <HAL_RCC_OscConfig+0x232>
 8026e82:	685a      	ldr	r2, [r3, #4]
 8026e84:	2920      	cmp	r1, #32
 8026e86:	f022 42f8 	bic.w	r2, r2, #2080374784	; 0x7c000000
 8026e8a:	bf0c      	ite	eq
 8026e8c:	f042 4280 	orreq.w	r2, r2, #1073741824	; 0x40000000
 8026e90:	ea42 6281 	orrne.w	r2, r2, r1, lsl #26
 8026e94:	605a      	str	r2, [r3, #4]
 8026e96:	6823      	ldr	r3, [r4, #0]
 8026e98:	0719      	lsls	r1, r3, #28
 8026e9a:	f100 8127 	bmi.w	80270ec <HAL_RCC_OscConfig+0x2c4>
 8026e9e:	6823      	ldr	r3, [r4, #0]
 8026ea0:	069a      	lsls	r2, r3, #26
 8026ea2:	f100 8148 	bmi.w	8027136 <HAL_RCC_OscConfig+0x30e>
 8026ea6:	6823      	ldr	r3, [r4, #0]
 8026ea8:	075d      	lsls	r5, r3, #29
 8026eaa:	d51e      	bpl.n	8026eea <HAL_RCC_OscConfig+0xc2>
 8026eac:	4d85      	ldr	r5, [pc, #532]	; (80270c4 <HAL_RCC_OscConfig+0x29c>)
 8026eae:	682b      	ldr	r3, [r5, #0]
 8026eb0:	f443 7380 	orr.w	r3, r3, #256	; 0x100
 8026eb4:	602b      	str	r3, [r5, #0]
 8026eb6:	f7ff fc67 	bl	8026788 <HAL_GetTick>
 8026eba:	4606      	mov	r6, r0
 8026ebc:	682b      	ldr	r3, [r5, #0]
 8026ebe:	05da      	lsls	r2, r3, #23
 8026ec0:	f140 815e 	bpl.w	8027180 <HAL_RCC_OscConfig+0x358>
 8026ec4:	68a3      	ldr	r3, [r4, #8]
 8026ec6:	4d7e      	ldr	r5, [pc, #504]	; (80270c0 <HAL_RCC_OscConfig+0x298>)
 8026ec8:	2b01      	cmp	r3, #1
 8026eca:	f040 8160 	bne.w	802718e <HAL_RCC_OscConfig+0x366>
 8026ece:	6f2b      	ldr	r3, [r5, #112]	; 0x70
 8026ed0:	f043 0301 	orr.w	r3, r3, #1
 8026ed4:	672b      	str	r3, [r5, #112]	; 0x70
 8026ed6:	f241 3788 	movw	r7, #5000	; 0x1388
 8026eda:	f7ff fc55 	bl	8026788 <HAL_GetTick>
 8026ede:	4e78      	ldr	r6, [pc, #480]	; (80270c0 <HAL_RCC_OscConfig+0x298>)
 8026ee0:	4605      	mov	r5, r0
 8026ee2:	6f33      	ldr	r3, [r6, #112]	; 0x70
 8026ee4:	079b      	lsls	r3, r3, #30
 8026ee6:	f140 8178 	bpl.w	80271da <HAL_RCC_OscConfig+0x3b2>
 8026eea:	6a60      	ldr	r0, [r4, #36]	; 0x24
 8026eec:	2800      	cmp	r0, #0
 8026eee:	f040 817b 	bne.w	80271e8 <HAL_RCC_OscConfig+0x3c0>
 8026ef2:	2000      	movs	r0, #0
 8026ef4:	e029      	b.n	8026f4a <HAL_RCC_OscConfig+0x122>
 8026ef6:	4b72      	ldr	r3, [pc, #456]	; (80270c0 <HAL_RCC_OscConfig+0x298>)
 8026ef8:	691a      	ldr	r2, [r3, #16]
 8026efa:	6a99      	ldr	r1, [r3, #40]	; 0x28
 8026efc:	f002 0238 	and.w	r2, r2, #56	; 0x38
 8026f00:	2a10      	cmp	r2, #16
 8026f02:	d005      	beq.n	8026f10 <HAL_RCC_OscConfig+0xe8>
 8026f04:	2a18      	cmp	r2, #24
 8026f06:	d10a      	bne.n	8026f1e <HAL_RCC_OscConfig+0xf6>
 8026f08:	f001 0203 	and.w	r2, r1, #3
 8026f0c:	2a02      	cmp	r2, #2
 8026f0e:	d106      	bne.n	8026f1e <HAL_RCC_OscConfig+0xf6>
 8026f10:	681b      	ldr	r3, [r3, #0]
 8026f12:	039d      	lsls	r5, r3, #14
 8026f14:	d590      	bpl.n	8026e38 <HAL_RCC_OscConfig+0x10>
 8026f16:	6863      	ldr	r3, [r4, #4]
 8026f18:	2b00      	cmp	r3, #0
 8026f1a:	d18d      	bne.n	8026e38 <HAL_RCC_OscConfig+0x10>
 8026f1c:	e787      	b.n	8026e2e <HAL_RCC_OscConfig+0x6>
 8026f1e:	6862      	ldr	r2, [r4, #4]
 8026f20:	f5b2 3f80 	cmp.w	r2, #65536	; 0x10000
 8026f24:	d112      	bne.n	8026f4c <HAL_RCC_OscConfig+0x124>
 8026f26:	681a      	ldr	r2, [r3, #0]
 8026f28:	f442 3280 	orr.w	r2, r2, #65536	; 0x10000
 8026f2c:	601a      	str	r2, [r3, #0]
 8026f2e:	f7ff fc2b 	bl	8026788 <HAL_GetTick>
 8026f32:	4e63      	ldr	r6, [pc, #396]	; (80270c0 <HAL_RCC_OscConfig+0x298>)
 8026f34:	4605      	mov	r5, r0
 8026f36:	6833      	ldr	r3, [r6, #0]
 8026f38:	0398      	lsls	r0, r3, #14
 8026f3a:	f53f af7d 	bmi.w	8026e38 <HAL_RCC_OscConfig+0x10>
 8026f3e:	f7ff fc23 	bl	8026788 <HAL_GetTick>
 8026f42:	1b40      	subs	r0, r0, r5
 8026f44:	2864      	cmp	r0, #100	; 0x64
 8026f46:	d9f6      	bls.n	8026f36 <HAL_RCC_OscConfig+0x10e>
 8026f48:	2003      	movs	r0, #3
 8026f4a:	bdf8      	pop	{r3, r4, r5, r6, r7, pc}
 8026f4c:	4d5c      	ldr	r5, [pc, #368]	; (80270c0 <HAL_RCC_OscConfig+0x298>)
 8026f4e:	682b      	ldr	r3, [r5, #0]
 8026f50:	b99a      	cbnz	r2, 8026f7a <HAL_RCC_OscConfig+0x152>
 8026f52:	f423 3380 	bic.w	r3, r3, #65536	; 0x10000
 8026f56:	602b      	str	r3, [r5, #0]
 8026f58:	682b      	ldr	r3, [r5, #0]
 8026f5a:	f423 2380 	bic.w	r3, r3, #262144	; 0x40000
 8026f5e:	602b      	str	r3, [r5, #0]
 8026f60:	f7ff fc12 	bl	8026788 <HAL_GetTick>
 8026f64:	4606      	mov	r6, r0
 8026f66:	682b      	ldr	r3, [r5, #0]
 8026f68:	0399      	lsls	r1, r3, #14
 8026f6a:	f57f af65 	bpl.w	8026e38 <HAL_RCC_OscConfig+0x10>
 8026f6e:	f7ff fc0b 	bl	8026788 <HAL_GetTick>
 8026f72:	1b80      	subs	r0, r0, r6
 8026f74:	2864      	cmp	r0, #100	; 0x64
 8026f76:	d9f6      	bls.n	8026f66 <HAL_RCC_OscConfig+0x13e>
 8026f78:	e7e6      	b.n	8026f48 <HAL_RCC_OscConfig+0x120>
 8026f7a:	f5b2 2fa0 	cmp.w	r2, #327680	; 0x50000
 8026f7e:	d107      	bne.n	8026f90 <HAL_RCC_OscConfig+0x168>
 8026f80:	f443 2380 	orr.w	r3, r3, #262144	; 0x40000
 8026f84:	602b      	str	r3, [r5, #0]
 8026f86:	682b      	ldr	r3, [r5, #0]
 8026f88:	f443 3380 	orr.w	r3, r3, #65536	; 0x10000
 8026f8c:	602b      	str	r3, [r5, #0]
 8026f8e:	e7ce      	b.n	8026f2e <HAL_RCC_OscConfig+0x106>
 8026f90:	f423 3380 	bic.w	r3, r3, #65536	; 0x10000
 8026f94:	602b      	str	r3, [r5, #0]
 8026f96:	682b      	ldr	r3, [r5, #0]
 8026f98:	f423 2380 	bic.w	r3, r3, #262144	; 0x40000
 8026f9c:	e7f6      	b.n	8026f8c <HAL_RCC_OscConfig+0x164>
 8026f9e:	4b48      	ldr	r3, [pc, #288]	; (80270c0 <HAL_RCC_OscConfig+0x298>)
 8026fa0:	68e1      	ldr	r1, [r4, #12]
 8026fa2:	691a      	ldr	r2, [r3, #16]
 8026fa4:	6a98      	ldr	r0, [r3, #40]	; 0x28
 8026fa6:	f012 0238 	ands.w	r2, r2, #56	; 0x38
 8026faa:	d003      	beq.n	8026fb4 <HAL_RCC_OscConfig+0x18c>
 8026fac:	2a18      	cmp	r2, #24
 8026fae:	d12b      	bne.n	8027008 <HAL_RCC_OscConfig+0x1e0>
 8026fb0:	0782      	lsls	r2, r0, #30
 8026fb2:	d129      	bne.n	8027008 <HAL_RCC_OscConfig+0x1e0>
 8026fb4:	681b      	ldr	r3, [r3, #0]
 8026fb6:	075b      	lsls	r3, r3, #29
 8026fb8:	d502      	bpl.n	8026fc0 <HAL_RCC_OscConfig+0x198>
 8026fba:	2900      	cmp	r1, #0
 8026fbc:	f43f af37 	beq.w	8026e2e <HAL_RCC_OscConfig+0x6>
 8026fc0:	4d3f      	ldr	r5, [pc, #252]	; (80270c0 <HAL_RCC_OscConfig+0x298>)
 8026fc2:	682a      	ldr	r2, [r5, #0]
 8026fc4:	f022 0219 	bic.w	r2, r2, #25
 8026fc8:	430a      	orrs	r2, r1
 8026fca:	602a      	str	r2, [r5, #0]
 8026fcc:	f7ff fbdc 	bl	8026788 <HAL_GetTick>
 8026fd0:	4606      	mov	r6, r0
 8026fd2:	682b      	ldr	r3, [r5, #0]
 8026fd4:	075f      	lsls	r7, r3, #29
 8026fd6:	d511      	bpl.n	8026ffc <HAL_RCC_OscConfig+0x1d4>
 8026fd8:	f7ff fbee 	bl	80267b8 <HAL_GetREVID>
 8026fdc:	f241 0303 	movw	r3, #4099	; 0x1003
 8026fe0:	6922      	ldr	r2, [r4, #16]
 8026fe2:	4298      	cmp	r0, r3
 8026fe4:	686b      	ldr	r3, [r5, #4]
 8026fe6:	d822      	bhi.n	802702e <HAL_RCC_OscConfig+0x206>
 8026fe8:	f423 337c 	bic.w	r3, r3, #258048	; 0x3f000
 8026fec:	2a40      	cmp	r2, #64	; 0x40
 8026fee:	bf0c      	ite	eq
 8026ff0:	f443 3300 	orreq.w	r3, r3, #131072	; 0x20000
 8026ff4:	ea43 3302 	orrne.w	r3, r3, r2, lsl #12
 8026ff8:	606b      	str	r3, [r5, #4]
 8026ffa:	e721      	b.n	8026e40 <HAL_RCC_OscConfig+0x18>
 8026ffc:	f7ff fbc4 	bl	8026788 <HAL_GetTick>
 8027000:	1b80      	subs	r0, r0, r6
 8027002:	2802      	cmp	r0, #2
 8027004:	d9e5      	bls.n	8026fd2 <HAL_RCC_OscConfig+0x1aa>
 8027006:	e79f      	b.n	8026f48 <HAL_RCC_OscConfig+0x120>
 8027008:	681a      	ldr	r2, [r3, #0]
 802700a:	b1a9      	cbz	r1, 8027038 <HAL_RCC_OscConfig+0x210>
 802700c:	f022 0219 	bic.w	r2, r2, #25
 8027010:	4d2b      	ldr	r5, [pc, #172]	; (80270c0 <HAL_RCC_OscConfig+0x298>)
 8027012:	430a      	orrs	r2, r1
 8027014:	601a      	str	r2, [r3, #0]
 8027016:	f7ff fbb7 	bl	8026788 <HAL_GetTick>
 802701a:	4606      	mov	r6, r0
 802701c:	682b      	ldr	r3, [r5, #0]
 802701e:	0758      	lsls	r0, r3, #29
 8027020:	d4da      	bmi.n	8026fd8 <HAL_RCC_OscConfig+0x1b0>
 8027022:	f7ff fbb1 	bl	8026788 <HAL_GetTick>
 8027026:	1b80      	subs	r0, r0, r6
 8027028:	2802      	cmp	r0, #2
 802702a:	d9f7      	bls.n	802701c <HAL_RCC_OscConfig+0x1f4>
 802702c:	e78c      	b.n	8026f48 <HAL_RCC_OscConfig+0x120>
 802702e:	f023 43fe 	bic.w	r3, r3, #2130706432	; 0x7f000000
 8027032:	ea43 6302 	orr.w	r3, r3, r2, lsl #24
 8027036:	e7df      	b.n	8026ff8 <HAL_RCC_OscConfig+0x1d0>
 8027038:	f022 0201 	bic.w	r2, r2, #1
 802703c:	4e20      	ldr	r6, [pc, #128]	; (80270c0 <HAL_RCC_OscConfig+0x298>)
 802703e:	601a      	str	r2, [r3, #0]
 8027040:	f7ff fba2 	bl	8026788 <HAL_GetTick>
 8027044:	4605      	mov	r5, r0
 8027046:	6833      	ldr	r3, [r6, #0]
 8027048:	0759      	lsls	r1, r3, #29
 802704a:	f57f aef9 	bpl.w	8026e40 <HAL_RCC_OscConfig+0x18>
 802704e:	f7ff fb9b 	bl	8026788 <HAL_GetTick>
 8027052:	1b40      	subs	r0, r0, r5
 8027054:	2802      	cmp	r0, #2
 8027056:	d9f6      	bls.n	8027046 <HAL_RCC_OscConfig+0x21e>
 8027058:	e776      	b.n	8026f48 <HAL_RCC_OscConfig+0x120>
 802705a:	68da      	ldr	r2, [r3, #12]
 802705c:	f022 527c 	bic.w	r2, r2, #1056964608	; 0x3f000000
 8027060:	ea42 6201 	orr.w	r2, r2, r1, lsl #24
 8027064:	60da      	str	r2, [r3, #12]
 8027066:	e716      	b.n	8026e96 <HAL_RCC_OscConfig+0x6e>
 8027068:	69e2      	ldr	r2, [r4, #28]
 802706a:	b36a      	cbz	r2, 80270c8 <HAL_RCC_OscConfig+0x2a0>
 802706c:	681a      	ldr	r2, [r3, #0]
 802706e:	4d14      	ldr	r5, [pc, #80]	; (80270c0 <HAL_RCC_OscConfig+0x298>)
 8027070:	f042 0280 	orr.w	r2, r2, #128	; 0x80
 8027074:	601a      	str	r2, [r3, #0]
 8027076:	f7ff fb87 	bl	8026788 <HAL_GetTick>
 802707a:	4606      	mov	r6, r0
 802707c:	682b      	ldr	r3, [r5, #0]
 802707e:	05df      	lsls	r7, r3, #23
 8027080:	d511      	bpl.n	80270a6 <HAL_RCC_OscConfig+0x27e>
 8027082:	f7ff fb99 	bl	80267b8 <HAL_GetREVID>
 8027086:	f241 0303 	movw	r3, #4099	; 0x1003
 802708a:	6a22      	ldr	r2, [r4, #32]
 802708c:	4298      	cmp	r0, r3
 802708e:	d810      	bhi.n	80270b2 <HAL_RCC_OscConfig+0x28a>
 8027090:	686b      	ldr	r3, [r5, #4]
 8027092:	2a20      	cmp	r2, #32
 8027094:	f023 43f8 	bic.w	r3, r3, #2080374784	; 0x7c000000
 8027098:	bf0c      	ite	eq
 802709a:	f043 4380 	orreq.w	r3, r3, #1073741824	; 0x40000000
 802709e:	ea43 6382 	orrne.w	r3, r3, r2, lsl #26
 80270a2:	606b      	str	r3, [r5, #4]
 80270a4:	e6f7      	b.n	8026e96 <HAL_RCC_OscConfig+0x6e>
 80270a6:	f7ff fb6f 	bl	8026788 <HAL_GetTick>
 80270aa:	1b80      	subs	r0, r0, r6
 80270ac:	2802      	cmp	r0, #2
 80270ae:	d9e5      	bls.n	802707c <HAL_RCC_OscConfig+0x254>
 80270b0:	e74a      	b.n	8026f48 <HAL_RCC_OscConfig+0x120>
 80270b2:	68eb      	ldr	r3, [r5, #12]
 80270b4:	f023 537c 	bic.w	r3, r3, #1056964608	; 0x3f000000
 80270b8:	ea43 6302 	orr.w	r3, r3, r2, lsl #24
 80270bc:	60eb      	str	r3, [r5, #12]
 80270be:	e6ea      	b.n	8026e96 <HAL_RCC_OscConfig+0x6e>
 80270c0:	58024400 	.word	0x58024400
 80270c4:	58024800 	.word	0x58024800
 80270c8:	681a      	ldr	r2, [r3, #0]
 80270ca:	4e88      	ldr	r6, [pc, #544]	; (80272ec <HAL_RCC_OscConfig+0x4c4>)
 80270cc:	f022 0280 	bic.w	r2, r2, #128	; 0x80
 80270d0:	601a      	str	r2, [r3, #0]
 80270d2:	f7ff fb59 	bl	8026788 <HAL_GetTick>
 80270d6:	4605      	mov	r5, r0
 80270d8:	6833      	ldr	r3, [r6, #0]
 80270da:	05d8      	lsls	r0, r3, #23
 80270dc:	f57f aedb 	bpl.w	8026e96 <HAL_RCC_OscConfig+0x6e>
 80270e0:	f7ff fb52 	bl	8026788 <HAL_GetTick>
 80270e4:	1b40      	subs	r0, r0, r5
 80270e6:	2802      	cmp	r0, #2
 80270e8:	d9f6      	bls.n	80270d8 <HAL_RCC_OscConfig+0x2b0>
 80270ea:	e72d      	b.n	8026f48 <HAL_RCC_OscConfig+0x120>
 80270ec:	6963      	ldr	r3, [r4, #20]
 80270ee:	4d7f      	ldr	r5, [pc, #508]	; (80272ec <HAL_RCC_OscConfig+0x4c4>)
 80270f0:	b183      	cbz	r3, 8027114 <HAL_RCC_OscConfig+0x2ec>
 80270f2:	6f6b      	ldr	r3, [r5, #116]	; 0x74
 80270f4:	f043 0301 	orr.w	r3, r3, #1
 80270f8:	676b      	str	r3, [r5, #116]	; 0x74
 80270fa:	f7ff fb45 	bl	8026788 <HAL_GetTick>
 80270fe:	4606      	mov	r6, r0
 8027100:	6f6b      	ldr	r3, [r5, #116]	; 0x74
 8027102:	079b      	lsls	r3, r3, #30
 8027104:	f53f aecb 	bmi.w	8026e9e <HAL_RCC_OscConfig+0x76>
 8027108:	f7ff fb3e 	bl	8026788 <HAL_GetTick>
 802710c:	1b80      	subs	r0, r0, r6
 802710e:	2802      	cmp	r0, #2
 8027110:	d9f6      	bls.n	8027100 <HAL_RCC_OscConfig+0x2d8>
 8027112:	e719      	b.n	8026f48 <HAL_RCC_OscConfig+0x120>
 8027114:	6f6b      	ldr	r3, [r5, #116]	; 0x74
 8027116:	f023 0301 	bic.w	r3, r3, #1
 802711a:	676b      	str	r3, [r5, #116]	; 0x74
 802711c:	f7ff fb34 	bl	8026788 <HAL_GetTick>
 8027120:	4606      	mov	r6, r0
 8027122:	6f6b      	ldr	r3, [r5, #116]	; 0x74
 8027124:	079f      	lsls	r7, r3, #30
 8027126:	f57f aeba 	bpl.w	8026e9e <HAL_RCC_OscConfig+0x76>
 802712a:	f7ff fb2d 	bl	8026788 <HAL_GetTick>
 802712e:	1b80      	subs	r0, r0, r6
 8027130:	2802      	cmp	r0, #2
 8027132:	d9f6      	bls.n	8027122 <HAL_RCC_OscConfig+0x2fa>
 8027134:	e708      	b.n	8026f48 <HAL_RCC_OscConfig+0x120>
 8027136:	69a3      	ldr	r3, [r4, #24]
 8027138:	4d6c      	ldr	r5, [pc, #432]	; (80272ec <HAL_RCC_OscConfig+0x4c4>)
 802713a:	b183      	cbz	r3, 802715e <HAL_RCC_OscConfig+0x336>
 802713c:	682b      	ldr	r3, [r5, #0]
 802713e:	f443 5380 	orr.w	r3, r3, #4096	; 0x1000
 8027142:	602b      	str	r3, [r5, #0]
 8027144:	f7ff fb20 	bl	8026788 <HAL_GetTick>
 8027148:	4606      	mov	r6, r0
 802714a:	682b      	ldr	r3, [r5, #0]
 802714c:	0498      	lsls	r0, r3, #18
 802714e:	f53f aeaa 	bmi.w	8026ea6 <HAL_RCC_OscConfig+0x7e>
 8027152:	f7ff fb19 	bl	8026788 <HAL_GetTick>
 8027156:	1b80      	subs	r0, r0, r6
 8027158:	2802      	cmp	r0, #2
 802715a:	d9f6      	bls.n	802714a <HAL_RCC_OscConfig+0x322>
 802715c:	e6f4      	b.n	8026f48 <HAL_RCC_OscConfig+0x120>
 802715e:	682b      	ldr	r3, [r5, #0]
 8027160:	f423 5380 	bic.w	r3, r3, #4096	; 0x1000
 8027164:	602b      	str	r3, [r5, #0]
 8027166:	f7ff fb0f 	bl	8026788 <HAL_GetTick>
 802716a:	4606      	mov	r6, r0
 802716c:	682b      	ldr	r3, [r5, #0]
 802716e:	0499      	lsls	r1, r3, #18
 8027170:	f57f ae99 	bpl.w	8026ea6 <HAL_RCC_OscConfig+0x7e>
 8027174:	f7ff fb08 	bl	8026788 <HAL_GetTick>
 8027178:	1b80      	subs	r0, r0, r6
 802717a:	2802      	cmp	r0, #2
 802717c:	d9f6      	bls.n	802716c <HAL_RCC_OscConfig+0x344>
 802717e:	e6e3      	b.n	8026f48 <HAL_RCC_OscConfig+0x120>
 8027180:	f7ff fb02 	bl	8026788 <HAL_GetTick>
 8027184:	1b80      	subs	r0, r0, r6
 8027186:	2864      	cmp	r0, #100	; 0x64
 8027188:	f67f ae98 	bls.w	8026ebc <HAL_RCC_OscConfig+0x94>
 802718c:	e6dc      	b.n	8026f48 <HAL_RCC_OscConfig+0x120>
 802718e:	b9b3      	cbnz	r3, 80271be <HAL_RCC_OscConfig+0x396>
 8027190:	6f2b      	ldr	r3, [r5, #112]	; 0x70
 8027192:	f241 3788 	movw	r7, #5000	; 0x1388
 8027196:	f023 0301 	bic.w	r3, r3, #1
 802719a:	672b      	str	r3, [r5, #112]	; 0x70
 802719c:	6f2b      	ldr	r3, [r5, #112]	; 0x70
 802719e:	f023 0304 	bic.w	r3, r3, #4
 80271a2:	672b      	str	r3, [r5, #112]	; 0x70
 80271a4:	f7ff faf0 	bl	8026788 <HAL_GetTick>
 80271a8:	4606      	mov	r6, r0
 80271aa:	6f2b      	ldr	r3, [r5, #112]	; 0x70
 80271ac:	0798      	lsls	r0, r3, #30
 80271ae:	f57f ae9c 	bpl.w	8026eea <HAL_RCC_OscConfig+0xc2>
 80271b2:	f7ff fae9 	bl	8026788 <HAL_GetTick>
 80271b6:	1b80      	subs	r0, r0, r6
 80271b8:	42b8      	cmp	r0, r7
 80271ba:	d9f6      	bls.n	80271aa <HAL_RCC_OscConfig+0x382>
 80271bc:	e6c4      	b.n	8026f48 <HAL_RCC_OscConfig+0x120>
 80271be:	2b05      	cmp	r3, #5
 80271c0:	6f2b      	ldr	r3, [r5, #112]	; 0x70
 80271c2:	d103      	bne.n	80271cc <HAL_RCC_OscConfig+0x3a4>
 80271c4:	f043 0304 	orr.w	r3, r3, #4
 80271c8:	672b      	str	r3, [r5, #112]	; 0x70
 80271ca:	e680      	b.n	8026ece <HAL_RCC_OscConfig+0xa6>
 80271cc:	f023 0301 	bic.w	r3, r3, #1
 80271d0:	672b      	str	r3, [r5, #112]	; 0x70
 80271d2:	6f2b      	ldr	r3, [r5, #112]	; 0x70
 80271d4:	f023 0304 	bic.w	r3, r3, #4
 80271d8:	e67c      	b.n	8026ed4 <HAL_RCC_OscConfig+0xac>
 80271da:	f7ff fad5 	bl	8026788 <HAL_GetTick>
 80271de:	1b40      	subs	r0, r0, r5
 80271e0:	42b8      	cmp	r0, r7
 80271e2:	f67f ae7e 	bls.w	8026ee2 <HAL_RCC_OscConfig+0xba>
 80271e6:	e6af      	b.n	8026f48 <HAL_RCC_OscConfig+0x120>
 80271e8:	4d40      	ldr	r5, [pc, #256]	; (80272ec <HAL_RCC_OscConfig+0x4c4>)
 80271ea:	692b      	ldr	r3, [r5, #16]
 80271ec:	f003 0338 	and.w	r3, r3, #56	; 0x38
 80271f0:	2b18      	cmp	r3, #24
 80271f2:	d07d      	beq.n	80272f0 <HAL_RCC_OscConfig+0x4c8>
 80271f4:	682b      	ldr	r3, [r5, #0]
 80271f6:	2802      	cmp	r0, #2
 80271f8:	f023 7380 	bic.w	r3, r3, #16777216	; 0x1000000
 80271fc:	602b      	str	r3, [r5, #0]
 80271fe:	d167      	bne.n	80272d0 <HAL_RCC_OscConfig+0x4a8>
 8027200:	f7ff fac2 	bl	8026788 <HAL_GetTick>
 8027204:	4606      	mov	r6, r0
 8027206:	682b      	ldr	r3, [r5, #0]
 8027208:	0199      	lsls	r1, r3, #6
 802720a:	d45b      	bmi.n	80272c4 <HAL_RCC_OscConfig+0x49c>
 802720c:	6aab      	ldr	r3, [r5, #40]	; 0x28
 802720e:	6aa2      	ldr	r2, [r4, #40]	; 0x28
 8027210:	f423 737c 	bic.w	r3, r3, #1008	; 0x3f0
 8027214:	f023 0303 	bic.w	r3, r3, #3
 8027218:	4313      	orrs	r3, r2
 802721a:	6ae2      	ldr	r2, [r4, #44]	; 0x2c
 802721c:	ea43 1302 	orr.w	r3, r3, r2, lsl #4
 8027220:	62ab      	str	r3, [r5, #40]	; 0x28
 8027222:	6b63      	ldr	r3, [r4, #52]	; 0x34
 8027224:	6ba2      	ldr	r2, [r4, #56]	; 0x38
 8027226:	3b01      	subs	r3, #1
 8027228:	3a01      	subs	r2, #1
 802722a:	025b      	lsls	r3, r3, #9
 802722c:	0412      	lsls	r2, r2, #16
 802722e:	b29b      	uxth	r3, r3
 8027230:	f402 02fe 	and.w	r2, r2, #8323072	; 0x7f0000
 8027234:	4313      	orrs	r3, r2
 8027236:	6b22      	ldr	r2, [r4, #48]	; 0x30
 8027238:	3a01      	subs	r2, #1
 802723a:	f3c2 0208 	ubfx	r2, r2, #0, #9
 802723e:	4313      	orrs	r3, r2
 8027240:	6be2      	ldr	r2, [r4, #60]	; 0x3c
 8027242:	3a01      	subs	r2, #1
 8027244:	0612      	lsls	r2, r2, #24
 8027246:	f002 42fe 	and.w	r2, r2, #2130706432	; 0x7f000000
 802724a:	4313      	orrs	r3, r2
 802724c:	632b      	str	r3, [r5, #48]	; 0x30
 802724e:	6aeb      	ldr	r3, [r5, #44]	; 0x2c
 8027250:	f023 0301 	bic.w	r3, r3, #1
 8027254:	62eb      	str	r3, [r5, #44]	; 0x2c
 8027256:	6b6b      	ldr	r3, [r5, #52]	; 0x34
 8027258:	6ca2      	ldr	r2, [r4, #72]	; 0x48
 802725a:	f423 437f 	bic.w	r3, r3, #65280	; 0xff00
 802725e:	f023 03f8 	bic.w	r3, r3, #248	; 0xf8
 8027262:	ea43 03c2 	orr.w	r3, r3, r2, lsl #3
 8027266:	636b      	str	r3, [r5, #52]	; 0x34
 8027268:	6aeb      	ldr	r3, [r5, #44]	; 0x2c
 802726a:	6c22      	ldr	r2, [r4, #64]	; 0x40
 802726c:	f023 030c 	bic.w	r3, r3, #12
 8027270:	4313      	orrs	r3, r2
 8027272:	62eb      	str	r3, [r5, #44]	; 0x2c
 8027274:	6aeb      	ldr	r3, [r5, #44]	; 0x2c
 8027276:	6c62      	ldr	r2, [r4, #68]	; 0x44
 8027278:	f023 0302 	bic.w	r3, r3, #2
 802727c:	4313      	orrs	r3, r2
 802727e:	62eb      	str	r3, [r5, #44]	; 0x2c
 8027280:	6aeb      	ldr	r3, [r5, #44]	; 0x2c
 8027282:	f443 3380 	orr.w	r3, r3, #65536	; 0x10000
 8027286:	62eb      	str	r3, [r5, #44]	; 0x2c
 8027288:	6aeb      	ldr	r3, [r5, #44]	; 0x2c
 802728a:	f443 3300 	orr.w	r3, r3, #131072	; 0x20000
 802728e:	62eb      	str	r3, [r5, #44]	; 0x2c
 8027290:	6aeb      	ldr	r3, [r5, #44]	; 0x2c
 8027292:	f443 2380 	orr.w	r3, r3, #262144	; 0x40000
 8027296:	62eb      	str	r3, [r5, #44]	; 0x2c
 8027298:	6aeb      	ldr	r3, [r5, #44]	; 0x2c
 802729a:	f043 0301 	orr.w	r3, r3, #1
 802729e:	62eb      	str	r3, [r5, #44]	; 0x2c
 80272a0:	682b      	ldr	r3, [r5, #0]
 80272a2:	f043 7380 	orr.w	r3, r3, #16777216	; 0x1000000
 80272a6:	602b      	str	r3, [r5, #0]
 80272a8:	f7ff fa6e 	bl	8026788 <HAL_GetTick>
 80272ac:	4d0f      	ldr	r5, [pc, #60]	; (80272ec <HAL_RCC_OscConfig+0x4c4>)
 80272ae:	4604      	mov	r4, r0
 80272b0:	682b      	ldr	r3, [r5, #0]
 80272b2:	019a      	lsls	r2, r3, #6
 80272b4:	f53f ae1d 	bmi.w	8026ef2 <HAL_RCC_OscConfig+0xca>
 80272b8:	f7ff fa66 	bl	8026788 <HAL_GetTick>
 80272bc:	1b00      	subs	r0, r0, r4
 80272be:	2802      	cmp	r0, #2
 80272c0:	d9f6      	bls.n	80272b0 <HAL_RCC_OscConfig+0x488>
 80272c2:	e641      	b.n	8026f48 <HAL_RCC_OscConfig+0x120>
 80272c4:	f7ff fa60 	bl	8026788 <HAL_GetTick>
 80272c8:	1b80      	subs	r0, r0, r6
 80272ca:	2802      	cmp	r0, #2
 80272cc:	d99b      	bls.n	8027206 <HAL_RCC_OscConfig+0x3de>
 80272ce:	e63b      	b.n	8026f48 <HAL_RCC_OscConfig+0x120>
 80272d0:	f7ff fa5a 	bl	8026788 <HAL_GetTick>
 80272d4:	4604      	mov	r4, r0
 80272d6:	682b      	ldr	r3, [r5, #0]
 80272d8:	019b      	lsls	r3, r3, #6
 80272da:	f57f ae0a 	bpl.w	8026ef2 <HAL_RCC_OscConfig+0xca>
 80272de:	f7ff fa53 	bl	8026788 <HAL_GetTick>
 80272e2:	1b00      	subs	r0, r0, r4
 80272e4:	2802      	cmp	r0, #2
 80272e6:	d9f6      	bls.n	80272d6 <HAL_RCC_OscConfig+0x4ae>
 80272e8:	e62e      	b.n	8026f48 <HAL_RCC_OscConfig+0x120>
 80272ea:	bf00      	nop
 80272ec:	58024400 	.word	0x58024400
 80272f0:	2801      	cmp	r0, #1
 80272f2:	6aaa      	ldr	r2, [r5, #40]	; 0x28
 80272f4:	6b2b      	ldr	r3, [r5, #48]	; 0x30
 80272f6:	f43f ae28 	beq.w	8026f4a <HAL_RCC_OscConfig+0x122>
 80272fa:	f002 0103 	and.w	r1, r2, #3
 80272fe:	6aa0      	ldr	r0, [r4, #40]	; 0x28
 8027300:	4281      	cmp	r1, r0
 8027302:	f47f ad94 	bne.w	8026e2e <HAL_RCC_OscConfig+0x6>
 8027306:	f3c2 1205 	ubfx	r2, r2, #4, #6
 802730a:	6ae1      	ldr	r1, [r4, #44]	; 0x2c
 802730c:	428a      	cmp	r2, r1
 802730e:	f47f ad8e 	bne.w	8026e2e <HAL_RCC_OscConfig+0x6>
 8027312:	6b22      	ldr	r2, [r4, #48]	; 0x30
 8027314:	f3c3 0108 	ubfx	r1, r3, #0, #9
 8027318:	3a01      	subs	r2, #1
 802731a:	4291      	cmp	r1, r2
 802731c:	f47f ad87 	bne.w	8026e2e <HAL_RCC_OscConfig+0x6>
 8027320:	6b62      	ldr	r2, [r4, #52]	; 0x34
 8027322:	f3c3 2146 	ubfx	r1, r3, #9, #7
 8027326:	3a01      	subs	r2, #1
 8027328:	4291      	cmp	r1, r2
 802732a:	f47f ad80 	bne.w	8026e2e <HAL_RCC_OscConfig+0x6>
 802732e:	6ba2      	ldr	r2, [r4, #56]	; 0x38
 8027330:	f3c3 4106 	ubfx	r1, r3, #16, #7
 8027334:	3a01      	subs	r2, #1
 8027336:	4291      	cmp	r1, r2
 8027338:	f47f ad79 	bne.w	8026e2e <HAL_RCC_OscConfig+0x6>
 802733c:	6be2      	ldr	r2, [r4, #60]	; 0x3c
 802733e:	f3c3 6306 	ubfx	r3, r3, #24, #7
 8027342:	3a01      	subs	r2, #1
 8027344:	4293      	cmp	r3, r2
 8027346:	f47f ad72 	bne.w	8026e2e <HAL_RCC_OscConfig+0x6>
 802734a:	6b6b      	ldr	r3, [r5, #52]	; 0x34
 802734c:	6ca2      	ldr	r2, [r4, #72]	; 0x48
 802734e:	f3c3 03cc 	ubfx	r3, r3, #3, #13
 8027352:	429a      	cmp	r2, r3
 8027354:	f43f adcd 	beq.w	8026ef2 <HAL_RCC_OscConfig+0xca>
 8027358:	4d0c      	ldr	r5, [pc, #48]	; (802738c <HAL_RCC_OscConfig+0x564>)
 802735a:	6aeb      	ldr	r3, [r5, #44]	; 0x2c
 802735c:	f023 0301 	bic.w	r3, r3, #1
 8027360:	62eb      	str	r3, [r5, #44]	; 0x2c
 8027362:	f7ff fa11 	bl	8026788 <HAL_GetTick>
 8027366:	4606      	mov	r6, r0
 8027368:	f7ff fa0e 	bl	8026788 <HAL_GetTick>
 802736c:	42b0      	cmp	r0, r6
 802736e:	d0fb      	beq.n	8027368 <HAL_RCC_OscConfig+0x540>
 8027370:	6b6b      	ldr	r3, [r5, #52]	; 0x34
 8027372:	6ca2      	ldr	r2, [r4, #72]	; 0x48
 8027374:	f423 437f 	bic.w	r3, r3, #65280	; 0xff00
 8027378:	f023 03f8 	bic.w	r3, r3, #248	; 0xf8
 802737c:	ea43 03c2 	orr.w	r3, r3, r2, lsl #3
 8027380:	636b      	str	r3, [r5, #52]	; 0x34
 8027382:	6aeb      	ldr	r3, [r5, #44]	; 0x2c
 8027384:	f043 0301 	orr.w	r3, r3, #1
 8027388:	62eb      	str	r3, [r5, #44]	; 0x2c
 802738a:	e5b2      	b.n	8026ef2 <HAL_RCC_OscConfig+0xca>
 802738c:	58024400 	.word	0x58024400

08027390 <HAL_RCC_GetSysClockFreq>:
 8027390:	4b48      	ldr	r3, [pc, #288]	; (80274b4 <HAL_RCC_GetSysClockFreq+0x124>)
 8027392:	691a      	ldr	r2, [r3, #16]
 8027394:	f002 0238 	and.w	r2, r2, #56	; 0x38
 8027398:	2a10      	cmp	r2, #16
 802739a:	b530      	push	{r4, r5, lr}
 802739c:	f000 8086 	beq.w	80274ac <HAL_RCC_GetSysClockFreq+0x11c>
 80273a0:	2a18      	cmp	r2, #24
 80273a2:	d00c      	beq.n	80273be <HAL_RCC_GetSysClockFreq+0x2e>
 80273a4:	2a00      	cmp	r2, #0
 80273a6:	f040 8083 	bne.w	80274b0 <HAL_RCC_GetSysClockFreq+0x120>
 80273aa:	681a      	ldr	r2, [r3, #0]
 80273ac:	4842      	ldr	r0, [pc, #264]	; (80274b8 <HAL_RCC_GetSysClockFreq+0x128>)
 80273ae:	f012 0f20 	tst.w	r2, #32
 80273b2:	d003      	beq.n	80273bc <HAL_RCC_GetSysClockFreq+0x2c>
 80273b4:	681b      	ldr	r3, [r3, #0]
 80273b6:	f3c3 03c1 	ubfx	r3, r3, #3, #2
 80273ba:	40d8      	lsrs	r0, r3
 80273bc:	bd30      	pop	{r4, r5, pc}
 80273be:	6a99      	ldr	r1, [r3, #40]	; 0x28
 80273c0:	6a9d      	ldr	r5, [r3, #40]	; 0x28
 80273c2:	6adc      	ldr	r4, [r3, #44]	; 0x2c
 80273c4:	f415 7f7c 	tst.w	r5, #1008	; 0x3f0
 80273c8:	f3c5 1005 	ubfx	r0, r5, #4, #6
 80273cc:	6b5a      	ldr	r2, [r3, #52]	; 0x34
 80273ce:	d0f5      	beq.n	80273bc <HAL_RCC_GetSysClockFreq+0x2c>
 80273d0:	f3c2 02cc 	ubfx	r2, r2, #3, #13
 80273d4:	f004 0401 	and.w	r4, r4, #1
 80273d8:	ee07 0a90 	vmov	s15, r0
 80273dc:	f001 0103 	and.w	r1, r1, #3
 80273e0:	4362      	muls	r2, r4
 80273e2:	eeb7 6a00 	vmov.f32	s12, #112	; 0x3f800000  1.0
 80273e6:	eef8 6ae7 	vcvt.f32.s32	s13, s15
 80273ea:	2901      	cmp	r1, #1
 80273ec:	ee07 2a90 	vmov	s15, r2
 80273f0:	eefa 7ae9 	vcvt.f32.s32	s15, s15, #13
 80273f4:	d04c      	beq.n	8027490 <HAL_RCC_GetSysClockFreq+0x100>
 80273f6:	2902      	cmp	r1, #2
 80273f8:	d03c      	beq.n	8027474 <HAL_RCC_GetSysClockFreq+0xe4>
 80273fa:	2900      	cmp	r1, #0
 80273fc:	d148      	bne.n	8027490 <HAL_RCC_GetSysClockFreq+0x100>
 80273fe:	681a      	ldr	r2, [r3, #0]
 8027400:	0692      	lsls	r2, r2, #26
 8027402:	d527      	bpl.n	8027454 <HAL_RCC_GetSysClockFreq+0xc4>
 8027404:	6819      	ldr	r1, [r3, #0]
 8027406:	4a2c      	ldr	r2, [pc, #176]	; (80274b8 <HAL_RCC_GetSysClockFreq+0x128>)
 8027408:	f3c1 01c1 	ubfx	r1, r1, #3, #2
 802740c:	6b1b      	ldr	r3, [r3, #48]	; 0x30
 802740e:	40ca      	lsrs	r2, r1
 8027410:	f3c3 0308 	ubfx	r3, r3, #0, #9
 8027414:	ee07 2a10 	vmov	s14, r2
 8027418:	eef8 5ac7 	vcvt.f32.s32	s11, s14
 802741c:	ee85 7aa6 	vdiv.f32	s14, s11, s13
 8027420:	ee06 3a90 	vmov	s13, r3
 8027424:	eef8 6ae6 	vcvt.f32.s32	s13, s13
 8027428:	ee76 7aa7 	vadd.f32	s15, s13, s15
 802742c:	ee77 7a86 	vadd.f32	s15, s15, s12
 8027430:	4b20      	ldr	r3, [pc, #128]	; (80274b4 <HAL_RCC_GetSysClockFreq+0x124>)
 8027432:	ee67 7a87 	vmul.f32	s15, s15, s14
 8027436:	6b1b      	ldr	r3, [r3, #48]	; 0x30
 8027438:	f3c3 2346 	ubfx	r3, r3, #9, #7
 802743c:	3301      	adds	r3, #1
 802743e:	ee07 3a10 	vmov	s14, r3
 8027442:	eef8 6ac7 	vcvt.f32.s32	s13, s14
 8027446:	ee87 7aa6 	vdiv.f32	s14, s15, s13
 802744a:	eefc 7ac7 	vcvt.u32.f32	s15, s14
 802744e:	ee17 0a90 	vmov	r0, s15
 8027452:	e7b3      	b.n	80273bc <HAL_RCC_GetSysClockFreq+0x2c>
 8027454:	6b1b      	ldr	r3, [r3, #48]	; 0x30
 8027456:	f3c3 0308 	ubfx	r3, r3, #0, #9
 802745a:	ee07 3a10 	vmov	s14, r3
 802745e:	eeb8 7ac7 	vcvt.f32.s32	s14, s14
 8027462:	ee77 7a27 	vadd.f32	s15, s14, s15
 8027466:	ee77 7a86 	vadd.f32	s15, s15, s12
 802746a:	ed9f 6a14 	vldr	s12, [pc, #80]	; 80274bc <HAL_RCC_GetSysClockFreq+0x12c>
 802746e:	ee86 7a26 	vdiv.f32	s14, s12, s13
 8027472:	e7dd      	b.n	8027430 <HAL_RCC_GetSysClockFreq+0xa0>
 8027474:	6b1b      	ldr	r3, [r3, #48]	; 0x30
 8027476:	f3c3 0308 	ubfx	r3, r3, #0, #9
 802747a:	ee07 3a10 	vmov	s14, r3
 802747e:	eeb8 7ac7 	vcvt.f32.s32	s14, s14
 8027482:	ee77 7a27 	vadd.f32	s15, s14, s15
 8027486:	ee77 7a86 	vadd.f32	s15, s15, s12
 802748a:	ed9f 6a0d 	vldr	s12, [pc, #52]	; 80274c0 <HAL_RCC_GetSysClockFreq+0x130>
 802748e:	e7ee      	b.n	802746e <HAL_RCC_GetSysClockFreq+0xde>
 8027490:	6b1b      	ldr	r3, [r3, #48]	; 0x30
 8027492:	f3c3 0308 	ubfx	r3, r3, #0, #9
 8027496:	ee07 3a10 	vmov	s14, r3
 802749a:	eeb8 7ac7 	vcvt.f32.s32	s14, s14
 802749e:	ee77 7a27 	vadd.f32	s15, s14, s15
 80274a2:	ee77 7a86 	vadd.f32	s15, s15, s12
 80274a6:	ed9f 6a07 	vldr	s12, [pc, #28]	; 80274c4 <HAL_RCC_GetSysClockFreq+0x134>
 80274aa:	e7e0      	b.n	802746e <HAL_RCC_GetSysClockFreq+0xde>
 80274ac:	4806      	ldr	r0, [pc, #24]	; (80274c8 <HAL_RCC_GetSysClockFreq+0x138>)
 80274ae:	e785      	b.n	80273bc <HAL_RCC_GetSysClockFreq+0x2c>
 80274b0:	4806      	ldr	r0, [pc, #24]	; (80274cc <HAL_RCC_GetSysClockFreq+0x13c>)
 80274b2:	e783      	b.n	80273bc <HAL_RCC_GetSysClockFreq+0x2c>
 80274b4:	58024400 	.word	0x58024400
 80274b8:	03d09000 	.word	0x03d09000
 80274bc:	4c742400 	.word	0x4c742400
 80274c0:	4bbebc20 	.word	0x4bbebc20
 80274c4:	4a742400 	.word	0x4a742400
 80274c8:	017d7840 	.word	0x017d7840
 80274cc:	003d0900 	.word	0x003d0900

080274d0 <HAL_RCC_ClockConfig>:
 80274d0:	e92d 41f0 	stmdb	sp!, {r4, r5, r6, r7, r8, lr}
 80274d4:	460d      	mov	r5, r1
 80274d6:	4604      	mov	r4, r0
 80274d8:	b910      	cbnz	r0, 80274e0 <HAL_RCC_ClockConfig+0x10>
 80274da:	2001      	movs	r0, #1
 80274dc:	e8bd 81f0 	ldmia.w	sp!, {r4, r5, r6, r7, r8, pc}
 80274e0:	4a88      	ldr	r2, [pc, #544]	; (8027704 <HAL_RCC_ClockConfig+0x234>)
 80274e2:	6813      	ldr	r3, [r2, #0]
 80274e4:	f003 030f 	and.w	r3, r3, #15
 80274e8:	428b      	cmp	r3, r1
 80274ea:	f0c0 8093 	bcc.w	8027614 <HAL_RCC_ClockConfig+0x144>
 80274ee:	6823      	ldr	r3, [r4, #0]
 80274f0:	075f      	lsls	r7, r3, #29
 80274f2:	f100 809b 	bmi.w	802762c <HAL_RCC_ClockConfig+0x15c>
 80274f6:	071e      	lsls	r6, r3, #28
 80274f8:	d50b      	bpl.n	8027512 <HAL_RCC_ClockConfig+0x42>
 80274fa:	4983      	ldr	r1, [pc, #524]	; (8027708 <HAL_RCC_ClockConfig+0x238>)
 80274fc:	6966      	ldr	r6, [r4, #20]
 80274fe:	69c8      	ldr	r0, [r1, #28]
 8027500:	f000 0070 	and.w	r0, r0, #112	; 0x70
 8027504:	4286      	cmp	r6, r0
 8027506:	d904      	bls.n	8027512 <HAL_RCC_ClockConfig+0x42>
 8027508:	69ca      	ldr	r2, [r1, #28]
 802750a:	f022 0270 	bic.w	r2, r2, #112	; 0x70
 802750e:	4332      	orrs	r2, r6
 8027510:	61ca      	str	r2, [r1, #28]
 8027512:	06d8      	lsls	r0, r3, #27
 8027514:	d50b      	bpl.n	802752e <HAL_RCC_ClockConfig+0x5e>
 8027516:	497c      	ldr	r1, [pc, #496]	; (8027708 <HAL_RCC_ClockConfig+0x238>)
 8027518:	69a6      	ldr	r6, [r4, #24]
 802751a:	69c8      	ldr	r0, [r1, #28]
 802751c:	f400 60e0 	and.w	r0, r0, #1792	; 0x700
 8027520:	4286      	cmp	r6, r0
 8027522:	d904      	bls.n	802752e <HAL_RCC_ClockConfig+0x5e>
 8027524:	69ca      	ldr	r2, [r1, #28]
 8027526:	f422 62e0 	bic.w	r2, r2, #1792	; 0x700
 802752a:	4332      	orrs	r2, r6
 802752c:	61ca      	str	r2, [r1, #28]
 802752e:	0699      	lsls	r1, r3, #26
 8027530:	d50b      	bpl.n	802754a <HAL_RCC_ClockConfig+0x7a>
 8027532:	4975      	ldr	r1, [pc, #468]	; (8027708 <HAL_RCC_ClockConfig+0x238>)
 8027534:	69e6      	ldr	r6, [r4, #28]
 8027536:	6a08      	ldr	r0, [r1, #32]
 8027538:	f000 0070 	and.w	r0, r0, #112	; 0x70
 802753c:	4286      	cmp	r6, r0
 802753e:	d904      	bls.n	802754a <HAL_RCC_ClockConfig+0x7a>
 8027540:	6a0a      	ldr	r2, [r1, #32]
 8027542:	f022 0270 	bic.w	r2, r2, #112	; 0x70
 8027546:	4332      	orrs	r2, r6
 8027548:	620a      	str	r2, [r1, #32]
 802754a:	079a      	lsls	r2, r3, #30
 802754c:	d50b      	bpl.n	8027566 <HAL_RCC_ClockConfig+0x96>
 802754e:	496e      	ldr	r1, [pc, #440]	; (8027708 <HAL_RCC_ClockConfig+0x238>)
 8027550:	68e6      	ldr	r6, [r4, #12]
 8027552:	6988      	ldr	r0, [r1, #24]
 8027554:	f000 000f 	and.w	r0, r0, #15
 8027558:	4286      	cmp	r6, r0
 802755a:	d904      	bls.n	8027566 <HAL_RCC_ClockConfig+0x96>
 802755c:	698a      	ldr	r2, [r1, #24]
 802755e:	f022 020f 	bic.w	r2, r2, #15
 8027562:	4332      	orrs	r2, r6
 8027564:	618a      	str	r2, [r1, #24]
 8027566:	07df      	lsls	r7, r3, #31
 8027568:	d46e      	bmi.n	8027648 <HAL_RCC_ClockConfig+0x178>
 802756a:	6823      	ldr	r3, [r4, #0]
 802756c:	079e      	lsls	r6, r3, #30
 802756e:	f100 80a1 	bmi.w	80276b4 <HAL_RCC_ClockConfig+0x1e4>
 8027572:	4964      	ldr	r1, [pc, #400]	; (8027704 <HAL_RCC_ClockConfig+0x234>)
 8027574:	680a      	ldr	r2, [r1, #0]
 8027576:	f002 020f 	and.w	r2, r2, #15
 802757a:	42aa      	cmp	r2, r5
 802757c:	f200 80a8 	bhi.w	80276d0 <HAL_RCC_ClockConfig+0x200>
 8027580:	0758      	lsls	r0, r3, #29
 8027582:	f100 80b1 	bmi.w	80276e8 <HAL_RCC_ClockConfig+0x218>
 8027586:	0719      	lsls	r1, r3, #28
 8027588:	d50b      	bpl.n	80275a2 <HAL_RCC_ClockConfig+0xd2>
 802758a:	495f      	ldr	r1, [pc, #380]	; (8027708 <HAL_RCC_ClockConfig+0x238>)
 802758c:	6965      	ldr	r5, [r4, #20]
 802758e:	69c8      	ldr	r0, [r1, #28]
 8027590:	f000 0070 	and.w	r0, r0, #112	; 0x70
 8027594:	4285      	cmp	r5, r0
 8027596:	d204      	bcs.n	80275a2 <HAL_RCC_ClockConfig+0xd2>
 8027598:	69ca      	ldr	r2, [r1, #28]
 802759a:	f022 0270 	bic.w	r2, r2, #112	; 0x70
 802759e:	432a      	orrs	r2, r5
 80275a0:	61ca      	str	r2, [r1, #28]
 80275a2:	06da      	lsls	r2, r3, #27
 80275a4:	d50b      	bpl.n	80275be <HAL_RCC_ClockConfig+0xee>
 80275a6:	4958      	ldr	r1, [pc, #352]	; (8027708 <HAL_RCC_ClockConfig+0x238>)
 80275a8:	69a5      	ldr	r5, [r4, #24]
 80275aa:	69c8      	ldr	r0, [r1, #28]
 80275ac:	f400 60e0 	and.w	r0, r0, #1792	; 0x700
 80275b0:	4285      	cmp	r5, r0
 80275b2:	d204      	bcs.n	80275be <HAL_RCC_ClockConfig+0xee>
 80275b4:	69ca      	ldr	r2, [r1, #28]
 80275b6:	f422 62e0 	bic.w	r2, r2, #1792	; 0x700
 80275ba:	432a      	orrs	r2, r5
 80275bc:	61ca      	str	r2, [r1, #28]
 80275be:	069b      	lsls	r3, r3, #26
 80275c0:	d50b      	bpl.n	80275da <HAL_RCC_ClockConfig+0x10a>
 80275c2:	4a51      	ldr	r2, [pc, #324]	; (8027708 <HAL_RCC_ClockConfig+0x238>)
 80275c4:	69e0      	ldr	r0, [r4, #28]
 80275c6:	6a11      	ldr	r1, [r2, #32]
 80275c8:	f001 0170 	and.w	r1, r1, #112	; 0x70
 80275cc:	4288      	cmp	r0, r1
 80275ce:	d204      	bcs.n	80275da <HAL_RCC_ClockConfig+0x10a>
 80275d0:	6a13      	ldr	r3, [r2, #32]
 80275d2:	f023 0370 	bic.w	r3, r3, #112	; 0x70
 80275d6:	4303      	orrs	r3, r0
 80275d8:	6213      	str	r3, [r2, #32]
 80275da:	f7ff fed9 	bl	8027390 <HAL_RCC_GetSysClockFreq>
 80275de:	494a      	ldr	r1, [pc, #296]	; (8027708 <HAL_RCC_ClockConfig+0x238>)
 80275e0:	4a4a      	ldr	r2, [pc, #296]	; (802770c <HAL_RCC_ClockConfig+0x23c>)
 80275e2:	698b      	ldr	r3, [r1, #24]
 80275e4:	f3c3 2303 	ubfx	r3, r3, #8, #4
 80275e8:	5cd3      	ldrb	r3, [r2, r3]
 80275ea:	f003 031f 	and.w	r3, r3, #31
 80275ee:	40d8      	lsrs	r0, r3
 80275f0:	698b      	ldr	r3, [r1, #24]
 80275f2:	f003 030f 	and.w	r3, r3, #15
 80275f6:	5cd3      	ldrb	r3, [r2, r3]
 80275f8:	4a45      	ldr	r2, [pc, #276]	; (8027710 <HAL_RCC_ClockConfig+0x240>)
 80275fa:	f003 031f 	and.w	r3, r3, #31
 80275fe:	fa20 f303 	lsr.w	r3, r0, r3
 8027602:	6013      	str	r3, [r2, #0]
 8027604:	4b43      	ldr	r3, [pc, #268]	; (8027714 <HAL_RCC_ClockConfig+0x244>)
 8027606:	6018      	str	r0, [r3, #0]
 8027608:	4b43      	ldr	r3, [pc, #268]	; (8027718 <HAL_RCC_ClockConfig+0x248>)
 802760a:	e8bd 41f0 	ldmia.w	sp!, {r4, r5, r6, r7, r8, lr}
 802760e:	6818      	ldr	r0, [r3, #0]
 8027610:	f7ff b85a 	b.w	80266c8 <HAL_InitTick>
 8027614:	6813      	ldr	r3, [r2, #0]
 8027616:	f023 030f 	bic.w	r3, r3, #15
 802761a:	430b      	orrs	r3, r1
 802761c:	6013      	str	r3, [r2, #0]
 802761e:	6813      	ldr	r3, [r2, #0]
 8027620:	f003 030f 	and.w	r3, r3, #15
 8027624:	428b      	cmp	r3, r1
 8027626:	f47f af58 	bne.w	80274da <HAL_RCC_ClockConfig+0xa>
 802762a:	e760      	b.n	80274ee <HAL_RCC_ClockConfig+0x1e>
 802762c:	4936      	ldr	r1, [pc, #216]	; (8027708 <HAL_RCC_ClockConfig+0x238>)
 802762e:	6926      	ldr	r6, [r4, #16]
 8027630:	6988      	ldr	r0, [r1, #24]
 8027632:	f000 0070 	and.w	r0, r0, #112	; 0x70
 8027636:	4286      	cmp	r6, r0
 8027638:	f67f af5d 	bls.w	80274f6 <HAL_RCC_ClockConfig+0x26>
 802763c:	698a      	ldr	r2, [r1, #24]
 802763e:	f022 0270 	bic.w	r2, r2, #112	; 0x70
 8027642:	4332      	orrs	r2, r6
 8027644:	618a      	str	r2, [r1, #24]
 8027646:	e756      	b.n	80274f6 <HAL_RCC_ClockConfig+0x26>
 8027648:	4b2f      	ldr	r3, [pc, #188]	; (8027708 <HAL_RCC_ClockConfig+0x238>)
 802764a:	68a1      	ldr	r1, [r4, #8]
 802764c:	699a      	ldr	r2, [r3, #24]
 802764e:	f422 6270 	bic.w	r2, r2, #3840	; 0xf00
 8027652:	430a      	orrs	r2, r1
 8027654:	619a      	str	r2, [r3, #24]
 8027656:	6862      	ldr	r2, [r4, #4]
 8027658:	681b      	ldr	r3, [r3, #0]
 802765a:	2a02      	cmp	r2, #2
 802765c:	d11d      	bne.n	802769a <HAL_RCC_ClockConfig+0x1ca>
 802765e:	f413 3f00 	tst.w	r3, #131072	; 0x20000
 8027662:	f43f af3a 	beq.w	80274da <HAL_RCC_ClockConfig+0xa>
 8027666:	4e28      	ldr	r6, [pc, #160]	; (8027708 <HAL_RCC_ClockConfig+0x238>)
 8027668:	f241 3888 	movw	r8, #5000	; 0x1388
 802766c:	6933      	ldr	r3, [r6, #16]
 802766e:	f023 0307 	bic.w	r3, r3, #7
 8027672:	4313      	orrs	r3, r2
 8027674:	6133      	str	r3, [r6, #16]
 8027676:	f7ff f887 	bl	8026788 <HAL_GetTick>
 802767a:	4607      	mov	r7, r0
 802767c:	6933      	ldr	r3, [r6, #16]
 802767e:	6862      	ldr	r2, [r4, #4]
 8027680:	f003 0338 	and.w	r3, r3, #56	; 0x38
 8027684:	ebb3 0fc2 	cmp.w	r3, r2, lsl #3
 8027688:	f43f af6f 	beq.w	802756a <HAL_RCC_ClockConfig+0x9a>
 802768c:	f7ff f87c 	bl	8026788 <HAL_GetTick>
 8027690:	1bc0      	subs	r0, r0, r7
 8027692:	4540      	cmp	r0, r8
 8027694:	d9f2      	bls.n	802767c <HAL_RCC_ClockConfig+0x1ac>
 8027696:	2003      	movs	r0, #3
 8027698:	e720      	b.n	80274dc <HAL_RCC_ClockConfig+0xc>
 802769a:	2a03      	cmp	r2, #3
 802769c:	d102      	bne.n	80276a4 <HAL_RCC_ClockConfig+0x1d4>
 802769e:	f013 7f00 	tst.w	r3, #33554432	; 0x2000000
 80276a2:	e7de      	b.n	8027662 <HAL_RCC_ClockConfig+0x192>
 80276a4:	2a01      	cmp	r2, #1
 80276a6:	d102      	bne.n	80276ae <HAL_RCC_ClockConfig+0x1de>
 80276a8:	f413 7f80 	tst.w	r3, #256	; 0x100
 80276ac:	e7d9      	b.n	8027662 <HAL_RCC_ClockConfig+0x192>
 80276ae:	f013 0f04 	tst.w	r3, #4
 80276b2:	e7d6      	b.n	8027662 <HAL_RCC_ClockConfig+0x192>
 80276b4:	4914      	ldr	r1, [pc, #80]	; (8027708 <HAL_RCC_ClockConfig+0x238>)
 80276b6:	68e6      	ldr	r6, [r4, #12]
 80276b8:	6988      	ldr	r0, [r1, #24]
 80276ba:	f000 000f 	and.w	r0, r0, #15
 80276be:	4286      	cmp	r6, r0
 80276c0:	f4bf af57 	bcs.w	8027572 <HAL_RCC_ClockConfig+0xa2>
 80276c4:	698a      	ldr	r2, [r1, #24]
 80276c6:	f022 020f 	bic.w	r2, r2, #15
 80276ca:	4332      	orrs	r2, r6
 80276cc:	618a      	str	r2, [r1, #24]
 80276ce:	e750      	b.n	8027572 <HAL_RCC_ClockConfig+0xa2>
 80276d0:	680a      	ldr	r2, [r1, #0]
 80276d2:	f022 020f 	bic.w	r2, r2, #15
 80276d6:	432a      	orrs	r2, r5
 80276d8:	600a      	str	r2, [r1, #0]
 80276da:	680a      	ldr	r2, [r1, #0]
 80276dc:	f002 020f 	and.w	r2, r2, #15
 80276e0:	42aa      	cmp	r2, r5
 80276e2:	f47f aefa 	bne.w	80274da <HAL_RCC_ClockConfig+0xa>
 80276e6:	e74b      	b.n	8027580 <HAL_RCC_ClockConfig+0xb0>
 80276e8:	4907      	ldr	r1, [pc, #28]	; (8027708 <HAL_RCC_ClockConfig+0x238>)
 80276ea:	6925      	ldr	r5, [r4, #16]
 80276ec:	6988      	ldr	r0, [r1, #24]
 80276ee:	f000 0070 	and.w	r0, r0, #112	; 0x70
 80276f2:	4285      	cmp	r5, r0
 80276f4:	f4bf af47 	bcs.w	8027586 <HAL_RCC_ClockConfig+0xb6>
 80276f8:	698a      	ldr	r2, [r1, #24]
 80276fa:	f022 0270 	bic.w	r2, r2, #112	; 0x70
 80276fe:	432a      	orrs	r2, r5
 8027700:	618a      	str	r2, [r1, #24]
 8027702:	e740      	b.n	8027586 <HAL_RCC_ClockConfig+0xb6>
 8027704:	52002000 	.word	0x52002000
 8027708:	58024400 	.word	0x58024400
 802770c:	0802be70 	.word	0x0802be70
 8027710:	24000034 	.word	0x24000034
 8027714:	24000030 	.word	0x24000030
 8027718:	2400003c 	.word	0x2400003c

0802771c <HAL_RCC_GetHCLKFreq>:
 802771c:	b510      	push	{r4, lr}
 802771e:	4c0c      	ldr	r4, [pc, #48]	; (8027750 <HAL_RCC_GetHCLKFreq+0x34>)
 8027720:	f7ff fe36 	bl	8027390 <HAL_RCC_GetSysClockFreq>
 8027724:	490b      	ldr	r1, [pc, #44]	; (8027754 <HAL_RCC_GetHCLKFreq+0x38>)
 8027726:	69a3      	ldr	r3, [r4, #24]
 8027728:	f3c3 2303 	ubfx	r3, r3, #8, #4
 802772c:	5cca      	ldrb	r2, [r1, r3]
 802772e:	69a3      	ldr	r3, [r4, #24]
 8027730:	f002 021f 	and.w	r2, r2, #31
 8027734:	f003 030f 	and.w	r3, r3, #15
 8027738:	fa20 f202 	lsr.w	r2, r0, r2
 802773c:	5ccb      	ldrb	r3, [r1, r3]
 802773e:	f003 031f 	and.w	r3, r3, #31
 8027742:	fa22 f003 	lsr.w	r0, r2, r3
 8027746:	4b04      	ldr	r3, [pc, #16]	; (8027758 <HAL_RCC_GetHCLKFreq+0x3c>)
 8027748:	6018      	str	r0, [r3, #0]
 802774a:	4b04      	ldr	r3, [pc, #16]	; (802775c <HAL_RCC_GetHCLKFreq+0x40>)
 802774c:	601a      	str	r2, [r3, #0]
 802774e:	bd10      	pop	{r4, pc}
 8027750:	58024400 	.word	0x58024400
 8027754:	0802be70 	.word	0x0802be70
 8027758:	24000034 	.word	0x24000034
 802775c:	24000030 	.word	0x24000030

08027760 <HAL_RCC_GetPCLK1Freq>:
 8027760:	b508      	push	{r3, lr}
 8027762:	f7ff ffdb 	bl	802771c <HAL_RCC_GetHCLKFreq>
 8027766:	4b05      	ldr	r3, [pc, #20]	; (802777c <HAL_RCC_GetPCLK1Freq+0x1c>)
 8027768:	4a05      	ldr	r2, [pc, #20]	; (8027780 <HAL_RCC_GetPCLK1Freq+0x20>)
 802776a:	69db      	ldr	r3, [r3, #28]
 802776c:	f3c3 1302 	ubfx	r3, r3, #4, #3
 8027770:	5cd3      	ldrb	r3, [r2, r3]
 8027772:	f003 031f 	and.w	r3, r3, #31
 8027776:	40d8      	lsrs	r0, r3
 8027778:	bd08      	pop	{r3, pc}
 802777a:	bf00      	nop
 802777c:	58024400 	.word	0x58024400
 8027780:	0802be70 	.word	0x0802be70

08027784 <HAL_RCC_GetPCLK2Freq>:
 8027784:	b508      	push	{r3, lr}
 8027786:	f7ff ffc9 	bl	802771c <HAL_RCC_GetHCLKFreq>
 802778a:	4b05      	ldr	r3, [pc, #20]	; (80277a0 <HAL_RCC_GetPCLK2Freq+0x1c>)
 802778c:	4a05      	ldr	r2, [pc, #20]	; (80277a4 <HAL_RCC_GetPCLK2Freq+0x20>)
 802778e:	69db      	ldr	r3, [r3, #28]
 8027790:	f3c3 2302 	ubfx	r3, r3, #8, #3
 8027794:	5cd3      	ldrb	r3, [r2, r3]
 8027796:	f003 031f 	and.w	r3, r3, #31
 802779a:	40d8      	lsrs	r0, r3
 802779c:	bd08      	pop	{r3, pc}
 802779e:	bf00      	nop
 80277a0:	58024400 	.word	0x58024400
 80277a4:	0802be70 	.word	0x0802be70

080277a8 <RCCEx_PLL2_Config>:
 80277a8:	b5f8      	push	{r3, r4, r5, r6, r7, lr}
 80277aa:	4c3a      	ldr	r4, [pc, #232]	; (8027894 <RCCEx_PLL2_Config+0xec>)
 80277ac:	4606      	mov	r6, r0
 80277ae:	460d      	mov	r5, r1
 80277b0:	6aa3      	ldr	r3, [r4, #40]	; 0x28
 80277b2:	f003 0303 	and.w	r3, r3, #3
 80277b6:	2b03      	cmp	r3, #3
 80277b8:	d069      	beq.n	802788e <RCCEx_PLL2_Config+0xe6>
 80277ba:	6823      	ldr	r3, [r4, #0]
 80277bc:	f023 6380 	bic.w	r3, r3, #67108864	; 0x4000000
 80277c0:	6023      	str	r3, [r4, #0]
 80277c2:	f7fe ffe1 	bl	8026788 <HAL_GetTick>
 80277c6:	4607      	mov	r7, r0
 80277c8:	6823      	ldr	r3, [r4, #0]
 80277ca:	011a      	lsls	r2, r3, #4
 80277cc:	d44b      	bmi.n	8027866 <RCCEx_PLL2_Config+0xbe>
 80277ce:	6aa3      	ldr	r3, [r4, #40]	; 0x28
 80277d0:	6832      	ldr	r2, [r6, #0]
 80277d2:	f423 337c 	bic.w	r3, r3, #258048	; 0x3f000
 80277d6:	ea43 3302 	orr.w	r3, r3, r2, lsl #12
 80277da:	62a3      	str	r3, [r4, #40]	; 0x28
 80277dc:	68b3      	ldr	r3, [r6, #8]
 80277de:	68f2      	ldr	r2, [r6, #12]
 80277e0:	3b01      	subs	r3, #1
 80277e2:	3a01      	subs	r2, #1
 80277e4:	025b      	lsls	r3, r3, #9
 80277e6:	0412      	lsls	r2, r2, #16
 80277e8:	b29b      	uxth	r3, r3
 80277ea:	f402 02fe 	and.w	r2, r2, #8323072	; 0x7f0000
 80277ee:	4313      	orrs	r3, r2
 80277f0:	6872      	ldr	r2, [r6, #4]
 80277f2:	3a01      	subs	r2, #1
 80277f4:	f3c2 0208 	ubfx	r2, r2, #0, #9
 80277f8:	4313      	orrs	r3, r2
 80277fa:	6932      	ldr	r2, [r6, #16]
 80277fc:	3a01      	subs	r2, #1
 80277fe:	0612      	lsls	r2, r2, #24
 8027800:	f002 42fe 	and.w	r2, r2, #2130706432	; 0x7f000000
 8027804:	4313      	orrs	r3, r2
 8027806:	63a3      	str	r3, [r4, #56]	; 0x38
 8027808:	6ae3      	ldr	r3, [r4, #44]	; 0x2c
 802780a:	6972      	ldr	r2, [r6, #20]
 802780c:	f023 03c0 	bic.w	r3, r3, #192	; 0xc0
 8027810:	4313      	orrs	r3, r2
 8027812:	62e3      	str	r3, [r4, #44]	; 0x2c
 8027814:	6ae3      	ldr	r3, [r4, #44]	; 0x2c
 8027816:	69b2      	ldr	r2, [r6, #24]
 8027818:	f023 0320 	bic.w	r3, r3, #32
 802781c:	4313      	orrs	r3, r2
 802781e:	62e3      	str	r3, [r4, #44]	; 0x2c
 8027820:	6ae3      	ldr	r3, [r4, #44]	; 0x2c
 8027822:	f023 0310 	bic.w	r3, r3, #16
 8027826:	62e3      	str	r3, [r4, #44]	; 0x2c
 8027828:	6be3      	ldr	r3, [r4, #60]	; 0x3c
 802782a:	69f2      	ldr	r2, [r6, #28]
 802782c:	f423 437f 	bic.w	r3, r3, #65280	; 0xff00
 8027830:	f023 03f8 	bic.w	r3, r3, #248	; 0xf8
 8027834:	ea43 03c2 	orr.w	r3, r3, r2, lsl #3
 8027838:	63e3      	str	r3, [r4, #60]	; 0x3c
 802783a:	6ae3      	ldr	r3, [r4, #44]	; 0x2c
 802783c:	f043 0310 	orr.w	r3, r3, #16
 8027840:	62e3      	str	r3, [r4, #44]	; 0x2c
 8027842:	6ae3      	ldr	r3, [r4, #44]	; 0x2c
 8027844:	b9b5      	cbnz	r5, 8027874 <RCCEx_PLL2_Config+0xcc>
 8027846:	f443 2300 	orr.w	r3, r3, #524288	; 0x80000
 802784a:	62e3      	str	r3, [r4, #44]	; 0x2c
 802784c:	4c11      	ldr	r4, [pc, #68]	; (8027894 <RCCEx_PLL2_Config+0xec>)
 802784e:	6823      	ldr	r3, [r4, #0]
 8027850:	f043 6380 	orr.w	r3, r3, #67108864	; 0x4000000
 8027854:	6023      	str	r3, [r4, #0]
 8027856:	f7fe ff97 	bl	8026788 <HAL_GetTick>
 802785a:	4605      	mov	r5, r0
 802785c:	6823      	ldr	r3, [r4, #0]
 802785e:	011b      	lsls	r3, r3, #4
 8027860:	d50f      	bpl.n	8027882 <RCCEx_PLL2_Config+0xda>
 8027862:	2000      	movs	r0, #0
 8027864:	e005      	b.n	8027872 <RCCEx_PLL2_Config+0xca>
 8027866:	f7fe ff8f 	bl	8026788 <HAL_GetTick>
 802786a:	1bc0      	subs	r0, r0, r7
 802786c:	2802      	cmp	r0, #2
 802786e:	d9ab      	bls.n	80277c8 <RCCEx_PLL2_Config+0x20>
 8027870:	2003      	movs	r0, #3
 8027872:	bdf8      	pop	{r3, r4, r5, r6, r7, pc}
 8027874:	2d01      	cmp	r5, #1
 8027876:	bf0c      	ite	eq
 8027878:	f443 1380 	orreq.w	r3, r3, #1048576	; 0x100000
 802787c:	f443 1300 	orrne.w	r3, r3, #2097152	; 0x200000
 8027880:	e7e3      	b.n	802784a <RCCEx_PLL2_Config+0xa2>
 8027882:	f7fe ff81 	bl	8026788 <HAL_GetTick>
 8027886:	1b40      	subs	r0, r0, r5
 8027888:	2802      	cmp	r0, #2
 802788a:	d9e7      	bls.n	802785c <RCCEx_PLL2_Config+0xb4>
 802788c:	e7f0      	b.n	8027870 <RCCEx_PLL2_Config+0xc8>
 802788e:	2001      	movs	r0, #1
 8027890:	e7ef      	b.n	8027872 <RCCEx_PLL2_Config+0xca>
 8027892:	bf00      	nop
 8027894:	58024400 	.word	0x58024400

08027898 <RCCEx_PLL3_Config>:
 8027898:	b5f8      	push	{r3, r4, r5, r6, r7, lr}
 802789a:	4c3a      	ldr	r4, [pc, #232]	; (8027984 <RCCEx_PLL3_Config+0xec>)
 802789c:	4606      	mov	r6, r0
 802789e:	460d      	mov	r5, r1
 80278a0:	6aa3      	ldr	r3, [r4, #40]	; 0x28
 80278a2:	f003 0303 	and.w	r3, r3, #3
 80278a6:	2b03      	cmp	r3, #3
 80278a8:	d069      	beq.n	802797e <RCCEx_PLL3_Config+0xe6>
 80278aa:	6823      	ldr	r3, [r4, #0]
 80278ac:	f023 5380 	bic.w	r3, r3, #268435456	; 0x10000000
 80278b0:	6023      	str	r3, [r4, #0]
 80278b2:	f7fe ff69 	bl	8026788 <HAL_GetTick>
 80278b6:	4607      	mov	r7, r0
 80278b8:	6823      	ldr	r3, [r4, #0]
 80278ba:	009a      	lsls	r2, r3, #2
 80278bc:	d44b      	bmi.n	8027956 <RCCEx_PLL3_Config+0xbe>
 80278be:	6aa3      	ldr	r3, [r4, #40]	; 0x28
 80278c0:	6832      	ldr	r2, [r6, #0]
 80278c2:	f023 737c 	bic.w	r3, r3, #66060288	; 0x3f00000
 80278c6:	ea43 5302 	orr.w	r3, r3, r2, lsl #20
 80278ca:	62a3      	str	r3, [r4, #40]	; 0x28
 80278cc:	68b3      	ldr	r3, [r6, #8]
 80278ce:	68f2      	ldr	r2, [r6, #12]
 80278d0:	3b01      	subs	r3, #1
 80278d2:	3a01      	subs	r2, #1
 80278d4:	025b      	lsls	r3, r3, #9
 80278d6:	0412      	lsls	r2, r2, #16
 80278d8:	b29b      	uxth	r3, r3
 80278da:	f402 02fe 	and.w	r2, r2, #8323072	; 0x7f0000
 80278de:	4313      	orrs	r3, r2
 80278e0:	6872      	ldr	r2, [r6, #4]
 80278e2:	3a01      	subs	r2, #1
 80278e4:	f3c2 0208 	ubfx	r2, r2, #0, #9
 80278e8:	4313      	orrs	r3, r2
 80278ea:	6932      	ldr	r2, [r6, #16]
 80278ec:	3a01      	subs	r2, #1
 80278ee:	0612      	lsls	r2, r2, #24
 80278f0:	f002 42fe 	and.w	r2, r2, #2130706432	; 0x7f000000
 80278f4:	4313      	orrs	r3, r2
 80278f6:	6423      	str	r3, [r4, #64]	; 0x40
 80278f8:	6ae3      	ldr	r3, [r4, #44]	; 0x2c
 80278fa:	6972      	ldr	r2, [r6, #20]
 80278fc:	f423 6340 	bic.w	r3, r3, #3072	; 0xc00
 8027900:	4313      	orrs	r3, r2
 8027902:	62e3      	str	r3, [r4, #44]	; 0x2c
 8027904:	6ae3      	ldr	r3, [r4, #44]	; 0x2c
 8027906:	69b2      	ldr	r2, [r6, #24]
 8027908:	f423 7300 	bic.w	r3, r3, #512	; 0x200
 802790c:	4313      	orrs	r3, r2
 802790e:	62e3      	str	r3, [r4, #44]	; 0x2c
 8027910:	6ae3      	ldr	r3, [r4, #44]	; 0x2c
 8027912:	f423 7380 	bic.w	r3, r3, #256	; 0x100
 8027916:	62e3      	str	r3, [r4, #44]	; 0x2c
 8027918:	6c63      	ldr	r3, [r4, #68]	; 0x44
 802791a:	69f2      	ldr	r2, [r6, #28]
 802791c:	f423 437f 	bic.w	r3, r3, #65280	; 0xff00
 8027920:	f023 03f8 	bic.w	r3, r3, #248	; 0xf8
 8027924:	ea43 03c2 	orr.w	r3, r3, r2, lsl #3
 8027928:	6463      	str	r3, [r4, #68]	; 0x44
 802792a:	6ae3      	ldr	r3, [r4, #44]	; 0x2c
 802792c:	f443 7380 	orr.w	r3, r3, #256	; 0x100
 8027930:	62e3      	str	r3, [r4, #44]	; 0x2c
 8027932:	6ae3      	ldr	r3, [r4, #44]	; 0x2c
 8027934:	b9b5      	cbnz	r5, 8027964 <RCCEx_PLL3_Config+0xcc>
 8027936:	f443 0380 	orr.w	r3, r3, #4194304	; 0x400000
 802793a:	62e3      	str	r3, [r4, #44]	; 0x2c
 802793c:	4c11      	ldr	r4, [pc, #68]	; (8027984 <RCCEx_PLL3_Config+0xec>)
 802793e:	6823      	ldr	r3, [r4, #0]
 8027940:	f043 5380 	orr.w	r3, r3, #268435456	; 0x10000000
 8027944:	6023      	str	r3, [r4, #0]
 8027946:	f7fe ff1f 	bl	8026788 <HAL_GetTick>
 802794a:	4605      	mov	r5, r0
 802794c:	6823      	ldr	r3, [r4, #0]
 802794e:	009b      	lsls	r3, r3, #2
 8027950:	d50f      	bpl.n	8027972 <RCCEx_PLL3_Config+0xda>
 8027952:	2000      	movs	r0, #0
 8027954:	e005      	b.n	8027962 <RCCEx_PLL3_Config+0xca>
 8027956:	f7fe ff17 	bl	8026788 <HAL_GetTick>
 802795a:	1bc0      	subs	r0, r0, r7
 802795c:	2802      	cmp	r0, #2
 802795e:	d9ab      	bls.n	80278b8 <RCCEx_PLL3_Config+0x20>
 8027960:	2003      	movs	r0, #3
 8027962:	bdf8      	pop	{r3, r4, r5, r6, r7, pc}
 8027964:	2d01      	cmp	r5, #1
 8027966:	bf0c      	ite	eq
 8027968:	f443 0300 	orreq.w	r3, r3, #8388608	; 0x800000
 802796c:	f043 7380 	orrne.w	r3, r3, #16777216	; 0x1000000
 8027970:	e7e3      	b.n	802793a <RCCEx_PLL3_Config+0xa2>
 8027972:	f7fe ff09 	bl	8026788 <HAL_GetTick>
 8027976:	1b40      	subs	r0, r0, r5
 8027978:	2802      	cmp	r0, #2
 802797a:	d9e7      	bls.n	802794c <RCCEx_PLL3_Config+0xb4>
 802797c:	e7f0      	b.n	8027960 <RCCEx_PLL3_Config+0xc8>
 802797e:	2001      	movs	r0, #1
 8027980:	e7ef      	b.n	8027962 <RCCEx_PLL3_Config+0xca>
 8027982:	bf00      	nop
 8027984:	58024400 	.word	0x58024400

08027988 <HAL_RCCEx_PeriphCLKConfig>:
 8027988:	e92d 43f8 	stmdb	sp!, {r3, r4, r5, r6, r7, r8, r9, lr}
 802798c:	6803      	ldr	r3, [r0, #0]
 802798e:	4605      	mov	r5, r0
 8027990:	0118      	lsls	r0, r3, #4
 8027992:	f003 6600 	and.w	r6, r3, #134217728	; 0x8000000
 8027996:	d509      	bpl.n	80279ac <HAL_RCCEx_PeriphCLKConfig+0x24>
 8027998:	6eab      	ldr	r3, [r5, #104]	; 0x68
 802799a:	f5b3 1f00 	cmp.w	r3, #2097152	; 0x200000
 802799e:	d02f      	beq.n	8027a00 <HAL_RCCEx_PeriphCLKConfig+0x78>
 80279a0:	d813      	bhi.n	80279ca <HAL_RCCEx_PeriphCLKConfig+0x42>
 80279a2:	b1f3      	cbz	r3, 80279e2 <HAL_RCCEx_PeriphCLKConfig+0x5a>
 80279a4:	f5b3 1f80 	cmp.w	r3, #1048576	; 0x100000
 80279a8:	d021      	beq.n	80279ee <HAL_RCCEx_PeriphCLKConfig+0x66>
 80279aa:	2601      	movs	r6, #1
 80279ac:	682b      	ldr	r3, [r5, #0]
 80279ae:	05d9      	lsls	r1, r3, #23
 80279b0:	f140 80ed 	bpl.w	8027b8e <HAL_RCCEx_PeriphCLKConfig+0x206>
 80279b4:	6dab      	ldr	r3, [r5, #88]	; 0x58
 80279b6:	2b04      	cmp	r3, #4
 80279b8:	f200 80e8 	bhi.w	8027b8c <HAL_RCCEx_PeriphCLKConfig+0x204>
 80279bc:	e8df f013 	tbh	[pc, r3, lsl #1]
 80279c0:	002d0026 	.word	0x002d0026
 80279c4:	002b00e0 	.word	0x002b00e0
 80279c8:	002b      	.short	0x002b
 80279ca:	f5b3 1f40 	cmp.w	r3, #3145728	; 0x300000
 80279ce:	d1ec      	bne.n	80279aa <HAL_RCCEx_PeriphCLKConfig+0x22>
 80279d0:	4aa9      	ldr	r2, [pc, #676]	; (8027c78 <HAL_RCCEx_PeriphCLKConfig+0x2f0>)
 80279d2:	2600      	movs	r6, #0
 80279d4:	6ea9      	ldr	r1, [r5, #104]	; 0x68
 80279d6:	6d13      	ldr	r3, [r2, #80]	; 0x50
 80279d8:	f423 1340 	bic.w	r3, r3, #3145728	; 0x300000
 80279dc:	430b      	orrs	r3, r1
 80279de:	6513      	str	r3, [r2, #80]	; 0x50
 80279e0:	e7e4      	b.n	80279ac <HAL_RCCEx_PeriphCLKConfig+0x24>
 80279e2:	4aa5      	ldr	r2, [pc, #660]	; (8027c78 <HAL_RCCEx_PeriphCLKConfig+0x2f0>)
 80279e4:	6ad3      	ldr	r3, [r2, #44]	; 0x2c
 80279e6:	f443 3300 	orr.w	r3, r3, #131072	; 0x20000
 80279ea:	62d3      	str	r3, [r2, #44]	; 0x2c
 80279ec:	e7f0      	b.n	80279d0 <HAL_RCCEx_PeriphCLKConfig+0x48>
 80279ee:	2102      	movs	r1, #2
 80279f0:	f105 0008 	add.w	r0, r5, #8
 80279f4:	f7ff fed8 	bl	80277a8 <RCCEx_PLL2_Config>
 80279f8:	4606      	mov	r6, r0
 80279fa:	2800      	cmp	r0, #0
 80279fc:	d1d6      	bne.n	80279ac <HAL_RCCEx_PeriphCLKConfig+0x24>
 80279fe:	e7e7      	b.n	80279d0 <HAL_RCCEx_PeriphCLKConfig+0x48>
 8027a00:	2102      	movs	r1, #2
 8027a02:	f105 0028 	add.w	r0, r5, #40	; 0x28
 8027a06:	f7ff ff47 	bl	8027898 <RCCEx_PLL3_Config>
 8027a0a:	e7f5      	b.n	80279f8 <HAL_RCCEx_PeriphCLKConfig+0x70>
 8027a0c:	4a9a      	ldr	r2, [pc, #616]	; (8027c78 <HAL_RCCEx_PeriphCLKConfig+0x2f0>)
 8027a0e:	6ad3      	ldr	r3, [r2, #44]	; 0x2c
 8027a10:	f443 3300 	orr.w	r3, r3, #131072	; 0x20000
 8027a14:	62d3      	str	r3, [r2, #44]	; 0x2c
 8027a16:	4634      	mov	r4, r6
 8027a18:	e005      	b.n	8027a26 <HAL_RCCEx_PeriphCLKConfig+0x9e>
 8027a1a:	2100      	movs	r1, #0
 8027a1c:	f105 0008 	add.w	r0, r5, #8
 8027a20:	f7ff fec2 	bl	80277a8 <RCCEx_PLL2_Config>
 8027a24:	4604      	mov	r4, r0
 8027a26:	2c00      	cmp	r4, #0
 8027a28:	f040 80b3 	bne.w	8027b92 <HAL_RCCEx_PeriphCLKConfig+0x20a>
 8027a2c:	4a92      	ldr	r2, [pc, #584]	; (8027c78 <HAL_RCCEx_PeriphCLKConfig+0x2f0>)
 8027a2e:	6da9      	ldr	r1, [r5, #88]	; 0x58
 8027a30:	6d13      	ldr	r3, [r2, #80]	; 0x50
 8027a32:	f023 0307 	bic.w	r3, r3, #7
 8027a36:	430b      	orrs	r3, r1
 8027a38:	6513      	str	r3, [r2, #80]	; 0x50
 8027a3a:	682b      	ldr	r3, [r5, #0]
 8027a3c:	059a      	lsls	r2, r3, #22
 8027a3e:	d50d      	bpl.n	8027a5c <HAL_RCCEx_PeriphCLKConfig+0xd4>
 8027a40:	6deb      	ldr	r3, [r5, #92]	; 0x5c
 8027a42:	2b80      	cmp	r3, #128	; 0x80
 8027a44:	f000 80c3 	beq.w	8027bce <HAL_RCCEx_PeriphCLKConfig+0x246>
 8027a48:	f200 80a5 	bhi.w	8027b96 <HAL_RCCEx_PeriphCLKConfig+0x20e>
 8027a4c:	2b00      	cmp	r3, #0
 8027a4e:	f000 80b1 	beq.w	8027bb4 <HAL_RCCEx_PeriphCLKConfig+0x22c>
 8027a52:	2b40      	cmp	r3, #64	; 0x40
 8027a54:	f000 80b4 	beq.w	8027bc0 <HAL_RCCEx_PeriphCLKConfig+0x238>
 8027a58:	2601      	movs	r6, #1
 8027a5a:	4634      	mov	r4, r6
 8027a5c:	682b      	ldr	r3, [r5, #0]
 8027a5e:	055b      	lsls	r3, r3, #21
 8027a60:	d510      	bpl.n	8027a84 <HAL_RCCEx_PeriphCLKConfig+0xfc>
 8027a62:	f8d5 30a8 	ldr.w	r3, [r5, #168]	; 0xa8
 8027a66:	f5b3 0f80 	cmp.w	r3, #4194304	; 0x400000
 8027a6a:	f000 80d6 	beq.w	8027c1a <HAL_RCCEx_PeriphCLKConfig+0x292>
 8027a6e:	f200 80b6 	bhi.w	8027bde <HAL_RCCEx_PeriphCLKConfig+0x256>
 8027a72:	2b00      	cmp	r3, #0
 8027a74:	f000 80c4 	beq.w	8027c00 <HAL_RCCEx_PeriphCLKConfig+0x278>
 8027a78:	f5b3 1f00 	cmp.w	r3, #2097152	; 0x200000
 8027a7c:	f000 80c6 	beq.w	8027c0c <HAL_RCCEx_PeriphCLKConfig+0x284>
 8027a80:	2601      	movs	r6, #1
 8027a82:	4634      	mov	r4, r6
 8027a84:	682b      	ldr	r3, [r5, #0]
 8027a86:	051f      	lsls	r7, r3, #20
 8027a88:	d510      	bpl.n	8027aac <HAL_RCCEx_PeriphCLKConfig+0x124>
 8027a8a:	f8d5 30ac 	ldr.w	r3, [r5, #172]	; 0xac
 8027a8e:	f1b3 7f00 	cmp.w	r3, #33554432	; 0x2000000
 8027a92:	f000 80e8 	beq.w	8027c66 <HAL_RCCEx_PeriphCLKConfig+0x2de>
 8027a96:	f200 80c8 	bhi.w	8027c2a <HAL_RCCEx_PeriphCLKConfig+0x2a2>
 8027a9a:	2b00      	cmp	r3, #0
 8027a9c:	f000 80d6 	beq.w	8027c4c <HAL_RCCEx_PeriphCLKConfig+0x2c4>
 8027aa0:	f1b3 7f80 	cmp.w	r3, #16777216	; 0x1000000
 8027aa4:	f000 80d8 	beq.w	8027c58 <HAL_RCCEx_PeriphCLKConfig+0x2d0>
 8027aa8:	2601      	movs	r6, #1
 8027aaa:	4634      	mov	r4, r6
 8027aac:	682b      	ldr	r3, [r5, #0]
 8027aae:	0198      	lsls	r0, r3, #6
 8027ab0:	d50d      	bpl.n	8027ace <HAL_RCCEx_PeriphCLKConfig+0x146>
 8027ab2:	6ceb      	ldr	r3, [r5, #76]	; 0x4c
 8027ab4:	2b20      	cmp	r3, #32
 8027ab6:	f000 80f3 	beq.w	8027ca0 <HAL_RCCEx_PeriphCLKConfig+0x318>
 8027aba:	f200 80df 	bhi.w	8027c7c <HAL_RCCEx_PeriphCLKConfig+0x2f4>
 8027abe:	2b00      	cmp	r3, #0
 8027ac0:	f000 80df 	beq.w	8027c82 <HAL_RCCEx_PeriphCLKConfig+0x2fa>
 8027ac4:	2b10      	cmp	r3, #16
 8027ac6:	f000 80e5 	beq.w	8027c94 <HAL_RCCEx_PeriphCLKConfig+0x30c>
 8027aca:	2601      	movs	r6, #1
 8027acc:	4634      	mov	r4, r6
 8027ace:	682b      	ldr	r3, [r5, #0]
 8027ad0:	04d9      	lsls	r1, r3, #19
 8027ad2:	d50f      	bpl.n	8027af4 <HAL_RCCEx_PeriphCLKConfig+0x16c>
 8027ad4:	6e2b      	ldr	r3, [r5, #96]	; 0x60
 8027ad6:	f5b3 5f00 	cmp.w	r3, #8192	; 0x2000
 8027ada:	f000 8107 	beq.w	8027cec <HAL_RCCEx_PeriphCLKConfig+0x364>
 8027ade:	f200 80e8 	bhi.w	8027cb2 <HAL_RCCEx_PeriphCLKConfig+0x32a>
 8027ae2:	2b00      	cmp	r3, #0
 8027ae4:	f000 80f5 	beq.w	8027cd2 <HAL_RCCEx_PeriphCLKConfig+0x34a>
 8027ae8:	f5b3 5f80 	cmp.w	r3, #4096	; 0x1000
 8027aec:	f000 80f7 	beq.w	8027cde <HAL_RCCEx_PeriphCLKConfig+0x356>
 8027af0:	2601      	movs	r6, #1
 8027af2:	4634      	mov	r4, r6
 8027af4:	682b      	ldr	r3, [r5, #0]
 8027af6:	049a      	lsls	r2, r3, #18
 8027af8:	d50f      	bpl.n	8027b1a <HAL_RCCEx_PeriphCLKConfig+0x192>
 8027afa:	6e6b      	ldr	r3, [r5, #100]	; 0x64
 8027afc:	f5b3 3f00 	cmp.w	r3, #131072	; 0x20000
 8027b00:	f000 8115 	beq.w	8027d2e <HAL_RCCEx_PeriphCLKConfig+0x3a6>
 8027b04:	f200 80fa 	bhi.w	8027cfc <HAL_RCCEx_PeriphCLKConfig+0x374>
 8027b08:	2b00      	cmp	r3, #0
 8027b0a:	f000 8100 	beq.w	8027d0e <HAL_RCCEx_PeriphCLKConfig+0x386>
 8027b0e:	f5b3 3f80 	cmp.w	r3, #65536	; 0x10000
 8027b12:	f000 8105 	beq.w	8027d20 <HAL_RCCEx_PeriphCLKConfig+0x398>
 8027b16:	2601      	movs	r6, #1
 8027b18:	4634      	mov	r4, r6
 8027b1a:	682b      	ldr	r3, [r5, #0]
 8027b1c:	045b      	lsls	r3, r3, #17
 8027b1e:	d510      	bpl.n	8027b42 <HAL_RCCEx_PeriphCLKConfig+0x1ba>
 8027b20:	f8d5 30b0 	ldr.w	r3, [r5, #176]	; 0xb0
 8027b24:	f1b3 5f00 	cmp.w	r3, #536870912	; 0x20000000
 8027b28:	f000 8123 	beq.w	8027d72 <HAL_RCCEx_PeriphCLKConfig+0x3ea>
 8027b2c:	f200 8107 	bhi.w	8027d3e <HAL_RCCEx_PeriphCLKConfig+0x3b6>
 8027b30:	2b00      	cmp	r3, #0
 8027b32:	f000 810d 	beq.w	8027d50 <HAL_RCCEx_PeriphCLKConfig+0x3c8>
 8027b36:	f1b3 5f80 	cmp.w	r3, #268435456	; 0x10000000
 8027b3a:	f000 8113 	beq.w	8027d64 <HAL_RCCEx_PeriphCLKConfig+0x3dc>
 8027b3e:	2601      	movs	r6, #1
 8027b40:	4634      	mov	r4, r6
 8027b42:	682b      	ldr	r3, [r5, #0]
 8027b44:	041f      	lsls	r7, r3, #16
 8027b46:	d50d      	bpl.n	8027b64 <HAL_RCCEx_PeriphCLKConfig+0x1dc>
 8027b48:	6f2b      	ldr	r3, [r5, #112]	; 0x70
 8027b4a:	f1b3 5f80 	cmp.w	r3, #268435456	; 0x10000000
 8027b4e:	f000 8118 	beq.w	8027d82 <HAL_RCCEx_PeriphCLKConfig+0x3fa>
 8027b52:	f1b3 5f00 	cmp.w	r3, #536870912	; 0x20000000
 8027b56:	f000 8122 	beq.w	8027d9e <HAL_RCCEx_PeriphCLKConfig+0x416>
 8027b5a:	2b00      	cmp	r3, #0
 8027b5c:	f000 8116 	beq.w	8027d8c <HAL_RCCEx_PeriphCLKConfig+0x404>
 8027b60:	2601      	movs	r6, #1
 8027b62:	4634      	mov	r4, r6
 8027b64:	682b      	ldr	r3, [r5, #0]
 8027b66:	01d8      	lsls	r0, r3, #7
 8027b68:	f140 8130 	bpl.w	8027dcc <HAL_RCCEx_PeriphCLKConfig+0x444>
 8027b6c:	6cab      	ldr	r3, [r5, #72]	; 0x48
 8027b6e:	2b03      	cmp	r3, #3
 8027b70:	f200 8171 	bhi.w	8027e56 <HAL_RCCEx_PeriphCLKConfig+0x4ce>
 8027b74:	e8df f013 	tbh	[pc, r3, lsl #1]
 8027b78:	011c0121 	.word	0x011c0121
 8027b7c:	01210168 	.word	0x01210168
 8027b80:	2100      	movs	r1, #0
 8027b82:	f105 0028 	add.w	r0, r5, #40	; 0x28
 8027b86:	f7ff fe87 	bl	8027898 <RCCEx_PLL3_Config>
 8027b8a:	e74b      	b.n	8027a24 <HAL_RCCEx_PeriphCLKConfig+0x9c>
 8027b8c:	2601      	movs	r6, #1
 8027b8e:	4634      	mov	r4, r6
 8027b90:	e753      	b.n	8027a3a <HAL_RCCEx_PeriphCLKConfig+0xb2>
 8027b92:	4626      	mov	r6, r4
 8027b94:	e751      	b.n	8027a3a <HAL_RCCEx_PeriphCLKConfig+0xb2>
 8027b96:	2bc0      	cmp	r3, #192	; 0xc0
 8027b98:	d003      	beq.n	8027ba2 <HAL_RCCEx_PeriphCLKConfig+0x21a>
 8027b9a:	f5b3 7f80 	cmp.w	r3, #256	; 0x100
 8027b9e:	f47f af5b 	bne.w	8027a58 <HAL_RCCEx_PeriphCLKConfig+0xd0>
 8027ba2:	b9d4      	cbnz	r4, 8027bda <HAL_RCCEx_PeriphCLKConfig+0x252>
 8027ba4:	4a34      	ldr	r2, [pc, #208]	; (8027c78 <HAL_RCCEx_PeriphCLKConfig+0x2f0>)
 8027ba6:	6de9      	ldr	r1, [r5, #92]	; 0x5c
 8027ba8:	6d13      	ldr	r3, [r2, #80]	; 0x50
 8027baa:	f423 73e0 	bic.w	r3, r3, #448	; 0x1c0
 8027bae:	430b      	orrs	r3, r1
 8027bb0:	6513      	str	r3, [r2, #80]	; 0x50
 8027bb2:	e753      	b.n	8027a5c <HAL_RCCEx_PeriphCLKConfig+0xd4>
 8027bb4:	4a30      	ldr	r2, [pc, #192]	; (8027c78 <HAL_RCCEx_PeriphCLKConfig+0x2f0>)
 8027bb6:	6ad3      	ldr	r3, [r2, #44]	; 0x2c
 8027bb8:	f443 3300 	orr.w	r3, r3, #131072	; 0x20000
 8027bbc:	62d3      	str	r3, [r2, #44]	; 0x2c
 8027bbe:	e7f0      	b.n	8027ba2 <HAL_RCCEx_PeriphCLKConfig+0x21a>
 8027bc0:	2100      	movs	r1, #0
 8027bc2:	f105 0008 	add.w	r0, r5, #8
 8027bc6:	f7ff fdef 	bl	80277a8 <RCCEx_PLL2_Config>
 8027bca:	4604      	mov	r4, r0
 8027bcc:	e7e9      	b.n	8027ba2 <HAL_RCCEx_PeriphCLKConfig+0x21a>
 8027bce:	2100      	movs	r1, #0
 8027bd0:	f105 0028 	add.w	r0, r5, #40	; 0x28
 8027bd4:	f7ff fe60 	bl	8027898 <RCCEx_PLL3_Config>
 8027bd8:	e7f7      	b.n	8027bca <HAL_RCCEx_PeriphCLKConfig+0x242>
 8027bda:	4626      	mov	r6, r4
 8027bdc:	e73e      	b.n	8027a5c <HAL_RCCEx_PeriphCLKConfig+0xd4>
 8027bde:	f5b3 0fc0 	cmp.w	r3, #6291456	; 0x600000
 8027be2:	d003      	beq.n	8027bec <HAL_RCCEx_PeriphCLKConfig+0x264>
 8027be4:	f5b3 0f00 	cmp.w	r3, #8388608	; 0x800000
 8027be8:	f47f af4a 	bne.w	8027a80 <HAL_RCCEx_PeriphCLKConfig+0xf8>
 8027bec:	b9dc      	cbnz	r4, 8027c26 <HAL_RCCEx_PeriphCLKConfig+0x29e>
 8027bee:	4a22      	ldr	r2, [pc, #136]	; (8027c78 <HAL_RCCEx_PeriphCLKConfig+0x2f0>)
 8027bf0:	f8d5 10a8 	ldr.w	r1, [r5, #168]	; 0xa8
 8027bf4:	6d93      	ldr	r3, [r2, #88]	; 0x58
 8027bf6:	f423 0360 	bic.w	r3, r3, #14680064	; 0xe00000
 8027bfa:	430b      	orrs	r3, r1
 8027bfc:	6593      	str	r3, [r2, #88]	; 0x58
 8027bfe:	e741      	b.n	8027a84 <HAL_RCCEx_PeriphCLKConfig+0xfc>
 8027c00:	4a1d      	ldr	r2, [pc, #116]	; (8027c78 <HAL_RCCEx_PeriphCLKConfig+0x2f0>)
 8027c02:	6ad3      	ldr	r3, [r2, #44]	; 0x2c
 8027c04:	f443 3300 	orr.w	r3, r3, #131072	; 0x20000
 8027c08:	62d3      	str	r3, [r2, #44]	; 0x2c
 8027c0a:	e7ef      	b.n	8027bec <HAL_RCCEx_PeriphCLKConfig+0x264>
 8027c0c:	2100      	movs	r1, #0
 8027c0e:	f105 0008 	add.w	r0, r5, #8
 8027c12:	f7ff fdc9 	bl	80277a8 <RCCEx_PLL2_Config>
 8027c16:	4604      	mov	r4, r0
 8027c18:	e7e8      	b.n	8027bec <HAL_RCCEx_PeriphCLKConfig+0x264>
 8027c1a:	2100      	movs	r1, #0
 8027c1c:	f105 0028 	add.w	r0, r5, #40	; 0x28
 8027c20:	f7ff fe3a 	bl	8027898 <RCCEx_PLL3_Config>
 8027c24:	e7f7      	b.n	8027c16 <HAL_RCCEx_PeriphCLKConfig+0x28e>
 8027c26:	4626      	mov	r6, r4
 8027c28:	e72c      	b.n	8027a84 <HAL_RCCEx_PeriphCLKConfig+0xfc>
 8027c2a:	f1b3 7f40 	cmp.w	r3, #50331648	; 0x3000000
 8027c2e:	d003      	beq.n	8027c38 <HAL_RCCEx_PeriphCLKConfig+0x2b0>
 8027c30:	f1b3 6f80 	cmp.w	r3, #67108864	; 0x4000000
 8027c34:	f47f af38 	bne.w	8027aa8 <HAL_RCCEx_PeriphCLKConfig+0x120>
 8027c38:	b9dc      	cbnz	r4, 8027c72 <HAL_RCCEx_PeriphCLKConfig+0x2ea>
 8027c3a:	4a0f      	ldr	r2, [pc, #60]	; (8027c78 <HAL_RCCEx_PeriphCLKConfig+0x2f0>)
 8027c3c:	f8d5 10ac 	ldr.w	r1, [r5, #172]	; 0xac
 8027c40:	6d93      	ldr	r3, [r2, #88]	; 0x58
 8027c42:	f023 63e0 	bic.w	r3, r3, #117440512	; 0x7000000
 8027c46:	430b      	orrs	r3, r1
 8027c48:	6593      	str	r3, [r2, #88]	; 0x58
 8027c4a:	e72f      	b.n	8027aac <HAL_RCCEx_PeriphCLKConfig+0x124>
 8027c4c:	4a0a      	ldr	r2, [pc, #40]	; (8027c78 <HAL_RCCEx_PeriphCLKConfig+0x2f0>)
 8027c4e:	6ad3      	ldr	r3, [r2, #44]	; 0x2c
 8027c50:	f443 3300 	orr.w	r3, r3, #131072	; 0x20000
 8027c54:	62d3      	str	r3, [r2, #44]	; 0x2c
 8027c56:	e7ef      	b.n	8027c38 <HAL_RCCEx_PeriphCLKConfig+0x2b0>
 8027c58:	2100      	movs	r1, #0
 8027c5a:	f105 0008 	add.w	r0, r5, #8
 8027c5e:	f7ff fda3 	bl	80277a8 <RCCEx_PLL2_Config>
 8027c62:	4604      	mov	r4, r0
 8027c64:	e7e8      	b.n	8027c38 <HAL_RCCEx_PeriphCLKConfig+0x2b0>
 8027c66:	2100      	movs	r1, #0
 8027c68:	f105 0028 	add.w	r0, r5, #40	; 0x28
 8027c6c:	f7ff fe14 	bl	8027898 <RCCEx_PLL3_Config>
 8027c70:	e7f7      	b.n	8027c62 <HAL_RCCEx_PeriphCLKConfig+0x2da>
 8027c72:	4626      	mov	r6, r4
 8027c74:	e71a      	b.n	8027aac <HAL_RCCEx_PeriphCLKConfig+0x124>
 8027c76:	bf00      	nop
 8027c78:	58024400 	.word	0x58024400
 8027c7c:	2b30      	cmp	r3, #48	; 0x30
 8027c7e:	f47f af24 	bne.w	8027aca <HAL_RCCEx_PeriphCLKConfig+0x142>
 8027c82:	b9a4      	cbnz	r4, 8027cae <HAL_RCCEx_PeriphCLKConfig+0x326>
 8027c84:	4aa0      	ldr	r2, [pc, #640]	; (8027f08 <HAL_RCCEx_PeriphCLKConfig+0x580>)
 8027c86:	6ce9      	ldr	r1, [r5, #76]	; 0x4c
 8027c88:	6cd3      	ldr	r3, [r2, #76]	; 0x4c
 8027c8a:	f023 0330 	bic.w	r3, r3, #48	; 0x30
 8027c8e:	430b      	orrs	r3, r1
 8027c90:	64d3      	str	r3, [r2, #76]	; 0x4c
 8027c92:	e71c      	b.n	8027ace <HAL_RCCEx_PeriphCLKConfig+0x146>
 8027c94:	4a9c      	ldr	r2, [pc, #624]	; (8027f08 <HAL_RCCEx_PeriphCLKConfig+0x580>)
 8027c96:	6ad3      	ldr	r3, [r2, #44]	; 0x2c
 8027c98:	f443 3300 	orr.w	r3, r3, #131072	; 0x20000
 8027c9c:	62d3      	str	r3, [r2, #44]	; 0x2c
 8027c9e:	e7f0      	b.n	8027c82 <HAL_RCCEx_PeriphCLKConfig+0x2fa>
 8027ca0:	2102      	movs	r1, #2
 8027ca2:	f105 0008 	add.w	r0, r5, #8
 8027ca6:	f7ff fd7f 	bl	80277a8 <RCCEx_PLL2_Config>
 8027caa:	4604      	mov	r4, r0
 8027cac:	e7e9      	b.n	8027c82 <HAL_RCCEx_PeriphCLKConfig+0x2fa>
 8027cae:	4626      	mov	r6, r4
 8027cb0:	e70d      	b.n	8027ace <HAL_RCCEx_PeriphCLKConfig+0x146>
 8027cb2:	f5b3 5f40 	cmp.w	r3, #12288	; 0x3000
 8027cb6:	d003      	beq.n	8027cc0 <HAL_RCCEx_PeriphCLKConfig+0x338>
 8027cb8:	f5b3 4f80 	cmp.w	r3, #16384	; 0x4000
 8027cbc:	f47f af18 	bne.w	8027af0 <HAL_RCCEx_PeriphCLKConfig+0x168>
 8027cc0:	b9d4      	cbnz	r4, 8027cf8 <HAL_RCCEx_PeriphCLKConfig+0x370>
 8027cc2:	4a91      	ldr	r2, [pc, #580]	; (8027f08 <HAL_RCCEx_PeriphCLKConfig+0x580>)
 8027cc4:	6e29      	ldr	r1, [r5, #96]	; 0x60
 8027cc6:	6d13      	ldr	r3, [r2, #80]	; 0x50
 8027cc8:	f423 43e0 	bic.w	r3, r3, #28672	; 0x7000
 8027ccc:	430b      	orrs	r3, r1
 8027cce:	6513      	str	r3, [r2, #80]	; 0x50
 8027cd0:	e710      	b.n	8027af4 <HAL_RCCEx_PeriphCLKConfig+0x16c>
 8027cd2:	4a8d      	ldr	r2, [pc, #564]	; (8027f08 <HAL_RCCEx_PeriphCLKConfig+0x580>)
 8027cd4:	6ad3      	ldr	r3, [r2, #44]	; 0x2c
 8027cd6:	f443 3300 	orr.w	r3, r3, #131072	; 0x20000
 8027cda:	62d3      	str	r3, [r2, #44]	; 0x2c
 8027cdc:	e7f0      	b.n	8027cc0 <HAL_RCCEx_PeriphCLKConfig+0x338>
 8027cde:	2100      	movs	r1, #0
 8027ce0:	f105 0008 	add.w	r0, r5, #8
 8027ce4:	f7ff fd60 	bl	80277a8 <RCCEx_PLL2_Config>
 8027ce8:	4604      	mov	r4, r0
 8027cea:	e7e9      	b.n	8027cc0 <HAL_RCCEx_PeriphCLKConfig+0x338>
 8027cec:	2100      	movs	r1, #0
 8027cee:	f105 0028 	add.w	r0, r5, #40	; 0x28
 8027cf2:	f7ff fdd1 	bl	8027898 <RCCEx_PLL3_Config>
 8027cf6:	e7f7      	b.n	8027ce8 <HAL_RCCEx_PeriphCLKConfig+0x360>
 8027cf8:	4626      	mov	r6, r4
 8027cfa:	e6fb      	b.n	8027af4 <HAL_RCCEx_PeriphCLKConfig+0x16c>
 8027cfc:	f423 3280 	bic.w	r2, r3, #65536	; 0x10000
 8027d00:	f5b2 2f80 	cmp.w	r2, #262144	; 0x40000
 8027d04:	d003      	beq.n	8027d0e <HAL_RCCEx_PeriphCLKConfig+0x386>
 8027d06:	f5b3 3f40 	cmp.w	r3, #196608	; 0x30000
 8027d0a:	f47f af04 	bne.w	8027b16 <HAL_RCCEx_PeriphCLKConfig+0x18e>
 8027d0e:	b9a4      	cbnz	r4, 8027d3a <HAL_RCCEx_PeriphCLKConfig+0x3b2>
 8027d10:	4a7d      	ldr	r2, [pc, #500]	; (8027f08 <HAL_RCCEx_PeriphCLKConfig+0x580>)
 8027d12:	6e69      	ldr	r1, [r5, #100]	; 0x64
 8027d14:	6d13      	ldr	r3, [r2, #80]	; 0x50
 8027d16:	f423 23e0 	bic.w	r3, r3, #458752	; 0x70000
 8027d1a:	430b      	orrs	r3, r1
 8027d1c:	6513      	str	r3, [r2, #80]	; 0x50
 8027d1e:	e6fc      	b.n	8027b1a <HAL_RCCEx_PeriphCLKConfig+0x192>
 8027d20:	2101      	movs	r1, #1
 8027d22:	f105 0008 	add.w	r0, r5, #8
 8027d26:	f7ff fd3f 	bl	80277a8 <RCCEx_PLL2_Config>
 8027d2a:	4604      	mov	r4, r0
 8027d2c:	e7ef      	b.n	8027d0e <HAL_RCCEx_PeriphCLKConfig+0x386>
 8027d2e:	2101      	movs	r1, #1
 8027d30:	f105 0028 	add.w	r0, r5, #40	; 0x28
 8027d34:	f7ff fdb0 	bl	8027898 <RCCEx_PLL3_Config>
 8027d38:	e7f7      	b.n	8027d2a <HAL_RCCEx_PeriphCLKConfig+0x3a2>
 8027d3a:	4626      	mov	r6, r4
 8027d3c:	e6ed      	b.n	8027b1a <HAL_RCCEx_PeriphCLKConfig+0x192>
 8027d3e:	f023 5280 	bic.w	r2, r3, #268435456	; 0x10000000
 8027d42:	f1b2 4f80 	cmp.w	r2, #1073741824	; 0x40000000
 8027d46:	d003      	beq.n	8027d50 <HAL_RCCEx_PeriphCLKConfig+0x3c8>
 8027d48:	f1b3 5f40 	cmp.w	r3, #805306368	; 0x30000000
 8027d4c:	f47f aef7 	bne.w	8027b3e <HAL_RCCEx_PeriphCLKConfig+0x1b6>
 8027d50:	b9ac      	cbnz	r4, 8027d7e <HAL_RCCEx_PeriphCLKConfig+0x3f6>
 8027d52:	4a6d      	ldr	r2, [pc, #436]	; (8027f08 <HAL_RCCEx_PeriphCLKConfig+0x580>)
 8027d54:	f8d5 10b0 	ldr.w	r1, [r5, #176]	; 0xb0
 8027d58:	6d93      	ldr	r3, [r2, #88]	; 0x58
 8027d5a:	f023 43e0 	bic.w	r3, r3, #1879048192	; 0x70000000
 8027d5e:	430b      	orrs	r3, r1
 8027d60:	6593      	str	r3, [r2, #88]	; 0x58
 8027d62:	e6ee      	b.n	8027b42 <HAL_RCCEx_PeriphCLKConfig+0x1ba>
 8027d64:	2101      	movs	r1, #1
 8027d66:	f105 0008 	add.w	r0, r5, #8
 8027d6a:	f7ff fd1d 	bl	80277a8 <RCCEx_PLL2_Config>
 8027d6e:	4604      	mov	r4, r0
 8027d70:	e7ee      	b.n	8027d50 <HAL_RCCEx_PeriphCLKConfig+0x3c8>
 8027d72:	2101      	movs	r1, #1
 8027d74:	f105 0028 	add.w	r0, r5, #40	; 0x28
 8027d78:	f7ff fd8e 	bl	8027898 <RCCEx_PLL3_Config>
 8027d7c:	e7f7      	b.n	8027d6e <HAL_RCCEx_PeriphCLKConfig+0x3e6>
 8027d7e:	4626      	mov	r6, r4
 8027d80:	e6df      	b.n	8027b42 <HAL_RCCEx_PeriphCLKConfig+0x1ba>
 8027d82:	4a61      	ldr	r2, [pc, #388]	; (8027f08 <HAL_RCCEx_PeriphCLKConfig+0x580>)
 8027d84:	6ad3      	ldr	r3, [r2, #44]	; 0x2c
 8027d86:	f443 3300 	orr.w	r3, r3, #131072	; 0x20000
 8027d8a:	62d3      	str	r3, [r2, #44]	; 0x2c
 8027d8c:	b974      	cbnz	r4, 8027dac <HAL_RCCEx_PeriphCLKConfig+0x424>
 8027d8e:	4a5e      	ldr	r2, [pc, #376]	; (8027f08 <HAL_RCCEx_PeriphCLKConfig+0x580>)
 8027d90:	6f29      	ldr	r1, [r5, #112]	; 0x70
 8027d92:	6d13      	ldr	r3, [r2, #80]	; 0x50
 8027d94:	f023 5340 	bic.w	r3, r3, #805306368	; 0x30000000
 8027d98:	430b      	orrs	r3, r1
 8027d9a:	6513      	str	r3, [r2, #80]	; 0x50
 8027d9c:	e6e2      	b.n	8027b64 <HAL_RCCEx_PeriphCLKConfig+0x1dc>
 8027d9e:	2101      	movs	r1, #1
 8027da0:	f105 0008 	add.w	r0, r5, #8
 8027da4:	f7ff fd00 	bl	80277a8 <RCCEx_PLL2_Config>
 8027da8:	4604      	mov	r4, r0
 8027daa:	e7ef      	b.n	8027d8c <HAL_RCCEx_PeriphCLKConfig+0x404>
 8027dac:	4626      	mov	r6, r4
 8027dae:	e6d9      	b.n	8027b64 <HAL_RCCEx_PeriphCLKConfig+0x1dc>
 8027db0:	4a55      	ldr	r2, [pc, #340]	; (8027f08 <HAL_RCCEx_PeriphCLKConfig+0x580>)
 8027db2:	6ad3      	ldr	r3, [r2, #44]	; 0x2c
 8027db4:	f443 3300 	orr.w	r3, r3, #131072	; 0x20000
 8027db8:	62d3      	str	r3, [r2, #44]	; 0x2c
 8027dba:	2c00      	cmp	r4, #0
 8027dbc:	d14e      	bne.n	8027e5c <HAL_RCCEx_PeriphCLKConfig+0x4d4>
 8027dbe:	4a52      	ldr	r2, [pc, #328]	; (8027f08 <HAL_RCCEx_PeriphCLKConfig+0x580>)
 8027dc0:	6ca9      	ldr	r1, [r5, #72]	; 0x48
 8027dc2:	6cd3      	ldr	r3, [r2, #76]	; 0x4c
 8027dc4:	f023 0303 	bic.w	r3, r3, #3
 8027dc8:	430b      	orrs	r3, r1
 8027dca:	64d3      	str	r3, [r2, #76]	; 0x4c
 8027dcc:	682b      	ldr	r3, [r5, #0]
 8027dce:	0259      	lsls	r1, r3, #9
 8027dd0:	d54e      	bpl.n	8027e70 <HAL_RCCEx_PeriphCLKConfig+0x4e8>
 8027dd2:	4f4e      	ldr	r7, [pc, #312]	; (8027f0c <HAL_RCCEx_PeriphCLKConfig+0x584>)
 8027dd4:	683b      	ldr	r3, [r7, #0]
 8027dd6:	f443 7380 	orr.w	r3, r3, #256	; 0x100
 8027dda:	603b      	str	r3, [r7, #0]
 8027ddc:	f7fe fcd4 	bl	8026788 <HAL_GetTick>
 8027de0:	4680      	mov	r8, r0
 8027de2:	683b      	ldr	r3, [r7, #0]
 8027de4:	05da      	lsls	r2, r3, #23
 8027de6:	d53b      	bpl.n	8027e60 <HAL_RCCEx_PeriphCLKConfig+0x4d8>
 8027de8:	2c00      	cmp	r4, #0
 8027dea:	d16d      	bne.n	8027ec8 <HAL_RCCEx_PeriphCLKConfig+0x540>
 8027dec:	4b46      	ldr	r3, [pc, #280]	; (8027f08 <HAL_RCCEx_PeriphCLKConfig+0x580>)
 8027dee:	f8d5 00b4 	ldr.w	r0, [r5, #180]	; 0xb4
 8027df2:	6f1a      	ldr	r2, [r3, #112]	; 0x70
 8027df4:	4042      	eors	r2, r0
 8027df6:	f412 7f40 	tst.w	r2, #768	; 0x300
 8027dfa:	d00b      	beq.n	8027e14 <HAL_RCCEx_PeriphCLKConfig+0x48c>
 8027dfc:	6f1a      	ldr	r2, [r3, #112]	; 0x70
 8027dfe:	6f19      	ldr	r1, [r3, #112]	; 0x70
 8027e00:	f422 7240 	bic.w	r2, r2, #768	; 0x300
 8027e04:	f441 3180 	orr.w	r1, r1, #65536	; 0x10000
 8027e08:	6719      	str	r1, [r3, #112]	; 0x70
 8027e0a:	6f19      	ldr	r1, [r3, #112]	; 0x70
 8027e0c:	f421 3180 	bic.w	r1, r1, #65536	; 0x10000
 8027e10:	6719      	str	r1, [r3, #112]	; 0x70
 8027e12:	671a      	str	r2, [r3, #112]	; 0x70
 8027e14:	f5b0 7f80 	cmp.w	r0, #256	; 0x100
 8027e18:	d041      	beq.n	8027e9e <HAL_RCCEx_PeriphCLKConfig+0x516>
 8027e1a:	f8d5 30b4 	ldr.w	r3, [r5, #180]	; 0xb4
 8027e1e:	493a      	ldr	r1, [pc, #232]	; (8027f08 <HAL_RCCEx_PeriphCLKConfig+0x580>)
 8027e20:	f403 7240 	and.w	r2, r3, #768	; 0x300
 8027e24:	f5b2 7f40 	cmp.w	r2, #768	; 0x300
 8027e28:	d14a      	bne.n	8027ec0 <HAL_RCCEx_PeriphCLKConfig+0x538>
 8027e2a:	6908      	ldr	r0, [r1, #16]
 8027e2c:	4a38      	ldr	r2, [pc, #224]	; (8027f10 <HAL_RCCEx_PeriphCLKConfig+0x588>)
 8027e2e:	f420 507c 	bic.w	r0, r0, #16128	; 0x3f00
 8027e32:	ea02 1213 	and.w	r2, r2, r3, lsr #4
 8027e36:	4302      	orrs	r2, r0
 8027e38:	610a      	str	r2, [r1, #16]
 8027e3a:	f3c3 030b 	ubfx	r3, r3, #0, #12
 8027e3e:	4a32      	ldr	r2, [pc, #200]	; (8027f08 <HAL_RCCEx_PeriphCLKConfig+0x580>)
 8027e40:	6f11      	ldr	r1, [r2, #112]	; 0x70
 8027e42:	430b      	orrs	r3, r1
 8027e44:	6713      	str	r3, [r2, #112]	; 0x70
 8027e46:	e013      	b.n	8027e70 <HAL_RCCEx_PeriphCLKConfig+0x4e8>
 8027e48:	2102      	movs	r1, #2
 8027e4a:	f105 0008 	add.w	r0, r5, #8
 8027e4e:	f7ff fcab 	bl	80277a8 <RCCEx_PLL2_Config>
 8027e52:	4604      	mov	r4, r0
 8027e54:	e7b1      	b.n	8027dba <HAL_RCCEx_PeriphCLKConfig+0x432>
 8027e56:	2601      	movs	r6, #1
 8027e58:	4634      	mov	r4, r6
 8027e5a:	e7b7      	b.n	8027dcc <HAL_RCCEx_PeriphCLKConfig+0x444>
 8027e5c:	4626      	mov	r6, r4
 8027e5e:	e7b5      	b.n	8027dcc <HAL_RCCEx_PeriphCLKConfig+0x444>
 8027e60:	f7fe fc92 	bl	8026788 <HAL_GetTick>
 8027e64:	eba0 0008 	sub.w	r0, r0, r8
 8027e68:	2864      	cmp	r0, #100	; 0x64
 8027e6a:	d9ba      	bls.n	8027de2 <HAL_RCCEx_PeriphCLKConfig+0x45a>
 8027e6c:	2603      	movs	r6, #3
 8027e6e:	4634      	mov	r4, r6
 8027e70:	682b      	ldr	r3, [r5, #0]
 8027e72:	07d8      	lsls	r0, r3, #31
 8027e74:	d508      	bpl.n	8027e88 <HAL_RCCEx_PeriphCLKConfig+0x500>
 8027e76:	6feb      	ldr	r3, [r5, #124]	; 0x7c
 8027e78:	2b10      	cmp	r3, #16
 8027e7a:	d03d      	beq.n	8027ef8 <HAL_RCCEx_PeriphCLKConfig+0x570>
 8027e7c:	d826      	bhi.n	8027ecc <HAL_RCCEx_PeriphCLKConfig+0x544>
 8027e7e:	b35b      	cbz	r3, 8027ed8 <HAL_RCCEx_PeriphCLKConfig+0x550>
 8027e80:	2b08      	cmp	r3, #8
 8027e82:	d032      	beq.n	8027eea <HAL_RCCEx_PeriphCLKConfig+0x562>
 8027e84:	2601      	movs	r6, #1
 8027e86:	4634      	mov	r4, r6
 8027e88:	682b      	ldr	r3, [r5, #0]
 8027e8a:	0799      	lsls	r1, r3, #30
 8027e8c:	d550      	bpl.n	8027f30 <HAL_RCCEx_PeriphCLKConfig+0x5a8>
 8027e8e:	6fab      	ldr	r3, [r5, #120]	; 0x78
 8027e90:	2b05      	cmp	r3, #5
 8027e92:	d863      	bhi.n	8027f5c <HAL_RCCEx_PeriphCLKConfig+0x5d4>
 8027e94:	e8df f003 	tbb	[pc, r3]
 8027e98:	445c3e44 	.word	0x445c3e44
 8027e9c:	4444      	.short	0x4444
 8027e9e:	f7fe fc73 	bl	8026788 <HAL_GetTick>
 8027ea2:	f8df 8064 	ldr.w	r8, [pc, #100]	; 8027f08 <HAL_RCCEx_PeriphCLKConfig+0x580>
 8027ea6:	4607      	mov	r7, r0
 8027ea8:	f241 3988 	movw	r9, #5000	; 0x1388
 8027eac:	f8d8 3070 	ldr.w	r3, [r8, #112]	; 0x70
 8027eb0:	079b      	lsls	r3, r3, #30
 8027eb2:	d4b2      	bmi.n	8027e1a <HAL_RCCEx_PeriphCLKConfig+0x492>
 8027eb4:	f7fe fc68 	bl	8026788 <HAL_GetTick>
 8027eb8:	1bc0      	subs	r0, r0, r7
 8027eba:	4548      	cmp	r0, r9
 8027ebc:	d9f6      	bls.n	8027eac <HAL_RCCEx_PeriphCLKConfig+0x524>
 8027ebe:	e7d5      	b.n	8027e6c <HAL_RCCEx_PeriphCLKConfig+0x4e4>
 8027ec0:	690a      	ldr	r2, [r1, #16]
 8027ec2:	f422 527c 	bic.w	r2, r2, #16128	; 0x3f00
 8027ec6:	e7b7      	b.n	8027e38 <HAL_RCCEx_PeriphCLKConfig+0x4b0>
 8027ec8:	4626      	mov	r6, r4
 8027eca:	e7d1      	b.n	8027e70 <HAL_RCCEx_PeriphCLKConfig+0x4e8>
 8027ecc:	f023 0208 	bic.w	r2, r3, #8
 8027ed0:	2a20      	cmp	r2, #32
 8027ed2:	d001      	beq.n	8027ed8 <HAL_RCCEx_PeriphCLKConfig+0x550>
 8027ed4:	2b18      	cmp	r3, #24
 8027ed6:	d1d5      	bne.n	8027e84 <HAL_RCCEx_PeriphCLKConfig+0x4fc>
 8027ed8:	b9a4      	cbnz	r4, 8027f04 <HAL_RCCEx_PeriphCLKConfig+0x57c>
 8027eda:	4a0b      	ldr	r2, [pc, #44]	; (8027f08 <HAL_RCCEx_PeriphCLKConfig+0x580>)
 8027edc:	6fe9      	ldr	r1, [r5, #124]	; 0x7c
 8027ede:	6d53      	ldr	r3, [r2, #84]	; 0x54
 8027ee0:	f023 0338 	bic.w	r3, r3, #56	; 0x38
 8027ee4:	430b      	orrs	r3, r1
 8027ee6:	6553      	str	r3, [r2, #84]	; 0x54
 8027ee8:	e7ce      	b.n	8027e88 <HAL_RCCEx_PeriphCLKConfig+0x500>
 8027eea:	2101      	movs	r1, #1
 8027eec:	f105 0008 	add.w	r0, r5, #8
 8027ef0:	f7ff fc5a 	bl	80277a8 <RCCEx_PLL2_Config>
 8027ef4:	4604      	mov	r4, r0
 8027ef6:	e7ef      	b.n	8027ed8 <HAL_RCCEx_PeriphCLKConfig+0x550>
 8027ef8:	2101      	movs	r1, #1
 8027efa:	f105 0028 	add.w	r0, r5, #40	; 0x28
 8027efe:	f7ff fccb 	bl	8027898 <RCCEx_PLL3_Config>
 8027f02:	e7f7      	b.n	8027ef4 <HAL_RCCEx_PeriphCLKConfig+0x56c>
 8027f04:	4626      	mov	r6, r4
 8027f06:	e7bf      	b.n	8027e88 <HAL_RCCEx_PeriphCLKConfig+0x500>
 8027f08:	58024400 	.word	0x58024400
 8027f0c:	58024800 	.word	0x58024800
 8027f10:	00ffffcf 	.word	0x00ffffcf
 8027f14:	2101      	movs	r1, #1
 8027f16:	f105 0008 	add.w	r0, r5, #8
 8027f1a:	f7ff fc45 	bl	80277a8 <RCCEx_PLL2_Config>
 8027f1e:	4604      	mov	r4, r0
 8027f20:	b9fc      	cbnz	r4, 8027f62 <HAL_RCCEx_PeriphCLKConfig+0x5da>
 8027f22:	4a11      	ldr	r2, [pc, #68]	; (8027f68 <HAL_RCCEx_PeriphCLKConfig+0x5e0>)
 8027f24:	6fa9      	ldr	r1, [r5, #120]	; 0x78
 8027f26:	6d53      	ldr	r3, [r2, #84]	; 0x54
 8027f28:	f023 0307 	bic.w	r3, r3, #7
 8027f2c:	430b      	orrs	r3, r1
 8027f2e:	6553      	str	r3, [r2, #84]	; 0x54
 8027f30:	682b      	ldr	r3, [r5, #0]
 8027f32:	075a      	lsls	r2, r3, #29
 8027f34:	d52b      	bpl.n	8027f8e <HAL_RCCEx_PeriphCLKConfig+0x606>
 8027f36:	f8d5 3094 	ldr.w	r3, [r5, #148]	; 0x94
 8027f3a:	2b05      	cmp	r3, #5
 8027f3c:	f200 817c 	bhi.w	8028238 <HAL_RCCEx_PeriphCLKConfig+0x8b0>
 8027f40:	e8df f013 	tbh	[pc, r3, lsl #1]
 8027f44:	0014001a 	.word	0x0014001a
 8027f48:	001a0174 	.word	0x001a0174
 8027f4c:	001a001a 	.word	0x001a001a
 8027f50:	2101      	movs	r1, #1
 8027f52:	f105 0028 	add.w	r0, r5, #40	; 0x28
 8027f56:	f7ff fc9f 	bl	8027898 <RCCEx_PLL3_Config>
 8027f5a:	e7e0      	b.n	8027f1e <HAL_RCCEx_PeriphCLKConfig+0x596>
 8027f5c:	2601      	movs	r6, #1
 8027f5e:	4634      	mov	r4, r6
 8027f60:	e7e6      	b.n	8027f30 <HAL_RCCEx_PeriphCLKConfig+0x5a8>
 8027f62:	4626      	mov	r6, r4
 8027f64:	e7e4      	b.n	8027f30 <HAL_RCCEx_PeriphCLKConfig+0x5a8>
 8027f66:	bf00      	nop
 8027f68:	58024400 	.word	0x58024400
 8027f6c:	2101      	movs	r1, #1
 8027f6e:	f105 0008 	add.w	r0, r5, #8
 8027f72:	f7ff fc19 	bl	80277a8 <RCCEx_PLL2_Config>
 8027f76:	4604      	mov	r4, r0
 8027f78:	2c00      	cmp	r4, #0
 8027f7a:	f040 8160 	bne.w	802823e <HAL_RCCEx_PeriphCLKConfig+0x8b6>
 8027f7e:	4aaa      	ldr	r2, [pc, #680]	; (8028228 <HAL_RCCEx_PeriphCLKConfig+0x8a0>)
 8027f80:	f8d5 1094 	ldr.w	r1, [r5, #148]	; 0x94
 8027f84:	6d93      	ldr	r3, [r2, #88]	; 0x58
 8027f86:	f023 0307 	bic.w	r3, r3, #7
 8027f8a:	430b      	orrs	r3, r1
 8027f8c:	6593      	str	r3, [r2, #88]	; 0x58
 8027f8e:	682b      	ldr	r3, [r5, #0]
 8027f90:	069b      	lsls	r3, r3, #26
 8027f92:	d510      	bpl.n	8027fb6 <HAL_RCCEx_PeriphCLKConfig+0x62e>
 8027f94:	f8d5 3090 	ldr.w	r3, [r5, #144]	; 0x90
 8027f98:	f1b3 5f00 	cmp.w	r3, #536870912	; 0x20000000
 8027f9c:	f000 816b 	beq.w	8028276 <HAL_RCCEx_PeriphCLKConfig+0x8ee>
 8027fa0:	f200 814f 	bhi.w	8028242 <HAL_RCCEx_PeriphCLKConfig+0x8ba>
 8027fa4:	2b00      	cmp	r3, #0
 8027fa6:	f000 8155 	beq.w	8028254 <HAL_RCCEx_PeriphCLKConfig+0x8cc>
 8027faa:	f1b3 5f80 	cmp.w	r3, #268435456	; 0x10000000
 8027fae:	f000 815b 	beq.w	8028268 <HAL_RCCEx_PeriphCLKConfig+0x8e0>
 8027fb2:	2601      	movs	r6, #1
 8027fb4:	4634      	mov	r4, r6
 8027fb6:	682b      	ldr	r3, [r5, #0]
 8027fb8:	065f      	lsls	r7, r3, #25
 8027fba:	d510      	bpl.n	8027fde <HAL_RCCEx_PeriphCLKConfig+0x656>
 8027fbc:	f8d5 309c 	ldr.w	r3, [r5, #156]	; 0x9c
 8027fc0:	f5b3 6f00 	cmp.w	r3, #2048	; 0x800
 8027fc4:	f000 8179 	beq.w	80282ba <HAL_RCCEx_PeriphCLKConfig+0x932>
 8027fc8:	f200 815d 	bhi.w	8028286 <HAL_RCCEx_PeriphCLKConfig+0x8fe>
 8027fcc:	2b00      	cmp	r3, #0
 8027fce:	f000 8163 	beq.w	8028298 <HAL_RCCEx_PeriphCLKConfig+0x910>
 8027fd2:	f5b3 6f80 	cmp.w	r3, #1024	; 0x400
 8027fd6:	f000 8169 	beq.w	80282ac <HAL_RCCEx_PeriphCLKConfig+0x924>
 8027fda:	2601      	movs	r6, #1
 8027fdc:	4634      	mov	r4, r6
 8027fde:	682b      	ldr	r3, [r5, #0]
 8027fe0:	0618      	lsls	r0, r3, #24
 8027fe2:	d510      	bpl.n	8028006 <HAL_RCCEx_PeriphCLKConfig+0x67e>
 8027fe4:	f8d5 30a0 	ldr.w	r3, [r5, #160]	; 0xa0
 8027fe8:	f5b3 4f80 	cmp.w	r3, #16384	; 0x4000
 8027fec:	f000 8187 	beq.w	80282fe <HAL_RCCEx_PeriphCLKConfig+0x976>
 8027ff0:	f200 816b 	bhi.w	80282ca <HAL_RCCEx_PeriphCLKConfig+0x942>
 8027ff4:	2b00      	cmp	r3, #0
 8027ff6:	f000 8171 	beq.w	80282dc <HAL_RCCEx_PeriphCLKConfig+0x954>
 8027ffa:	f5b3 5f00 	cmp.w	r3, #8192	; 0x2000
 8027ffe:	f000 8177 	beq.w	80282f0 <HAL_RCCEx_PeriphCLKConfig+0x968>
 8028002:	2601      	movs	r6, #1
 8028004:	4634      	mov	r4, r6
 8028006:	682b      	ldr	r3, [r5, #0]
 8028008:	0719      	lsls	r1, r3, #28
 802800a:	d514      	bpl.n	8028036 <HAL_RCCEx_PeriphCLKConfig+0x6ae>
 802800c:	f8d5 3084 	ldr.w	r3, [r5, #132]	; 0x84
 8028010:	f5b3 5f80 	cmp.w	r3, #4096	; 0x1000
 8028014:	d107      	bne.n	8028026 <HAL_RCCEx_PeriphCLKConfig+0x69e>
 8028016:	2102      	movs	r1, #2
 8028018:	f105 0028 	add.w	r0, r5, #40	; 0x28
 802801c:	f7ff fc3c 	bl	8027898 <RCCEx_PLL3_Config>
 8028020:	2800      	cmp	r0, #0
 8028022:	bf18      	it	ne
 8028024:	2601      	movne	r6, #1
 8028026:	4a80      	ldr	r2, [pc, #512]	; (8028228 <HAL_RCCEx_PeriphCLKConfig+0x8a0>)
 8028028:	f8d5 1084 	ldr.w	r1, [r5, #132]	; 0x84
 802802c:	6d53      	ldr	r3, [r2, #84]	; 0x54
 802802e:	f423 5340 	bic.w	r3, r3, #12288	; 0x3000
 8028032:	430b      	orrs	r3, r1
 8028034:	6553      	str	r3, [r2, #84]	; 0x54
 8028036:	682b      	ldr	r3, [r5, #0]
 8028038:	06da      	lsls	r2, r3, #27
 802803a:	d514      	bpl.n	8028066 <HAL_RCCEx_PeriphCLKConfig+0x6de>
 802803c:	f8d5 3098 	ldr.w	r3, [r5, #152]	; 0x98
 8028040:	f5b3 7f80 	cmp.w	r3, #256	; 0x100
 8028044:	d107      	bne.n	8028056 <HAL_RCCEx_PeriphCLKConfig+0x6ce>
 8028046:	2102      	movs	r1, #2
 8028048:	f105 0028 	add.w	r0, r5, #40	; 0x28
 802804c:	f7ff fc24 	bl	8027898 <RCCEx_PLL3_Config>
 8028050:	2800      	cmp	r0, #0
 8028052:	bf18      	it	ne
 8028054:	2601      	movne	r6, #1
 8028056:	4a74      	ldr	r2, [pc, #464]	; (8028228 <HAL_RCCEx_PeriphCLKConfig+0x8a0>)
 8028058:	f8d5 1098 	ldr.w	r1, [r5, #152]	; 0x98
 802805c:	6d93      	ldr	r3, [r2, #88]	; 0x58
 802805e:	f423 7340 	bic.w	r3, r3, #768	; 0x300
 8028062:	430b      	orrs	r3, r1
 8028064:	6593      	str	r3, [r2, #88]	; 0x58
 8028066:	682b      	ldr	r3, [r5, #0]
 8028068:	031b      	lsls	r3, r3, #12
 802806a:	d51b      	bpl.n	80280a4 <HAL_RCCEx_PeriphCLKConfig+0x71c>
 802806c:	f8d5 10a4 	ldr.w	r1, [r5, #164]	; 0xa4
 8028070:	f5b1 3f80 	cmp.w	r1, #65536	; 0x10000
 8028074:	f000 814b 	beq.w	802830e <HAL_RCCEx_PeriphCLKConfig+0x986>
 8028078:	f5b1 3f00 	cmp.w	r1, #131072	; 0x20000
 802807c:	d007      	beq.n	802808e <HAL_RCCEx_PeriphCLKConfig+0x706>
 802807e:	2900      	cmp	r1, #0
 8028080:	f040 814b 	bne.w	802831a <HAL_RCCEx_PeriphCLKConfig+0x992>
 8028084:	f105 0008 	add.w	r0, r5, #8
 8028088:	f7ff fb8e 	bl	80277a8 <RCCEx_PLL2_Config>
 802808c:	4604      	mov	r4, r0
 802808e:	2c00      	cmp	r4, #0
 8028090:	f040 8146 	bne.w	8028320 <HAL_RCCEx_PeriphCLKConfig+0x998>
 8028094:	4a64      	ldr	r2, [pc, #400]	; (8028228 <HAL_RCCEx_PeriphCLKConfig+0x8a0>)
 8028096:	f8d5 10a4 	ldr.w	r1, [r5, #164]	; 0xa4
 802809a:	6d93      	ldr	r3, [r2, #88]	; 0x58
 802809c:	f423 3340 	bic.w	r3, r3, #196608	; 0x30000
 80280a0:	430b      	orrs	r3, r1
 80280a2:	6593      	str	r3, [r2, #88]	; 0x58
 80280a4:	682b      	ldr	r3, [r5, #0]
 80280a6:	035f      	lsls	r7, r3, #13
 80280a8:	d51c      	bpl.n	80280e4 <HAL_RCCEx_PeriphCLKConfig+0x75c>
 80280aa:	f8d5 3088 	ldr.w	r3, [r5, #136]	; 0x88
 80280ae:	f5b3 1f00 	cmp.w	r3, #2097152	; 0x200000
 80280b2:	f000 8137 	beq.w	8028324 <HAL_RCCEx_PeriphCLKConfig+0x99c>
 80280b6:	f5b3 1f40 	cmp.w	r3, #3145728	; 0x300000
 80280ba:	d008      	beq.n	80280ce <HAL_RCCEx_PeriphCLKConfig+0x746>
 80280bc:	f5b3 1f80 	cmp.w	r3, #1048576	; 0x100000
 80280c0:	f040 8137 	bne.w	8028332 <HAL_RCCEx_PeriphCLKConfig+0x9aa>
 80280c4:	4a58      	ldr	r2, [pc, #352]	; (8028228 <HAL_RCCEx_PeriphCLKConfig+0x8a0>)
 80280c6:	6ad3      	ldr	r3, [r2, #44]	; 0x2c
 80280c8:	f443 3300 	orr.w	r3, r3, #131072	; 0x20000
 80280cc:	62d3      	str	r3, [r2, #44]	; 0x2c
 80280ce:	2c00      	cmp	r4, #0
 80280d0:	f040 8132 	bne.w	8028338 <HAL_RCCEx_PeriphCLKConfig+0x9b0>
 80280d4:	4a54      	ldr	r2, [pc, #336]	; (8028228 <HAL_RCCEx_PeriphCLKConfig+0x8a0>)
 80280d6:	f8d5 1088 	ldr.w	r1, [r5, #136]	; 0x88
 80280da:	6d53      	ldr	r3, [r2, #84]	; 0x54
 80280dc:	f423 1340 	bic.w	r3, r3, #3145728	; 0x300000
 80280e0:	430b      	orrs	r3, r1
 80280e2:	6553      	str	r3, [r2, #84]	; 0x54
 80280e4:	682b      	ldr	r3, [r5, #0]
 80280e6:	03d8      	lsls	r0, r3, #15
 80280e8:	d509      	bpl.n	80280fe <HAL_RCCEx_PeriphCLKConfig+0x776>
 80280ea:	6d2b      	ldr	r3, [r5, #80]	; 0x50
 80280ec:	2b00      	cmp	r3, #0
 80280ee:	f000 8125 	beq.w	802833c <HAL_RCCEx_PeriphCLKConfig+0x9b4>
 80280f2:	f5b3 3f80 	cmp.w	r3, #65536	; 0x10000
 80280f6:	f000 812f 	beq.w	8028358 <HAL_RCCEx_PeriphCLKConfig+0x9d0>
 80280fa:	2601      	movs	r6, #1
 80280fc:	4634      	mov	r4, r6
 80280fe:	682b      	ldr	r3, [r5, #0]
 8028100:	0099      	lsls	r1, r3, #2
 8028102:	d507      	bpl.n	8028114 <HAL_RCCEx_PeriphCLKConfig+0x78c>
 8028104:	2102      	movs	r1, #2
 8028106:	f105 0028 	add.w	r0, r5, #40	; 0x28
 802810a:	f7ff fbc5 	bl	8027898 <RCCEx_PLL3_Config>
 802810e:	2800      	cmp	r0, #0
 8028110:	bf18      	it	ne
 8028112:	2601      	movne	r6, #1
 8028114:	e9d5 3100 	ldrd	r3, r1, [r5]
 8028118:	039a      	lsls	r2, r3, #14
 802811a:	d50b      	bpl.n	8028134 <HAL_RCCEx_PeriphCLKConfig+0x7ac>
 802811c:	f8d5 0080 	ldr.w	r0, [r5, #128]	; 0x80
 8028120:	f5b0 7f80 	cmp.w	r0, #256	; 0x100
 8028124:	f000 812f 	beq.w	8028386 <HAL_RCCEx_PeriphCLKConfig+0x9fe>
 8028128:	f200 811f 	bhi.w	802836a <HAL_RCCEx_PeriphCLKConfig+0x9e2>
 802812c:	2800      	cmp	r0, #0
 802812e:	f000 8122 	beq.w	8028376 <HAL_RCCEx_PeriphCLKConfig+0x9ee>
 8028132:	2601      	movs	r6, #1
 8028134:	02df      	lsls	r7, r3, #11
 8028136:	d506      	bpl.n	8028146 <HAL_RCCEx_PeriphCLKConfig+0x7be>
 8028138:	483b      	ldr	r0, [pc, #236]	; (8028228 <HAL_RCCEx_PeriphCLKConfig+0x8a0>)
 802813a:	6f6c      	ldr	r4, [r5, #116]	; 0x74
 802813c:	6d02      	ldr	r2, [r0, #80]	; 0x50
 802813e:	f022 4200 	bic.w	r2, r2, #2147483648	; 0x80000000
 8028142:	4322      	orrs	r2, r4
 8028144:	6502      	str	r2, [r0, #80]	; 0x50
 8028146:	00dc      	lsls	r4, r3, #3
 8028148:	d507      	bpl.n	802815a <HAL_RCCEx_PeriphCLKConfig+0x7d2>
 802814a:	4837      	ldr	r0, [pc, #220]	; (8028228 <HAL_RCCEx_PeriphCLKConfig+0x8a0>)
 802814c:	f8d5 40b8 	ldr.w	r4, [r5, #184]	; 0xb8
 8028150:	6902      	ldr	r2, [r0, #16]
 8028152:	f422 4280 	bic.w	r2, r2, #16384	; 0x4000
 8028156:	4322      	orrs	r2, r4
 8028158:	6102      	str	r2, [r0, #16]
 802815a:	0298      	lsls	r0, r3, #10
 802815c:	d506      	bpl.n	802816c <HAL_RCCEx_PeriphCLKConfig+0x7e4>
 802815e:	4832      	ldr	r0, [pc, #200]	; (8028228 <HAL_RCCEx_PeriphCLKConfig+0x8a0>)
 8028160:	6eec      	ldr	r4, [r5, #108]	; 0x6c
 8028162:	6d02      	ldr	r2, [r0, #80]	; 0x50
 8028164:	f022 7280 	bic.w	r2, r2, #16777216	; 0x1000000
 8028168:	4322      	orrs	r2, r4
 802816a:	6502      	str	r2, [r0, #80]	; 0x50
 802816c:	005a      	lsls	r2, r3, #1
 802816e:	d509      	bpl.n	8028184 <HAL_RCCEx_PeriphCLKConfig+0x7fc>
 8028170:	4a2d      	ldr	r2, [pc, #180]	; (8028228 <HAL_RCCEx_PeriphCLKConfig+0x8a0>)
 8028172:	6910      	ldr	r0, [r2, #16]
 8028174:	f420 4000 	bic.w	r0, r0, #32768	; 0x8000
 8028178:	6110      	str	r0, [r2, #16]
 802817a:	6910      	ldr	r0, [r2, #16]
 802817c:	f8d5 40bc 	ldr.w	r4, [r5, #188]	; 0xbc
 8028180:	4320      	orrs	r0, r4
 8028182:	6110      	str	r0, [r2, #16]
 8028184:	2b00      	cmp	r3, #0
 8028186:	da06      	bge.n	8028196 <HAL_RCCEx_PeriphCLKConfig+0x80e>
 8028188:	4827      	ldr	r0, [pc, #156]	; (8028228 <HAL_RCCEx_PeriphCLKConfig+0x8a0>)
 802818a:	6d6c      	ldr	r4, [r5, #84]	; 0x54
 802818c:	6cc2      	ldr	r2, [r0, #76]	; 0x4c
 802818e:	f022 5240 	bic.w	r2, r2, #805306368	; 0x30000000
 8028192:	4322      	orrs	r2, r4
 8028194:	64c2      	str	r2, [r0, #76]	; 0x4c
 8028196:	021b      	lsls	r3, r3, #8
 8028198:	d507      	bpl.n	80281aa <HAL_RCCEx_PeriphCLKConfig+0x822>
 802819a:	4a23      	ldr	r2, [pc, #140]	; (8028228 <HAL_RCCEx_PeriphCLKConfig+0x8a0>)
 802819c:	f8d5 008c 	ldr.w	r0, [r5, #140]	; 0x8c
 80281a0:	6d53      	ldr	r3, [r2, #84]	; 0x54
 80281a2:	f423 0340 	bic.w	r3, r3, #12582912	; 0xc00000
 80281a6:	4303      	orrs	r3, r0
 80281a8:	6553      	str	r3, [r2, #84]	; 0x54
 80281aa:	07cf      	lsls	r7, r1, #31
 80281ac:	d507      	bpl.n	80281be <HAL_RCCEx_PeriphCLKConfig+0x836>
 80281ae:	2100      	movs	r1, #0
 80281b0:	f105 0008 	add.w	r0, r5, #8
 80281b4:	f7ff faf8 	bl	80277a8 <RCCEx_PLL2_Config>
 80281b8:	2800      	cmp	r0, #0
 80281ba:	bf18      	it	ne
 80281bc:	4606      	movne	r6, r0
 80281be:	686b      	ldr	r3, [r5, #4]
 80281c0:	079c      	lsls	r4, r3, #30
 80281c2:	d507      	bpl.n	80281d4 <HAL_RCCEx_PeriphCLKConfig+0x84c>
 80281c4:	2101      	movs	r1, #1
 80281c6:	f105 0008 	add.w	r0, r5, #8
 80281ca:	f7ff faed 	bl	80277a8 <RCCEx_PLL2_Config>
 80281ce:	2800      	cmp	r0, #0
 80281d0:	bf18      	it	ne
 80281d2:	4606      	movne	r6, r0
 80281d4:	686b      	ldr	r3, [r5, #4]
 80281d6:	0758      	lsls	r0, r3, #29
 80281d8:	d507      	bpl.n	80281ea <HAL_RCCEx_PeriphCLKConfig+0x862>
 80281da:	2102      	movs	r1, #2
 80281dc:	f105 0008 	add.w	r0, r5, #8
 80281e0:	f7ff fae2 	bl	80277a8 <RCCEx_PLL2_Config>
 80281e4:	2800      	cmp	r0, #0
 80281e6:	bf18      	it	ne
 80281e8:	4606      	movne	r6, r0
 80281ea:	686b      	ldr	r3, [r5, #4]
 80281ec:	0719      	lsls	r1, r3, #28
 80281ee:	d507      	bpl.n	8028200 <HAL_RCCEx_PeriphCLKConfig+0x878>
 80281f0:	2100      	movs	r1, #0
 80281f2:	f105 0028 	add.w	r0, r5, #40	; 0x28
 80281f6:	f7ff fb4f 	bl	8027898 <RCCEx_PLL3_Config>
 80281fa:	2800      	cmp	r0, #0
 80281fc:	bf18      	it	ne
 80281fe:	4606      	movne	r6, r0
 8028200:	686b      	ldr	r3, [r5, #4]
 8028202:	06da      	lsls	r2, r3, #27
 8028204:	d507      	bpl.n	8028216 <HAL_RCCEx_PeriphCLKConfig+0x88e>
 8028206:	2101      	movs	r1, #1
 8028208:	f105 0028 	add.w	r0, r5, #40	; 0x28
 802820c:	f7ff fb44 	bl	8027898 <RCCEx_PLL3_Config>
 8028210:	2800      	cmp	r0, #0
 8028212:	bf18      	it	ne
 8028214:	4606      	movne	r6, r0
 8028216:	686b      	ldr	r3, [r5, #4]
 8028218:	069b      	lsls	r3, r3, #26
 802821a:	f100 80bc 	bmi.w	8028396 <HAL_RCCEx_PeriphCLKConfig+0xa0e>
 802821e:	1e30      	subs	r0, r6, #0
 8028220:	bf18      	it	ne
 8028222:	2001      	movne	r0, #1
 8028224:	e8bd 83f8 	ldmia.w	sp!, {r3, r4, r5, r6, r7, r8, r9, pc}
 8028228:	58024400 	.word	0x58024400
 802822c:	2101      	movs	r1, #1
 802822e:	f105 0028 	add.w	r0, r5, #40	; 0x28
 8028232:	f7ff fb31 	bl	8027898 <RCCEx_PLL3_Config>
 8028236:	e69e      	b.n	8027f76 <HAL_RCCEx_PeriphCLKConfig+0x5ee>
 8028238:	2601      	movs	r6, #1
 802823a:	4634      	mov	r4, r6
 802823c:	e6a7      	b.n	8027f8e <HAL_RCCEx_PeriphCLKConfig+0x606>
 802823e:	4626      	mov	r6, r4
 8028240:	e6a5      	b.n	8027f8e <HAL_RCCEx_PeriphCLKConfig+0x606>
 8028242:	f023 5280 	bic.w	r2, r3, #268435456	; 0x10000000
 8028246:	f1b2 4f80 	cmp.w	r2, #1073741824	; 0x40000000
 802824a:	d003      	beq.n	8028254 <HAL_RCCEx_PeriphCLKConfig+0x8cc>
 802824c:	f1b3 5f40 	cmp.w	r3, #805306368	; 0x30000000
 8028250:	f47f aeaf 	bne.w	8027fb2 <HAL_RCCEx_PeriphCLKConfig+0x62a>
 8028254:	b9ac      	cbnz	r4, 8028282 <HAL_RCCEx_PeriphCLKConfig+0x8fa>
 8028256:	4a55      	ldr	r2, [pc, #340]	; (80283ac <HAL_RCCEx_PeriphCLKConfig+0xa24>)
 8028258:	f8d5 1090 	ldr.w	r1, [r5, #144]	; 0x90
 802825c:	6d53      	ldr	r3, [r2, #84]	; 0x54
 802825e:	f023 43e0 	bic.w	r3, r3, #1879048192	; 0x70000000
 8028262:	430b      	orrs	r3, r1
 8028264:	6553      	str	r3, [r2, #84]	; 0x54
 8028266:	e6a6      	b.n	8027fb6 <HAL_RCCEx_PeriphCLKConfig+0x62e>
 8028268:	2100      	movs	r1, #0
 802826a:	f105 0008 	add.w	r0, r5, #8
 802826e:	f7ff fa9b 	bl	80277a8 <RCCEx_PLL2_Config>
 8028272:	4604      	mov	r4, r0
 8028274:	e7ee      	b.n	8028254 <HAL_RCCEx_PeriphCLKConfig+0x8cc>
 8028276:	2102      	movs	r1, #2
 8028278:	f105 0028 	add.w	r0, r5, #40	; 0x28
 802827c:	f7ff fb0c 	bl	8027898 <RCCEx_PLL3_Config>
 8028280:	e7f7      	b.n	8028272 <HAL_RCCEx_PeriphCLKConfig+0x8ea>
 8028282:	4626      	mov	r6, r4
 8028284:	e697      	b.n	8027fb6 <HAL_RCCEx_PeriphCLKConfig+0x62e>
 8028286:	f423 6280 	bic.w	r2, r3, #1024	; 0x400
 802828a:	f5b2 5f80 	cmp.w	r2, #4096	; 0x1000
 802828e:	d003      	beq.n	8028298 <HAL_RCCEx_PeriphCLKConfig+0x910>
 8028290:	f5b3 6f40 	cmp.w	r3, #3072	; 0xc00
 8028294:	f47f aea1 	bne.w	8027fda <HAL_RCCEx_PeriphCLKConfig+0x652>
 8028298:	b9ac      	cbnz	r4, 80282c6 <HAL_RCCEx_PeriphCLKConfig+0x93e>
 802829a:	4a44      	ldr	r2, [pc, #272]	; (80283ac <HAL_RCCEx_PeriphCLKConfig+0xa24>)
 802829c:	f8d5 109c 	ldr.w	r1, [r5, #156]	; 0x9c
 80282a0:	6d93      	ldr	r3, [r2, #88]	; 0x58
 80282a2:	f423 53e0 	bic.w	r3, r3, #7168	; 0x1c00
 80282a6:	430b      	orrs	r3, r1
 80282a8:	6593      	str	r3, [r2, #88]	; 0x58
 80282aa:	e698      	b.n	8027fde <HAL_RCCEx_PeriphCLKConfig+0x656>
 80282ac:	2100      	movs	r1, #0
 80282ae:	f105 0008 	add.w	r0, r5, #8
 80282b2:	f7ff fa79 	bl	80277a8 <RCCEx_PLL2_Config>
 80282b6:	4604      	mov	r4, r0
 80282b8:	e7ee      	b.n	8028298 <HAL_RCCEx_PeriphCLKConfig+0x910>
 80282ba:	2102      	movs	r1, #2
 80282bc:	f105 0028 	add.w	r0, r5, #40	; 0x28
 80282c0:	f7ff faea 	bl	8027898 <RCCEx_PLL3_Config>
 80282c4:	e7f7      	b.n	80282b6 <HAL_RCCEx_PeriphCLKConfig+0x92e>
 80282c6:	4626      	mov	r6, r4
 80282c8:	e689      	b.n	8027fde <HAL_RCCEx_PeriphCLKConfig+0x656>
 80282ca:	f423 5200 	bic.w	r2, r3, #8192	; 0x2000
 80282ce:	f5b2 4f00 	cmp.w	r2, #32768	; 0x8000
 80282d2:	d003      	beq.n	80282dc <HAL_RCCEx_PeriphCLKConfig+0x954>
 80282d4:	f5b3 4fc0 	cmp.w	r3, #24576	; 0x6000
 80282d8:	f47f ae93 	bne.w	8028002 <HAL_RCCEx_PeriphCLKConfig+0x67a>
 80282dc:	b9ac      	cbnz	r4, 802830a <HAL_RCCEx_PeriphCLKConfig+0x982>
 80282de:	4a33      	ldr	r2, [pc, #204]	; (80283ac <HAL_RCCEx_PeriphCLKConfig+0xa24>)
 80282e0:	f8d5 10a0 	ldr.w	r1, [r5, #160]	; 0xa0
 80282e4:	6d93      	ldr	r3, [r2, #88]	; 0x58
 80282e6:	f423 4360 	bic.w	r3, r3, #57344	; 0xe000
 80282ea:	430b      	orrs	r3, r1
 80282ec:	6593      	str	r3, [r2, #88]	; 0x58
 80282ee:	e68a      	b.n	8028006 <HAL_RCCEx_PeriphCLKConfig+0x67e>
 80282f0:	2100      	movs	r1, #0
 80282f2:	f105 0008 	add.w	r0, r5, #8
 80282f6:	f7ff fa57 	bl	80277a8 <RCCEx_PLL2_Config>
 80282fa:	4604      	mov	r4, r0
 80282fc:	e7ee      	b.n	80282dc <HAL_RCCEx_PeriphCLKConfig+0x954>
 80282fe:	2102      	movs	r1, #2
 8028300:	f105 0028 	add.w	r0, r5, #40	; 0x28
 8028304:	f7ff fac8 	bl	8027898 <RCCEx_PLL3_Config>
 8028308:	e7f7      	b.n	80282fa <HAL_RCCEx_PeriphCLKConfig+0x972>
 802830a:	4626      	mov	r6, r4
 802830c:	e67b      	b.n	8028006 <HAL_RCCEx_PeriphCLKConfig+0x67e>
 802830e:	2102      	movs	r1, #2
 8028310:	f105 0028 	add.w	r0, r5, #40	; 0x28
 8028314:	f7ff fac0 	bl	8027898 <RCCEx_PLL3_Config>
 8028318:	e6b8      	b.n	802808c <HAL_RCCEx_PeriphCLKConfig+0x704>
 802831a:	2601      	movs	r6, #1
 802831c:	4634      	mov	r4, r6
 802831e:	e6c1      	b.n	80280a4 <HAL_RCCEx_PeriphCLKConfig+0x71c>
 8028320:	4626      	mov	r6, r4
 8028322:	e6bf      	b.n	80280a4 <HAL_RCCEx_PeriphCLKConfig+0x71c>
 8028324:	2101      	movs	r1, #1
 8028326:	f105 0028 	add.w	r0, r5, #40	; 0x28
 802832a:	f7ff fab5 	bl	8027898 <RCCEx_PLL3_Config>
 802832e:	4604      	mov	r4, r0
 8028330:	e6cd      	b.n	80280ce <HAL_RCCEx_PeriphCLKConfig+0x746>
 8028332:	2601      	movs	r6, #1
 8028334:	4634      	mov	r4, r6
 8028336:	e6d5      	b.n	80280e4 <HAL_RCCEx_PeriphCLKConfig+0x75c>
 8028338:	4626      	mov	r6, r4
 802833a:	e6d3      	b.n	80280e4 <HAL_RCCEx_PeriphCLKConfig+0x75c>
 802833c:	4a1b      	ldr	r2, [pc, #108]	; (80283ac <HAL_RCCEx_PeriphCLKConfig+0xa24>)
 802833e:	6ad3      	ldr	r3, [r2, #44]	; 0x2c
 8028340:	f443 3300 	orr.w	r3, r3, #131072	; 0x20000
 8028344:	62d3      	str	r3, [r2, #44]	; 0x2c
 8028346:	b974      	cbnz	r4, 8028366 <HAL_RCCEx_PeriphCLKConfig+0x9de>
 8028348:	4a18      	ldr	r2, [pc, #96]	; (80283ac <HAL_RCCEx_PeriphCLKConfig+0xa24>)
 802834a:	6d29      	ldr	r1, [r5, #80]	; 0x50
 802834c:	6cd3      	ldr	r3, [r2, #76]	; 0x4c
 802834e:	f423 3380 	bic.w	r3, r3, #65536	; 0x10000
 8028352:	430b      	orrs	r3, r1
 8028354:	64d3      	str	r3, [r2, #76]	; 0x4c
 8028356:	e6d2      	b.n	80280fe <HAL_RCCEx_PeriphCLKConfig+0x776>
 8028358:	2102      	movs	r1, #2
 802835a:	f105 0008 	add.w	r0, r5, #8
 802835e:	f7ff fa23 	bl	80277a8 <RCCEx_PLL2_Config>
 8028362:	4604      	mov	r4, r0
 8028364:	e7ef      	b.n	8028346 <HAL_RCCEx_PeriphCLKConfig+0x9be>
 8028366:	4626      	mov	r6, r4
 8028368:	e6c9      	b.n	80280fe <HAL_RCCEx_PeriphCLKConfig+0x776>
 802836a:	f420 7280 	bic.w	r2, r0, #256	; 0x100
 802836e:	f5b2 7f00 	cmp.w	r2, #512	; 0x200
 8028372:	f47f aede 	bne.w	8028132 <HAL_RCCEx_PeriphCLKConfig+0x7aa>
 8028376:	b964      	cbnz	r4, 8028392 <HAL_RCCEx_PeriphCLKConfig+0xa0a>
 8028378:	4c0c      	ldr	r4, [pc, #48]	; (80283ac <HAL_RCCEx_PeriphCLKConfig+0xa24>)
 802837a:	6d62      	ldr	r2, [r4, #84]	; 0x54
 802837c:	f422 7240 	bic.w	r2, r2, #768	; 0x300
 8028380:	4302      	orrs	r2, r0
 8028382:	6562      	str	r2, [r4, #84]	; 0x54
 8028384:	e6d6      	b.n	8028134 <HAL_RCCEx_PeriphCLKConfig+0x7ac>
 8028386:	4f09      	ldr	r7, [pc, #36]	; (80283ac <HAL_RCCEx_PeriphCLKConfig+0xa24>)
 8028388:	6afa      	ldr	r2, [r7, #44]	; 0x2c
 802838a:	f442 3200 	orr.w	r2, r2, #131072	; 0x20000
 802838e:	62fa      	str	r2, [r7, #44]	; 0x2c
 8028390:	e7f1      	b.n	8028376 <HAL_RCCEx_PeriphCLKConfig+0x9ee>
 8028392:	4626      	mov	r6, r4
 8028394:	e6ce      	b.n	8028134 <HAL_RCCEx_PeriphCLKConfig+0x7ac>
 8028396:	2102      	movs	r1, #2
 8028398:	f105 0028 	add.w	r0, r5, #40	; 0x28
 802839c:	f7ff fa7c 	bl	8027898 <RCCEx_PLL3_Config>
 80283a0:	2800      	cmp	r0, #0
 80283a2:	f43f af3c 	beq.w	802821e <HAL_RCCEx_PeriphCLKConfig+0x896>
 80283a6:	2001      	movs	r0, #1
 80283a8:	e73c      	b.n	8028224 <HAL_RCCEx_PeriphCLKConfig+0x89c>
 80283aa:	bf00      	nop
 80283ac:	58024400 	.word	0x58024400

080283b0 <HAL_RCCEx_GetD3PCLK1Freq>:
 80283b0:	b508      	push	{r3, lr}
 80283b2:	f7ff f9b3 	bl	802771c <HAL_RCC_GetHCLKFreq>
 80283b6:	4b05      	ldr	r3, [pc, #20]	; (80283cc <HAL_RCCEx_GetD3PCLK1Freq+0x1c>)
 80283b8:	4a05      	ldr	r2, [pc, #20]	; (80283d0 <HAL_RCCEx_GetD3PCLK1Freq+0x20>)
 80283ba:	6a1b      	ldr	r3, [r3, #32]
 80283bc:	f3c3 1302 	ubfx	r3, r3, #4, #3
 80283c0:	5cd3      	ldrb	r3, [r2, r3]
 80283c2:	f003 031f 	and.w	r3, r3, #31
 80283c6:	40d8      	lsrs	r0, r3
 80283c8:	bd08      	pop	{r3, pc}
 80283ca:	bf00      	nop
 80283cc:	58024400 	.word	0x58024400
 80283d0:	0802be70 	.word	0x0802be70

080283d4 <HAL_RCCEx_GetPLL2ClockFreq>:
 80283d4:	4a4e      	ldr	r2, [pc, #312]	; (8028510 <HAL_RCCEx_GetPLL2ClockFreq+0x13c>)
 80283d6:	b570      	push	{r4, r5, r6, lr}
 80283d8:	6a94      	ldr	r4, [r2, #40]	; 0x28
 80283da:	6a96      	ldr	r6, [r2, #40]	; 0x28
 80283dc:	6ad5      	ldr	r5, [r2, #44]	; 0x2c
 80283de:	f416 3f7c 	tst.w	r6, #258048	; 0x3f000
 80283e2:	f3c6 3105 	ubfx	r1, r6, #12, #6
 80283e6:	6bd3      	ldr	r3, [r2, #60]	; 0x3c
 80283e8:	f000 808d 	beq.w	8028506 <HAL_RCCEx_GetPLL2ClockFreq+0x132>
 80283ec:	ee07 1a90 	vmov	s15, r1
 80283f0:	f3c3 03cc 	ubfx	r3, r3, #3, #13
 80283f4:	f3c5 1100 	ubfx	r1, r5, #4, #1
 80283f8:	f004 0403 	and.w	r4, r4, #3
 80283fc:	eef8 6ae7 	vcvt.f32.s32	s13, s15
 8028400:	434b      	muls	r3, r1
 8028402:	2c01      	cmp	r4, #1
 8028404:	eeb7 6a00 	vmov.f32	s12, #112	; 0x3f800000  1.0
 8028408:	ee07 3a90 	vmov	s15, r3
 802840c:	eefa 7ae9 	vcvt.f32.s32	s15, s15, #13
 8028410:	d06b      	beq.n	80284ea <HAL_RCCEx_GetPLL2ClockFreq+0x116>
 8028412:	2c02      	cmp	r4, #2
 8028414:	d05b      	beq.n	80284ce <HAL_RCCEx_GetPLL2ClockFreq+0xfa>
 8028416:	2c00      	cmp	r4, #0
 8028418:	d167      	bne.n	80284ea <HAL_RCCEx_GetPLL2ClockFreq+0x116>
 802841a:	6813      	ldr	r3, [r2, #0]
 802841c:	069b      	lsls	r3, r3, #26
 802841e:	d546      	bpl.n	80284ae <HAL_RCCEx_GetPLL2ClockFreq+0xda>
 8028420:	6811      	ldr	r1, [r2, #0]
 8028422:	6b93      	ldr	r3, [r2, #56]	; 0x38
 8028424:	f3c1 01c1 	ubfx	r1, r1, #3, #2
 8028428:	4a3a      	ldr	r2, [pc, #232]	; (8028514 <HAL_RCCEx_GetPLL2ClockFreq+0x140>)
 802842a:	f3c3 0308 	ubfx	r3, r3, #0, #9
 802842e:	40ca      	lsrs	r2, r1
 8028430:	ee07 2a10 	vmov	s14, r2
 8028434:	eef8 5ac7 	vcvt.f32.s32	s11, s14
 8028438:	ee85 7aa6 	vdiv.f32	s14, s11, s13
 802843c:	ee06 3a90 	vmov	s13, r3
 8028440:	eef8 6ae6 	vcvt.f32.s32	s13, s13
 8028444:	ee76 7aa7 	vadd.f32	s15, s13, s15
 8028448:	ee77 7a86 	vadd.f32	s15, s15, s12
 802844c:	4a30      	ldr	r2, [pc, #192]	; (8028510 <HAL_RCCEx_GetPLL2ClockFreq+0x13c>)
 802844e:	ee67 7a87 	vmul.f32	s15, s15, s14
 8028452:	6b93      	ldr	r3, [r2, #56]	; 0x38
 8028454:	f3c3 2346 	ubfx	r3, r3, #9, #7
 8028458:	ee07 3a10 	vmov	s14, r3
 802845c:	eeb8 7ac7 	vcvt.f32.s32	s14, s14
 8028460:	ee37 7a06 	vadd.f32	s14, s14, s12
 8028464:	eec7 6a87 	vdiv.f32	s13, s15, s14
 8028468:	eefc 6ae6 	vcvt.u32.f32	s13, s13
 802846c:	edc0 6a00 	vstr	s13, [r0]
 8028470:	6b93      	ldr	r3, [r2, #56]	; 0x38
 8028472:	f3c3 4306 	ubfx	r3, r3, #16, #7
 8028476:	ee07 3a10 	vmov	s14, r3
 802847a:	eeb8 7ac7 	vcvt.f32.s32	s14, s14
 802847e:	ee37 7a06 	vadd.f32	s14, s14, s12
 8028482:	eec7 6a87 	vdiv.f32	s13, s15, s14
 8028486:	eefc 6ae6 	vcvt.u32.f32	s13, s13
 802848a:	edc0 6a01 	vstr	s13, [r0, #4]
 802848e:	6b93      	ldr	r3, [r2, #56]	; 0x38
 8028490:	f3c3 6306 	ubfx	r3, r3, #24, #7
 8028494:	ee07 3a10 	vmov	s14, r3
 8028498:	eeb8 7ac7 	vcvt.f32.s32	s14, s14
 802849c:	ee37 6a06 	vadd.f32	s12, s14, s12
 80284a0:	ee87 7a86 	vdiv.f32	s14, s15, s12
 80284a4:	eebc 7ac7 	vcvt.u32.f32	s14, s14
 80284a8:	ed80 7a02 	vstr	s14, [r0, #8]
 80284ac:	bd70      	pop	{r4, r5, r6, pc}
 80284ae:	6b93      	ldr	r3, [r2, #56]	; 0x38
 80284b0:	eddf 5a19 	vldr	s11, [pc, #100]	; 8028518 <HAL_RCCEx_GetPLL2ClockFreq+0x144>
 80284b4:	f3c3 0308 	ubfx	r3, r3, #0, #9
 80284b8:	ee07 3a10 	vmov	s14, r3
 80284bc:	eeb8 7ac7 	vcvt.f32.s32	s14, s14
 80284c0:	ee77 7a27 	vadd.f32	s15, s14, s15
 80284c4:	ee77 7a86 	vadd.f32	s15, s15, s12
 80284c8:	ee85 7aa6 	vdiv.f32	s14, s11, s13
 80284cc:	e7be      	b.n	802844c <HAL_RCCEx_GetPLL2ClockFreq+0x78>
 80284ce:	6b93      	ldr	r3, [r2, #56]	; 0x38
 80284d0:	eddf 5a12 	vldr	s11, [pc, #72]	; 802851c <HAL_RCCEx_GetPLL2ClockFreq+0x148>
 80284d4:	f3c3 0308 	ubfx	r3, r3, #0, #9
 80284d8:	ee07 3a10 	vmov	s14, r3
 80284dc:	eeb8 7ac7 	vcvt.f32.s32	s14, s14
 80284e0:	ee77 7a27 	vadd.f32	s15, s14, s15
 80284e4:	ee77 7a86 	vadd.f32	s15, s15, s12
 80284e8:	e7ee      	b.n	80284c8 <HAL_RCCEx_GetPLL2ClockFreq+0xf4>
 80284ea:	6b93      	ldr	r3, [r2, #56]	; 0x38
 80284ec:	eddf 5a0c 	vldr	s11, [pc, #48]	; 8028520 <HAL_RCCEx_GetPLL2ClockFreq+0x14c>
 80284f0:	f3c3 0308 	ubfx	r3, r3, #0, #9
 80284f4:	ee07 3a10 	vmov	s14, r3
 80284f8:	eeb8 7ac7 	vcvt.f32.s32	s14, s14
 80284fc:	ee77 7a27 	vadd.f32	s15, s14, s15
 8028500:	ee77 7a86 	vadd.f32	s15, s15, s12
 8028504:	e7e0      	b.n	80284c8 <HAL_RCCEx_GetPLL2ClockFreq+0xf4>
 8028506:	e9c0 1100 	strd	r1, r1, [r0]
 802850a:	6081      	str	r1, [r0, #8]
 802850c:	e7ce      	b.n	80284ac <HAL_RCCEx_GetPLL2ClockFreq+0xd8>
 802850e:	bf00      	nop
 8028510:	58024400 	.word	0x58024400
 8028514:	03d09000 	.word	0x03d09000
 8028518:	4c742400 	.word	0x4c742400
 802851c:	4bbebc20 	.word	0x4bbebc20
 8028520:	4a742400 	.word	0x4a742400

08028524 <HAL_RCCEx_GetPLL3ClockFreq>:
 8028524:	4a4e      	ldr	r2, [pc, #312]	; (8028660 <HAL_RCCEx_GetPLL3ClockFreq+0x13c>)
 8028526:	b570      	push	{r4, r5, r6, lr}
 8028528:	6a94      	ldr	r4, [r2, #40]	; 0x28
 802852a:	6a96      	ldr	r6, [r2, #40]	; 0x28
 802852c:	6ad5      	ldr	r5, [r2, #44]	; 0x2c
 802852e:	f016 7f7c 	tst.w	r6, #66060288	; 0x3f00000
 8028532:	f3c6 5105 	ubfx	r1, r6, #20, #6
 8028536:	6c53      	ldr	r3, [r2, #68]	; 0x44
 8028538:	f000 808d 	beq.w	8028656 <HAL_RCCEx_GetPLL3ClockFreq+0x132>
 802853c:	ee07 1a90 	vmov	s15, r1
 8028540:	f3c3 03cc 	ubfx	r3, r3, #3, #13
 8028544:	f3c5 2100 	ubfx	r1, r5, #8, #1
 8028548:	f004 0403 	and.w	r4, r4, #3
 802854c:	eef8 6ae7 	vcvt.f32.s32	s13, s15
 8028550:	434b      	muls	r3, r1
 8028552:	2c01      	cmp	r4, #1
 8028554:	eeb7 6a00 	vmov.f32	s12, #112	; 0x3f800000  1.0
 8028558:	ee07 3a90 	vmov	s15, r3
 802855c:	eefa 7ae9 	vcvt.f32.s32	s15, s15, #13
 8028560:	d06b      	beq.n	802863a <HAL_RCCEx_GetPLL3ClockFreq+0x116>
 8028562:	2c02      	cmp	r4, #2
 8028564:	d05b      	beq.n	802861e <HAL_RCCEx_GetPLL3ClockFreq+0xfa>
 8028566:	2c00      	cmp	r4, #0
 8028568:	d167      	bne.n	802863a <HAL_RCCEx_GetPLL3ClockFreq+0x116>
 802856a:	6813      	ldr	r3, [r2, #0]
 802856c:	069b      	lsls	r3, r3, #26
 802856e:	d546      	bpl.n	80285fe <HAL_RCCEx_GetPLL3ClockFreq+0xda>
 8028570:	6811      	ldr	r1, [r2, #0]
 8028572:	6c13      	ldr	r3, [r2, #64]	; 0x40
 8028574:	f3c1 01c1 	ubfx	r1, r1, #3, #2
 8028578:	4a3a      	ldr	r2, [pc, #232]	; (8028664 <HAL_RCCEx_GetPLL3ClockFreq+0x140>)
 802857a:	f3c3 0308 	ubfx	r3, r3, #0, #9
 802857e:	40ca      	lsrs	r2, r1
 8028580:	ee07 2a10 	vmov	s14, r2
 8028584:	eef8 5ac7 	vcvt.f32.s32	s11, s14
 8028588:	ee85 7aa6 	vdiv.f32	s14, s11, s13
 802858c:	ee06 3a90 	vmov	s13, r3
 8028590:	eef8 6ae6 	vcvt.f32.s32	s13, s13
 8028594:	ee76 7aa7 	vadd.f32	s15, s13, s15
 8028598:	ee77 7a86 	vadd.f32	s15, s15, s12
 802859c:	4a30      	ldr	r2, [pc, #192]	; (8028660 <HAL_RCCEx_GetPLL3ClockFreq+0x13c>)
 802859e:	ee67 7a87 	vmul.f32	s15, s15, s14
 80285a2:	6c13      	ldr	r3, [r2, #64]	; 0x40
 80285a4:	f3c3 2346 	ubfx	r3, r3, #9, #7
 80285a8:	ee07 3a10 	vmov	s14, r3
 80285ac:	eeb8 7ac7 	vcvt.f32.s32	s14, s14
 80285b0:	ee37 7a06 	vadd.f32	s14, s14, s12
 80285b4:	eec7 6a87 	vdiv.f32	s13, s15, s14
 80285b8:	eefc 6ae6 	vcvt.u32.f32	s13, s13
 80285bc:	edc0 6a00 	vstr	s13, [r0]
 80285c0:	6c13      	ldr	r3, [r2, #64]	; 0x40
 80285c2:	f3c3 4306 	ubfx	r3, r3, #16, #7
 80285c6:	ee07 3a10 	vmov	s14, r3
 80285ca:	eeb8 7ac7 	vcvt.f32.s32	s14, s14
 80285ce:	ee37 7a06 	vadd.f32	s14, s14, s12
 80285d2:	eec7 6a87 	vdiv.f32	s13, s15, s14
 80285d6:	eefc 6ae6 	vcvt.u32.f32	s13, s13
 80285da:	edc0 6a01 	vstr	s13, [r0, #4]
 80285de:	6c13      	ldr	r3, [r2, #64]	; 0x40
 80285e0:	f3c3 6306 	ubfx	r3, r3, #24, #7
 80285e4:	ee07 3a10 	vmov	s14, r3
 80285e8:	eeb8 7ac7 	vcvt.f32.s32	s14, s14
 80285ec:	ee37 6a06 	vadd.f32	s12, s14, s12
 80285f0:	ee87 7a86 	vdiv.f32	s14, s15, s12
 80285f4:	eebc 7ac7 	vcvt.u32.f32	s14, s14
 80285f8:	ed80 7a02 	vstr	s14, [r0, #8]
 80285fc:	bd70      	pop	{r4, r5, r6, pc}
 80285fe:	6c13      	ldr	r3, [r2, #64]	; 0x40
 8028600:	eddf 5a19 	vldr	s11, [pc, #100]	; 8028668 <HAL_RCCEx_GetPLL3ClockFreq+0x144>
 8028604:	f3c3 0308 	ubfx	r3, r3, #0, #9
 8028608:	ee07 3a10 	vmov	s14, r3
 802860c:	eeb8 7ac7 	vcvt.f32.s32	s14, s14
 8028610:	ee77 7a27 	vadd.f32	s15, s14, s15
 8028614:	ee77 7a86 	vadd.f32	s15, s15, s12
 8028618:	ee85 7aa6 	vdiv.f32	s14, s11, s13
 802861c:	e7be      	b.n	802859c <HAL_RCCEx_GetPLL3ClockFreq+0x78>
 802861e:	6c13      	ldr	r3, [r2, #64]	; 0x40
 8028620:	eddf 5a12 	vldr	s11, [pc, #72]	; 802866c <HAL_RCCEx_GetPLL3ClockFreq+0x148>
 8028624:	f3c3 0308 	ubfx	r3, r3, #0, #9
 8028628:	ee07 3a10 	vmov	s14, r3
 802862c:	eeb8 7ac7 	vcvt.f32.s32	s14, s14
 8028630:	ee77 7a27 	vadd.f32	s15, s14, s15
 8028634:	ee77 7a86 	vadd.f32	s15, s15, s12
 8028638:	e7ee      	b.n	8028618 <HAL_RCCEx_GetPLL3ClockFreq+0xf4>
 802863a:	6c13      	ldr	r3, [r2, #64]	; 0x40
 802863c:	eddf 5a0c 	vldr	s11, [pc, #48]	; 8028670 <HAL_RCCEx_GetPLL3ClockFreq+0x14c>
 8028640:	f3c3 0308 	ubfx	r3, r3, #0, #9
 8028644:	ee07 3a10 	vmov	s14, r3
 8028648:	eeb8 7ac7 	vcvt.f32.s32	s14, s14
 802864c:	ee77 7a27 	vadd.f32	s15, s14, s15
 8028650:	ee77 7a86 	vadd.f32	s15, s15, s12
 8028654:	e7e0      	b.n	8028618 <HAL_RCCEx_GetPLL3ClockFreq+0xf4>
 8028656:	e9c0 1100 	strd	r1, r1, [r0]
 802865a:	6081      	str	r1, [r0, #8]
 802865c:	e7ce      	b.n	80285fc <HAL_RCCEx_GetPLL3ClockFreq+0xd8>
 802865e:	bf00      	nop
 8028660:	58024400 	.word	0x58024400
 8028664:	03d09000 	.word	0x03d09000
 8028668:	4c742400 	.word	0x4c742400
 802866c:	4bbebc20 	.word	0x4bbebc20
 8028670:	4a742400 	.word	0x4a742400

08028674 <SPI_CloseTransfer>:
 8028674:	6803      	ldr	r3, [r0, #0]
 8028676:	6959      	ldr	r1, [r3, #20]
 8028678:	699a      	ldr	r2, [r3, #24]
 802867a:	f042 0208 	orr.w	r2, r2, #8
 802867e:	619a      	str	r2, [r3, #24]
 8028680:	699a      	ldr	r2, [r3, #24]
 8028682:	f042 0210 	orr.w	r2, r2, #16
 8028686:	619a      	str	r2, [r3, #24]
 8028688:	681a      	ldr	r2, [r3, #0]
 802868a:	f022 0201 	bic.w	r2, r2, #1
 802868e:	601a      	str	r2, [r3, #0]
 8028690:	691a      	ldr	r2, [r3, #16]
 8028692:	f422 725b 	bic.w	r2, r2, #876	; 0x36c
 8028696:	f022 0203 	bic.w	r2, r2, #3
 802869a:	611a      	str	r2, [r3, #16]
 802869c:	689a      	ldr	r2, [r3, #8]
 802869e:	f422 4240 	bic.w	r2, r2, #49152	; 0xc000
 80286a2:	609a      	str	r2, [r3, #8]
 80286a4:	f890 2081 	ldrb.w	r2, [r0, #129]	; 0x81
 80286a8:	2a04      	cmp	r2, #4
 80286aa:	d00b      	beq.n	80286c4 <SPI_CloseTransfer+0x50>
 80286ac:	068a      	lsls	r2, r1, #26
 80286ae:	d509      	bpl.n	80286c4 <SPI_CloseTransfer+0x50>
 80286b0:	f8d0 2084 	ldr.w	r2, [r0, #132]	; 0x84
 80286b4:	f042 0280 	orr.w	r2, r2, #128	; 0x80
 80286b8:	f8c0 2084 	str.w	r2, [r0, #132]	; 0x84
 80286bc:	699a      	ldr	r2, [r3, #24]
 80286be:	f042 0220 	orr.w	r2, r2, #32
 80286c2:	619a      	str	r2, [r3, #24]
 80286c4:	f890 2081 	ldrb.w	r2, [r0, #129]	; 0x81
 80286c8:	2a03      	cmp	r2, #3
 80286ca:	d00b      	beq.n	80286e4 <SPI_CloseTransfer+0x70>
 80286cc:	064a      	lsls	r2, r1, #25
 80286ce:	d509      	bpl.n	80286e4 <SPI_CloseTransfer+0x70>
 80286d0:	f8d0 2084 	ldr.w	r2, [r0, #132]	; 0x84
 80286d4:	f042 0204 	orr.w	r2, r2, #4
 80286d8:	f8c0 2084 	str.w	r2, [r0, #132]	; 0x84
 80286dc:	699a      	ldr	r2, [r3, #24]
 80286de:	f042 0240 	orr.w	r2, r2, #64	; 0x40
 80286e2:	619a      	str	r2, [r3, #24]
 80286e4:	058a      	lsls	r2, r1, #22
 80286e6:	d509      	bpl.n	80286fc <SPI_CloseTransfer+0x88>
 80286e8:	f8d0 2084 	ldr.w	r2, [r0, #132]	; 0x84
 80286ec:	f042 0201 	orr.w	r2, r2, #1
 80286f0:	f8c0 2084 	str.w	r2, [r0, #132]	; 0x84
 80286f4:	699a      	ldr	r2, [r3, #24]
 80286f6:	f442 7200 	orr.w	r2, r2, #512	; 0x200
 80286fa:	619a      	str	r2, [r3, #24]
 80286fc:	05ca      	lsls	r2, r1, #23
 80286fe:	d509      	bpl.n	8028714 <SPI_CloseTransfer+0xa0>
 8028700:	f8d0 2084 	ldr.w	r2, [r0, #132]	; 0x84
 8028704:	f042 0208 	orr.w	r2, r2, #8
 8028708:	f8c0 2084 	str.w	r2, [r0, #132]	; 0x84
 802870c:	699a      	ldr	r2, [r3, #24]
 802870e:	f442 7280 	orr.w	r2, r2, #256	; 0x100
 8028712:	619a      	str	r2, [r3, #24]
 8028714:	2300      	movs	r3, #0
 8028716:	f8a0 3062 	strh.w	r3, [r0, #98]	; 0x62
 802871a:	f8a0 306a 	strh.w	r3, [r0, #106]	; 0x6a
 802871e:	4770      	bx	lr

08028720 <HAL_SPI_Init>:
 8028720:	b5f8      	push	{r3, r4, r5, r6, r7, lr}
 8028722:	4604      	mov	r4, r0
 8028724:	b908      	cbnz	r0, 802872a <HAL_SPI_Init+0xa>
 8028726:	2001      	movs	r0, #1
 8028728:	bdf8      	pop	{r3, r4, r5, r6, r7, pc}
 802872a:	6802      	ldr	r2, [r0, #0]
 802872c:	2300      	movs	r3, #0
 802872e:	494d      	ldr	r1, [pc, #308]	; (8028864 <HAL_SPI_Init+0x144>)
 8028730:	6283      	str	r3, [r0, #40]	; 0x28
 8028732:	428a      	cmp	r2, r1
 8028734:	68c3      	ldr	r3, [r0, #12]
 8028736:	d009      	beq.n	802874c <HAL_SPI_Init+0x2c>
 8028738:	f5a1 4178 	sub.w	r1, r1, #63488	; 0xf800
 802873c:	428a      	cmp	r2, r1
 802873e:	d005      	beq.n	802874c <HAL_SPI_Init+0x2c>
 8028740:	f501 6180 	add.w	r1, r1, #1024	; 0x400
 8028744:	428a      	cmp	r2, r1
 8028746:	d001      	beq.n	802874c <HAL_SPI_Init+0x2c>
 8028748:	2b0f      	cmp	r3, #15
 802874a:	d8ec      	bhi.n	8028726 <HAL_SPI_Init+0x6>
 802874c:	6be1      	ldr	r1, [r4, #60]	; 0x3c
 802874e:	3308      	adds	r3, #8
 8028750:	0949      	lsrs	r1, r1, #5
 8028752:	08db      	lsrs	r3, r3, #3
 8028754:	fb01 3303 	mla	r3, r1, r3, r3
 8028758:	4942      	ldr	r1, [pc, #264]	; (8028864 <HAL_SPI_Init+0x144>)
 802875a:	428a      	cmp	r2, r1
 802875c:	d073      	beq.n	8028846 <HAL_SPI_Init+0x126>
 802875e:	f5a1 4178 	sub.w	r1, r1, #63488	; 0xf800
 8028762:	428a      	cmp	r2, r1
 8028764:	d06f      	beq.n	8028846 <HAL_SPI_Init+0x126>
 8028766:	f501 6180 	add.w	r1, r1, #1024	; 0x400
 802876a:	428a      	cmp	r2, r1
 802876c:	d06b      	beq.n	8028846 <HAL_SPI_Init+0x126>
 802876e:	2b08      	cmp	r3, #8
 8028770:	d8d9      	bhi.n	8028726 <HAL_SPI_Init+0x6>
 8028772:	f894 3081 	ldrb.w	r3, [r4, #129]	; 0x81
 8028776:	f003 02ff 	and.w	r2, r3, #255	; 0xff
 802877a:	b923      	cbnz	r3, 8028786 <HAL_SPI_Init+0x66>
 802877c:	4620      	mov	r0, r4
 802877e:	f884 2080 	strb.w	r2, [r4, #128]	; 0x80
 8028782:	f7fd fc17 	bl	8025fb4 <HAL_SPI_MspInit>
 8028786:	6822      	ldr	r2, [r4, #0]
 8028788:	2302      	movs	r3, #2
 802878a:	6861      	ldr	r1, [r4, #4]
 802878c:	f884 3081 	strb.w	r3, [r4, #129]	; 0x81
 8028790:	6813      	ldr	r3, [r2, #0]
 8028792:	6ba6      	ldr	r6, [r4, #56]	; 0x38
 8028794:	f023 0301 	bic.w	r3, r3, #1
 8028798:	6013      	str	r3, [r2, #0]
 802879a:	69a3      	ldr	r3, [r4, #24]
 802879c:	6895      	ldr	r5, [r2, #8]
 802879e:	f1b3 6f80 	cmp.w	r3, #67108864	; 0x4000000
 80287a2:	f405 1cf8 	and.w	ip, r5, #2031616	; 0x1f0000
 80287a6:	d104      	bne.n	80287b2 <HAL_SPI_Init+0x92>
 80287a8:	f5b1 0f80 	cmp.w	r1, #4194304	; 0x400000
 80287ac:	d14d      	bne.n	802884a <HAL_SPI_Init+0x12a>
 80287ae:	2e00      	cmp	r6, #0
 80287b0:	d050      	beq.n	8028854 <HAL_SPI_Init+0x134>
 80287b2:	f411 0080 	ands.w	r0, r1, #4194304	; 0x400000
 80287b6:	68e5      	ldr	r5, [r4, #12]
 80287b8:	6817      	ldr	r7, [r2, #0]
 80287ba:	d050      	beq.n	802885e <HAL_SPI_Init+0x13e>
 80287bc:	2d06      	cmp	r5, #6
 80287be:	d94e      	bls.n	802885e <HAL_SPI_Init+0x13e>
 80287c0:	f427 7e80 	bic.w	lr, r7, #256	; 0x100
 80287c4:	6d27      	ldr	r7, [r4, #80]	; 0x50
 80287c6:	ea4e 0707 	orr.w	r7, lr, r7
 80287ca:	6017      	str	r7, [r2, #0]
 80287cc:	430b      	orrs	r3, r1
 80287ce:	69e7      	ldr	r7, [r4, #28]
 80287d0:	4333      	orrs	r3, r6
 80287d2:	433d      	orrs	r5, r7
 80287d4:	6aa7      	ldr	r7, [r4, #40]	; 0x28
 80287d6:	433d      	orrs	r5, r7
 80287d8:	6be7      	ldr	r7, [r4, #60]	; 0x3c
 80287da:	433d      	orrs	r5, r7
 80287dc:	ea45 050c 	orr.w	r5, r5, ip
 80287e0:	6095      	str	r5, [r2, #8]
 80287e2:	6b65      	ldr	r5, [r4, #52]	; 0x34
 80287e4:	432b      	orrs	r3, r5
 80287e6:	6a65      	ldr	r5, [r4, #36]	; 0x24
 80287e8:	432b      	orrs	r3, r5
 80287ea:	6925      	ldr	r5, [r4, #16]
 80287ec:	432b      	orrs	r3, r5
 80287ee:	6965      	ldr	r5, [r4, #20]
 80287f0:	432b      	orrs	r3, r5
 80287f2:	6a25      	ldr	r5, [r4, #32]
 80287f4:	432b      	orrs	r3, r5
 80287f6:	6ce5      	ldr	r5, [r4, #76]	; 0x4c
 80287f8:	432b      	orrs	r3, r5
 80287fa:	68a5      	ldr	r5, [r4, #8]
 80287fc:	432b      	orrs	r3, r5
 80287fe:	6ca5      	ldr	r5, [r4, #72]	; 0x48
 8028800:	432b      	orrs	r3, r5
 8028802:	6da5      	ldr	r5, [r4, #88]	; 0x58
 8028804:	432b      	orrs	r3, r5
 8028806:	60d3      	str	r3, [r2, #12]
 8028808:	b959      	cbnz	r1, 8028822 <HAL_SPI_Init+0x102>
 802880a:	6893      	ldr	r3, [r2, #8]
 802880c:	f423 53c0 	bic.w	r3, r3, #6144	; 0x1800
 8028810:	f443 6300 	orr.w	r3, r3, #2048	; 0x800
 8028814:	6093      	str	r3, [r2, #8]
 8028816:	6893      	ldr	r3, [r2, #8]
 8028818:	f423 63c0 	bic.w	r3, r3, #1536	; 0x600
 802881c:	f443 6380 	orr.w	r3, r3, #1024	; 0x400
 8028820:	6093      	str	r3, [r2, #8]
 8028822:	6d13      	ldr	r3, [r2, #80]	; 0x50
 8028824:	f023 0301 	bic.w	r3, r3, #1
 8028828:	6513      	str	r3, [r2, #80]	; 0x50
 802882a:	b128      	cbz	r0, 8028838 <HAL_SPI_Init+0x118>
 802882c:	68d3      	ldr	r3, [r2, #12]
 802882e:	6d61      	ldr	r1, [r4, #84]	; 0x54
 8028830:	f023 4300 	bic.w	r3, r3, #2147483648	; 0x80000000
 8028834:	430b      	orrs	r3, r1
 8028836:	60d3      	str	r3, [r2, #12]
 8028838:	2000      	movs	r0, #0
 802883a:	2301      	movs	r3, #1
 802883c:	f8c4 0084 	str.w	r0, [r4, #132]	; 0x84
 8028840:	f884 3081 	strb.w	r3, [r4, #129]	; 0x81
 8028844:	e770      	b.n	8028728 <HAL_SPI_Init+0x8>
 8028846:	2b10      	cmp	r3, #16
 8028848:	e792      	b.n	8028770 <HAL_SPI_Init+0x50>
 802884a:	2900      	cmp	r1, #0
 802884c:	d1b1      	bne.n	80287b2 <HAL_SPI_Init+0x92>
 802884e:	f1b6 5f80 	cmp.w	r6, #268435456	; 0x10000000
 8028852:	d1ae      	bne.n	80287b2 <HAL_SPI_Init+0x92>
 8028854:	6810      	ldr	r0, [r2, #0]
 8028856:	f440 5080 	orr.w	r0, r0, #4096	; 0x1000
 802885a:	6010      	str	r0, [r2, #0]
 802885c:	e7a9      	b.n	80287b2 <HAL_SPI_Init+0x92>
 802885e:	f427 7780 	bic.w	r7, r7, #256	; 0x100
 8028862:	e7b2      	b.n	80287ca <HAL_SPI_Init+0xaa>
 8028864:	40013000 	.word	0x40013000

08028868 <HAL_SPI_Transmit>:
 8028868:	e92d 43f8 	stmdb	sp!, {r3, r4, r5, r6, r7, r8, r9, lr}
 802886c:	461d      	mov	r5, r3
 802886e:	f890 3080 	ldrb.w	r3, [r0, #128]	; 0x80
 8028872:	4604      	mov	r4, r0
 8028874:	4689      	mov	r9, r1
 8028876:	2b01      	cmp	r3, #1
 8028878:	4690      	mov	r8, r2
 802887a:	d00f      	beq.n	802889c <HAL_SPI_Transmit+0x34>
 802887c:	2301      	movs	r3, #1
 802887e:	6807      	ldr	r7, [r0, #0]
 8028880:	f880 3080 	strb.w	r3, [r0, #128]	; 0x80
 8028884:	f7fd ff80 	bl	8026788 <HAL_GetTick>
 8028888:	f894 3081 	ldrb.w	r3, [r4, #129]	; 0x81
 802888c:	4606      	mov	r6, r0
 802888e:	2b01      	cmp	r3, #1
 8028890:	b2d8      	uxtb	r0, r3
 8028892:	f04f 0300 	mov.w	r3, #0
 8028896:	d003      	beq.n	80288a0 <HAL_SPI_Transmit+0x38>
 8028898:	f884 3080 	strb.w	r3, [r4, #128]	; 0x80
 802889c:	2002      	movs	r0, #2
 802889e:	e007      	b.n	80288b0 <HAL_SPI_Transmit+0x48>
 80288a0:	f1b9 0f00 	cmp.w	r9, #0
 80288a4:	d002      	beq.n	80288ac <HAL_SPI_Transmit+0x44>
 80288a6:	f1b8 0f00 	cmp.w	r8, #0
 80288aa:	d103      	bne.n	80288b4 <HAL_SPI_Transmit+0x4c>
 80288ac:	f884 3080 	strb.w	r3, [r4, #128]	; 0x80
 80288b0:	e8bd 83f8 	ldmia.w	sp!, {r3, r4, r5, r6, r7, r8, r9, pc}
 80288b4:	2203      	movs	r2, #3
 80288b6:	6663      	str	r3, [r4, #100]	; 0x64
 80288b8:	f8a4 3068 	strh.w	r3, [r4, #104]	; 0x68
 80288bc:	f884 2081 	strb.w	r2, [r4, #129]	; 0x81
 80288c0:	68a2      	ldr	r2, [r4, #8]
 80288c2:	f8c4 3084 	str.w	r3, [r4, #132]	; 0x84
 80288c6:	f5b2 2fc0 	cmp.w	r2, #393216	; 0x60000
 80288ca:	f8a4 8062 	strh.w	r8, [r4, #98]	; 0x62
 80288ce:	f8c4 905c 	str.w	r9, [r4, #92]	; 0x5c
 80288d2:	f8a4 306a 	strh.w	r3, [r4, #106]	; 0x6a
 80288d6:	f8a4 8060 	strh.w	r8, [r4, #96]	; 0x60
 80288da:	e9c4 331c 	strd	r3, r3, [r4, #112]	; 0x70
 80288de:	6823      	ldr	r3, [r4, #0]
 80288e0:	d13a      	bne.n	8028958 <HAL_SPI_Transmit+0xf0>
 80288e2:	681a      	ldr	r2, [r3, #0]
 80288e4:	f442 6200 	orr.w	r2, r2, #2048	; 0x800
 80288e8:	601a      	str	r2, [r3, #0]
 80288ea:	6859      	ldr	r1, [r3, #4]
 80288ec:	0c09      	lsrs	r1, r1, #16
 80288ee:	0409      	lsls	r1, r1, #16
 80288f0:	ea41 0108 	orr.w	r1, r1, r8
 80288f4:	6059      	str	r1, [r3, #4]
 80288f6:	681a      	ldr	r2, [r3, #0]
 80288f8:	f042 0201 	orr.w	r2, r2, #1
 80288fc:	601a      	str	r2, [r3, #0]
 80288fe:	6862      	ldr	r2, [r4, #4]
 8028900:	f5b2 0f80 	cmp.w	r2, #4194304	; 0x400000
 8028904:	d103      	bne.n	802890e <HAL_SPI_Transmit+0xa6>
 8028906:	681a      	ldr	r2, [r3, #0]
 8028908:	f442 7200 	orr.w	r2, r2, #512	; 0x200
 802890c:	601a      	str	r2, [r3, #0]
 802890e:	68e3      	ldr	r3, [r4, #12]
 8028910:	2b0f      	cmp	r3, #15
 8028912:	d836      	bhi.n	8028982 <HAL_SPI_Transmit+0x11a>
 8028914:	2b07      	cmp	r3, #7
 8028916:	d87d      	bhi.n	8028a14 <HAL_SPI_Transmit+0x1ac>
 8028918:	f8b4 3062 	ldrh.w	r3, [r4, #98]	; 0x62
 802891c:	6822      	ldr	r2, [r4, #0]
 802891e:	b29b      	uxth	r3, r3
 8028920:	2b00      	cmp	r3, #0
 8028922:	d034      	beq.n	802898e <HAL_SPI_Transmit+0x126>
 8028924:	6953      	ldr	r3, [r2, #20]
 8028926:	0798      	lsls	r0, r3, #30
 8028928:	f140 80a7 	bpl.w	8028a7a <HAL_SPI_Transmit+0x212>
 802892c:	f8b4 1062 	ldrh.w	r1, [r4, #98]	; 0x62
 8028930:	6de3      	ldr	r3, [r4, #92]	; 0x5c
 8028932:	b289      	uxth	r1, r1
 8028934:	2903      	cmp	r1, #3
 8028936:	f240 8087 	bls.w	8028a48 <HAL_SPI_Transmit+0x1e0>
 802893a:	6be1      	ldr	r1, [r4, #60]	; 0x3c
 802893c:	2940      	cmp	r1, #64	; 0x40
 802893e:	f240 8083 	bls.w	8028a48 <HAL_SPI_Transmit+0x1e0>
 8028942:	f853 1b04 	ldr.w	r1, [r3], #4
 8028946:	6211      	str	r1, [r2, #32]
 8028948:	65e3      	str	r3, [r4, #92]	; 0x5c
 802894a:	f8b4 3062 	ldrh.w	r3, [r4, #98]	; 0x62
 802894e:	3b04      	subs	r3, #4
 8028950:	b29b      	uxth	r3, r3
 8028952:	f8a4 3062 	strh.w	r3, [r4, #98]	; 0x62
 8028956:	e7df      	b.n	8028918 <HAL_SPI_Transmit+0xb0>
 8028958:	68da      	ldr	r2, [r3, #12]
 802895a:	f422 22c0 	bic.w	r2, r2, #393216	; 0x60000
 802895e:	f442 3200 	orr.w	r2, r2, #131072	; 0x20000
 8028962:	60da      	str	r2, [r3, #12]
 8028964:	e7c1      	b.n	80288ea <HAL_SPI_Transmit+0x82>
 8028966:	6953      	ldr	r3, [r2, #20]
 8028968:	0798      	lsls	r0, r3, #30
 802896a:	d523      	bpl.n	80289b4 <HAL_SPI_Transmit+0x14c>
 802896c:	6de3      	ldr	r3, [r4, #92]	; 0x5c
 802896e:	f853 1b04 	ldr.w	r1, [r3], #4
 8028972:	6211      	str	r1, [r2, #32]
 8028974:	65e3      	str	r3, [r4, #92]	; 0x5c
 8028976:	f8b4 3062 	ldrh.w	r3, [r4, #98]	; 0x62
 802897a:	3b01      	subs	r3, #1
 802897c:	b29b      	uxth	r3, r3
 802897e:	f8a4 3062 	strh.w	r3, [r4, #98]	; 0x62
 8028982:	f8b4 3062 	ldrh.w	r3, [r4, #98]	; 0x62
 8028986:	6822      	ldr	r2, [r4, #0]
 8028988:	b29b      	uxth	r3, r3
 802898a:	2b00      	cmp	r3, #0
 802898c:	d1eb      	bne.n	8028966 <HAL_SPI_Transmit+0xfe>
 802898e:	6823      	ldr	r3, [r4, #0]
 8028990:	695b      	ldr	r3, [r3, #20]
 8028992:	071b      	lsls	r3, r3, #28
 8028994:	d57e      	bpl.n	8028a94 <HAL_SPI_Transmit+0x22c>
 8028996:	4620      	mov	r0, r4
 8028998:	f7ff fe6c 	bl	8028674 <SPI_CloseTransfer>
 802899c:	2300      	movs	r3, #0
 802899e:	f884 3080 	strb.w	r3, [r4, #128]	; 0x80
 80289a2:	2301      	movs	r3, #1
 80289a4:	f884 3081 	strb.w	r3, [r4, #129]	; 0x81
 80289a8:	f8d4 0084 	ldr.w	r0, [r4, #132]	; 0x84
 80289ac:	3800      	subs	r0, #0
 80289ae:	bf18      	it	ne
 80289b0:	2001      	movne	r0, #1
 80289b2:	e77d      	b.n	80288b0 <HAL_SPI_Transmit+0x48>
 80289b4:	f7fd fee8 	bl	8026788 <HAL_GetTick>
 80289b8:	1b80      	subs	r0, r0, r6
 80289ba:	42a8      	cmp	r0, r5
 80289bc:	d312      	bcc.n	80289e4 <HAL_SPI_Transmit+0x17c>
 80289be:	1c69      	adds	r1, r5, #1
 80289c0:	d0df      	beq.n	8028982 <HAL_SPI_Transmit+0x11a>
 80289c2:	4620      	mov	r0, r4
 80289c4:	f7ff fe56 	bl	8028674 <SPI_CloseTransfer>
 80289c8:	2300      	movs	r3, #0
 80289ca:	2003      	movs	r0, #3
 80289cc:	f884 3080 	strb.w	r3, [r4, #128]	; 0x80
 80289d0:	f8d4 3084 	ldr.w	r3, [r4, #132]	; 0x84
 80289d4:	f443 7380 	orr.w	r3, r3, #256	; 0x100
 80289d8:	f8c4 3084 	str.w	r3, [r4, #132]	; 0x84
 80289dc:	2301      	movs	r3, #1
 80289de:	f884 3081 	strb.w	r3, [r4, #129]	; 0x81
 80289e2:	e765      	b.n	80288b0 <HAL_SPI_Transmit+0x48>
 80289e4:	2d00      	cmp	r5, #0
 80289e6:	d1cc      	bne.n	8028982 <HAL_SPI_Transmit+0x11a>
 80289e8:	e7eb      	b.n	80289c2 <HAL_SPI_Transmit+0x15a>
 80289ea:	694b      	ldr	r3, [r1, #20]
 80289ec:	079a      	lsls	r2, r3, #30
 80289ee:	d520      	bpl.n	8028a32 <HAL_SPI_Transmit+0x1ca>
 80289f0:	f8b4 2062 	ldrh.w	r2, [r4, #98]	; 0x62
 80289f4:	6de3      	ldr	r3, [r4, #92]	; 0x5c
 80289f6:	b292      	uxth	r2, r2
 80289f8:	2a01      	cmp	r2, #1
 80289fa:	d912      	bls.n	8028a22 <HAL_SPI_Transmit+0x1ba>
 80289fc:	6be2      	ldr	r2, [r4, #60]	; 0x3c
 80289fe:	b182      	cbz	r2, 8028a22 <HAL_SPI_Transmit+0x1ba>
 8028a00:	f853 2b04 	ldr.w	r2, [r3], #4
 8028a04:	620a      	str	r2, [r1, #32]
 8028a06:	65e3      	str	r3, [r4, #92]	; 0x5c
 8028a08:	f8b4 3062 	ldrh.w	r3, [r4, #98]	; 0x62
 8028a0c:	3b02      	subs	r3, #2
 8028a0e:	b29b      	uxth	r3, r3
 8028a10:	f8a4 3062 	strh.w	r3, [r4, #98]	; 0x62
 8028a14:	f8b4 3062 	ldrh.w	r3, [r4, #98]	; 0x62
 8028a18:	6821      	ldr	r1, [r4, #0]
 8028a1a:	b29b      	uxth	r3, r3
 8028a1c:	2b00      	cmp	r3, #0
 8028a1e:	d1e4      	bne.n	80289ea <HAL_SPI_Transmit+0x182>
 8028a20:	e7b5      	b.n	802898e <HAL_SPI_Transmit+0x126>
 8028a22:	f833 2b02 	ldrh.w	r2, [r3], #2
 8028a26:	843a      	strh	r2, [r7, #32]
 8028a28:	65e3      	str	r3, [r4, #92]	; 0x5c
 8028a2a:	f8b4 3062 	ldrh.w	r3, [r4, #98]	; 0x62
 8028a2e:	3b01      	subs	r3, #1
 8028a30:	e7ed      	b.n	8028a0e <HAL_SPI_Transmit+0x1a6>
 8028a32:	f7fd fea9 	bl	8026788 <HAL_GetTick>
 8028a36:	1b80      	subs	r0, r0, r6
 8028a38:	42a8      	cmp	r0, r5
 8028a3a:	d302      	bcc.n	8028a42 <HAL_SPI_Transmit+0x1da>
 8028a3c:	1c6b      	adds	r3, r5, #1
 8028a3e:	d0e9      	beq.n	8028a14 <HAL_SPI_Transmit+0x1ac>
 8028a40:	e7bf      	b.n	80289c2 <HAL_SPI_Transmit+0x15a>
 8028a42:	2d00      	cmp	r5, #0
 8028a44:	d1e6      	bne.n	8028a14 <HAL_SPI_Transmit+0x1ac>
 8028a46:	e7bc      	b.n	80289c2 <HAL_SPI_Transmit+0x15a>
 8028a48:	f8b4 1062 	ldrh.w	r1, [r4, #98]	; 0x62
 8028a4c:	b289      	uxth	r1, r1
 8028a4e:	2901      	cmp	r1, #1
 8028a50:	d909      	bls.n	8028a66 <HAL_SPI_Transmit+0x1fe>
 8028a52:	6be1      	ldr	r1, [r4, #60]	; 0x3c
 8028a54:	b139      	cbz	r1, 8028a66 <HAL_SPI_Transmit+0x1fe>
 8028a56:	f833 2b02 	ldrh.w	r2, [r3], #2
 8028a5a:	843a      	strh	r2, [r7, #32]
 8028a5c:	65e3      	str	r3, [r4, #92]	; 0x5c
 8028a5e:	f8b4 3062 	ldrh.w	r3, [r4, #98]	; 0x62
 8028a62:	3b02      	subs	r3, #2
 8028a64:	e774      	b.n	8028950 <HAL_SPI_Transmit+0xe8>
 8028a66:	781b      	ldrb	r3, [r3, #0]
 8028a68:	f882 3020 	strb.w	r3, [r2, #32]
 8028a6c:	6de3      	ldr	r3, [r4, #92]	; 0x5c
 8028a6e:	3301      	adds	r3, #1
 8028a70:	65e3      	str	r3, [r4, #92]	; 0x5c
 8028a72:	f8b4 3062 	ldrh.w	r3, [r4, #98]	; 0x62
 8028a76:	3b01      	subs	r3, #1
 8028a78:	e76a      	b.n	8028950 <HAL_SPI_Transmit+0xe8>
 8028a7a:	f7fd fe85 	bl	8026788 <HAL_GetTick>
 8028a7e:	1b80      	subs	r0, r0, r6
 8028a80:	42a8      	cmp	r0, r5
 8028a82:	d303      	bcc.n	8028a8c <HAL_SPI_Transmit+0x224>
 8028a84:	1c69      	adds	r1, r5, #1
 8028a86:	f43f af47 	beq.w	8028918 <HAL_SPI_Transmit+0xb0>
 8028a8a:	e79a      	b.n	80289c2 <HAL_SPI_Transmit+0x15a>
 8028a8c:	2d00      	cmp	r5, #0
 8028a8e:	f47f af43 	bne.w	8028918 <HAL_SPI_Transmit+0xb0>
 8028a92:	e796      	b.n	80289c2 <HAL_SPI_Transmit+0x15a>
 8028a94:	f7fd fe78 	bl	8026788 <HAL_GetTick>
 8028a98:	1b80      	subs	r0, r0, r6
 8028a9a:	4285      	cmp	r5, r0
 8028a9c:	d809      	bhi.n	8028ab2 <HAL_SPI_Transmit+0x24a>
 8028a9e:	1c6a      	adds	r2, r5, #1
 8028aa0:	f43f af75 	beq.w	802898e <HAL_SPI_Transmit+0x126>
 8028aa4:	f8d4 3084 	ldr.w	r3, [r4, #132]	; 0x84
 8028aa8:	f043 0320 	orr.w	r3, r3, #32
 8028aac:	f8c4 3084 	str.w	r3, [r4, #132]	; 0x84
 8028ab0:	e771      	b.n	8028996 <HAL_SPI_Transmit+0x12e>
 8028ab2:	2d00      	cmp	r5, #0
 8028ab4:	f47f af6b 	bne.w	802898e <HAL_SPI_Transmit+0x126>
 8028ab8:	e7f4      	b.n	8028aa4 <HAL_SPI_Transmit+0x23c>

08028aba <HAL_SPI_Receive>:
 8028aba:	e92d 43f8 	stmdb	sp!, {r3, r4, r5, r6, r7, r8, r9, lr}
 8028abe:	461d      	mov	r5, r3
 8028ac0:	f890 3080 	ldrb.w	r3, [r0, #128]	; 0x80
 8028ac4:	4604      	mov	r4, r0
 8028ac6:	4689      	mov	r9, r1
 8028ac8:	2b01      	cmp	r3, #1
 8028aca:	4690      	mov	r8, r2
 8028acc:	d00f      	beq.n	8028aee <HAL_SPI_Receive+0x34>
 8028ace:	2301      	movs	r3, #1
 8028ad0:	6807      	ldr	r7, [r0, #0]
 8028ad2:	f880 3080 	strb.w	r3, [r0, #128]	; 0x80
 8028ad6:	f7fd fe57 	bl	8026788 <HAL_GetTick>
 8028ada:	f894 3081 	ldrb.w	r3, [r4, #129]	; 0x81
 8028ade:	4606      	mov	r6, r0
 8028ae0:	2b01      	cmp	r3, #1
 8028ae2:	b2d8      	uxtb	r0, r3
 8028ae4:	f04f 0300 	mov.w	r3, #0
 8028ae8:	d003      	beq.n	8028af2 <HAL_SPI_Receive+0x38>
 8028aea:	f884 3080 	strb.w	r3, [r4, #128]	; 0x80
 8028aee:	2002      	movs	r0, #2
 8028af0:	e007      	b.n	8028b02 <HAL_SPI_Receive+0x48>
 8028af2:	f1b9 0f00 	cmp.w	r9, #0
 8028af6:	d002      	beq.n	8028afe <HAL_SPI_Receive+0x44>
 8028af8:	f1b8 0f00 	cmp.w	r8, #0
 8028afc:	d103      	bne.n	8028b06 <HAL_SPI_Receive+0x4c>
 8028afe:	f884 3080 	strb.w	r3, [r4, #128]	; 0x80
 8028b02:	e8bd 83f8 	ldmia.w	sp!, {r3, r4, r5, r6, r7, r8, r9, pc}
 8028b06:	2204      	movs	r2, #4
 8028b08:	65e3      	str	r3, [r4, #92]	; 0x5c
 8028b0a:	f8a4 3060 	strh.w	r3, [r4, #96]	; 0x60
 8028b0e:	f884 2081 	strb.w	r2, [r4, #129]	; 0x81
 8028b12:	68a2      	ldr	r2, [r4, #8]
 8028b14:	f8c4 3084 	str.w	r3, [r4, #132]	; 0x84
 8028b18:	f5b2 2fc0 	cmp.w	r2, #393216	; 0x60000
 8028b1c:	f8a4 806a 	strh.w	r8, [r4, #106]	; 0x6a
 8028b20:	f8c4 9064 	str.w	r9, [r4, #100]	; 0x64
 8028b24:	f8a4 3062 	strh.w	r3, [r4, #98]	; 0x62
 8028b28:	f8a4 8068 	strh.w	r8, [r4, #104]	; 0x68
 8028b2c:	e9c4 331c 	strd	r3, r3, [r4, #112]	; 0x70
 8028b30:	6823      	ldr	r3, [r4, #0]
 8028b32:	d12d      	bne.n	8028b90 <HAL_SPI_Receive+0xd6>
 8028b34:	681a      	ldr	r2, [r3, #0]
 8028b36:	f422 6200 	bic.w	r2, r2, #2048	; 0x800
 8028b3a:	601a      	str	r2, [r3, #0]
 8028b3c:	6859      	ldr	r1, [r3, #4]
 8028b3e:	0c09      	lsrs	r1, r1, #16
 8028b40:	0409      	lsls	r1, r1, #16
 8028b42:	ea41 0108 	orr.w	r1, r1, r8
 8028b46:	6059      	str	r1, [r3, #4]
 8028b48:	681a      	ldr	r2, [r3, #0]
 8028b4a:	f042 0201 	orr.w	r2, r2, #1
 8028b4e:	601a      	str	r2, [r3, #0]
 8028b50:	6862      	ldr	r2, [r4, #4]
 8028b52:	f5b2 0f80 	cmp.w	r2, #4194304	; 0x400000
 8028b56:	d103      	bne.n	8028b60 <HAL_SPI_Receive+0xa6>
 8028b58:	681a      	ldr	r2, [r3, #0]
 8028b5a:	f442 7200 	orr.w	r2, r2, #512	; 0x200
 8028b5e:	601a      	str	r2, [r3, #0]
 8028b60:	68e3      	ldr	r3, [r4, #12]
 8028b62:	2b0f      	cmp	r3, #15
 8028b64:	d946      	bls.n	8028bf4 <HAL_SPI_Receive+0x13a>
 8028b66:	f248 0708 	movw	r7, #32776	; 0x8008
 8028b6a:	f8b4 306a 	ldrh.w	r3, [r4, #106]	; 0x6a
 8028b6e:	b29b      	uxth	r3, r3
 8028b70:	b9ab      	cbnz	r3, 8028b9e <HAL_SPI_Receive+0xe4>
 8028b72:	4620      	mov	r0, r4
 8028b74:	f7ff fd7e 	bl	8028674 <SPI_CloseTransfer>
 8028b78:	2300      	movs	r3, #0
 8028b7a:	f884 3080 	strb.w	r3, [r4, #128]	; 0x80
 8028b7e:	2301      	movs	r3, #1
 8028b80:	f884 3081 	strb.w	r3, [r4, #129]	; 0x81
 8028b84:	f8d4 0084 	ldr.w	r0, [r4, #132]	; 0x84
 8028b88:	3800      	subs	r0, #0
 8028b8a:	bf18      	it	ne
 8028b8c:	2001      	movne	r0, #1
 8028b8e:	e7b8      	b.n	8028b02 <HAL_SPI_Receive+0x48>
 8028b90:	68da      	ldr	r2, [r3, #12]
 8028b92:	f422 22c0 	bic.w	r2, r2, #393216	; 0x60000
 8028b96:	f442 2280 	orr.w	r2, r2, #262144	; 0x40000
 8028b9a:	60da      	str	r2, [r3, #12]
 8028b9c:	e7ce      	b.n	8028b3c <HAL_SPI_Receive+0x82>
 8028b9e:	6823      	ldr	r3, [r4, #0]
 8028ba0:	695a      	ldr	r2, [r3, #20]
 8028ba2:	423a      	tst	r2, r7
 8028ba4:	d00b      	beq.n	8028bbe <HAL_SPI_Receive+0x104>
 8028ba6:	6b1a      	ldr	r2, [r3, #48]	; 0x30
 8028ba8:	6e63      	ldr	r3, [r4, #100]	; 0x64
 8028baa:	f843 2b04 	str.w	r2, [r3], #4
 8028bae:	6663      	str	r3, [r4, #100]	; 0x64
 8028bb0:	f8b4 306a 	ldrh.w	r3, [r4, #106]	; 0x6a
 8028bb4:	3b01      	subs	r3, #1
 8028bb6:	b29b      	uxth	r3, r3
 8028bb8:	f8a4 306a 	strh.w	r3, [r4, #106]	; 0x6a
 8028bbc:	e7d5      	b.n	8028b6a <HAL_SPI_Receive+0xb0>
 8028bbe:	f7fd fde3 	bl	8026788 <HAL_GetTick>
 8028bc2:	1b80      	subs	r0, r0, r6
 8028bc4:	42a8      	cmp	r0, r5
 8028bc6:	d312      	bcc.n	8028bee <HAL_SPI_Receive+0x134>
 8028bc8:	1c6b      	adds	r3, r5, #1
 8028bca:	d0ce      	beq.n	8028b6a <HAL_SPI_Receive+0xb0>
 8028bcc:	4620      	mov	r0, r4
 8028bce:	f7ff fd51 	bl	8028674 <SPI_CloseTransfer>
 8028bd2:	2300      	movs	r3, #0
 8028bd4:	2003      	movs	r0, #3
 8028bd6:	f884 3080 	strb.w	r3, [r4, #128]	; 0x80
 8028bda:	f8d4 3084 	ldr.w	r3, [r4, #132]	; 0x84
 8028bde:	f443 7380 	orr.w	r3, r3, #256	; 0x100
 8028be2:	f8c4 3084 	str.w	r3, [r4, #132]	; 0x84
 8028be6:	2301      	movs	r3, #1
 8028be8:	f884 3081 	strb.w	r3, [r4, #129]	; 0x81
 8028bec:	e789      	b.n	8028b02 <HAL_SPI_Receive+0x48>
 8028bee:	2d00      	cmp	r5, #0
 8028bf0:	d1bb      	bne.n	8028b6a <HAL_SPI_Receive+0xb0>
 8028bf2:	e7eb      	b.n	8028bcc <HAL_SPI_Receive+0x112>
 8028bf4:	2b07      	cmp	r3, #7
 8028bf6:	d825      	bhi.n	8028c44 <HAL_SPI_Receive+0x18a>
 8028bf8:	f8b4 306a 	ldrh.w	r3, [r4, #106]	; 0x6a
 8028bfc:	b29b      	uxth	r3, r3
 8028bfe:	2b00      	cmp	r3, #0
 8028c00:	d0b7      	beq.n	8028b72 <HAL_SPI_Receive+0xb8>
 8028c02:	6823      	ldr	r3, [r4, #0]
 8028c04:	695a      	ldr	r2, [r3, #20]
 8028c06:	07d2      	lsls	r2, r2, #31
 8028c08:	d52d      	bpl.n	8028c66 <HAL_SPI_Receive+0x1ac>
 8028c0a:	f893 3030 	ldrb.w	r3, [r3, #48]	; 0x30
 8028c0e:	6e62      	ldr	r2, [r4, #100]	; 0x64
 8028c10:	7013      	strb	r3, [r2, #0]
 8028c12:	6e63      	ldr	r3, [r4, #100]	; 0x64
 8028c14:	3301      	adds	r3, #1
 8028c16:	6663      	str	r3, [r4, #100]	; 0x64
 8028c18:	f8b4 306a 	ldrh.w	r3, [r4, #106]	; 0x6a
 8028c1c:	3b01      	subs	r3, #1
 8028c1e:	b29b      	uxth	r3, r3
 8028c20:	f8a4 306a 	strh.w	r3, [r4, #106]	; 0x6a
 8028c24:	e7e8      	b.n	8028bf8 <HAL_SPI_Receive+0x13e>
 8028c26:	6823      	ldr	r3, [r4, #0]
 8028c28:	695b      	ldr	r3, [r3, #20]
 8028c2a:	07d8      	lsls	r0, r3, #31
 8028c2c:	d510      	bpl.n	8028c50 <HAL_SPI_Receive+0x196>
 8028c2e:	8e3a      	ldrh	r2, [r7, #48]	; 0x30
 8028c30:	6e63      	ldr	r3, [r4, #100]	; 0x64
 8028c32:	f823 2b02 	strh.w	r2, [r3], #2
 8028c36:	6663      	str	r3, [r4, #100]	; 0x64
 8028c38:	f8b4 306a 	ldrh.w	r3, [r4, #106]	; 0x6a
 8028c3c:	3b01      	subs	r3, #1
 8028c3e:	b29b      	uxth	r3, r3
 8028c40:	f8a4 306a 	strh.w	r3, [r4, #106]	; 0x6a
 8028c44:	f8b4 306a 	ldrh.w	r3, [r4, #106]	; 0x6a
 8028c48:	b29b      	uxth	r3, r3
 8028c4a:	2b00      	cmp	r3, #0
 8028c4c:	d1eb      	bne.n	8028c26 <HAL_SPI_Receive+0x16c>
 8028c4e:	e790      	b.n	8028b72 <HAL_SPI_Receive+0xb8>
 8028c50:	f7fd fd9a 	bl	8026788 <HAL_GetTick>
 8028c54:	1b80      	subs	r0, r0, r6
 8028c56:	42a8      	cmp	r0, r5
 8028c58:	d302      	bcc.n	8028c60 <HAL_SPI_Receive+0x1a6>
 8028c5a:	1c69      	adds	r1, r5, #1
 8028c5c:	d0f2      	beq.n	8028c44 <HAL_SPI_Receive+0x18a>
 8028c5e:	e7b5      	b.n	8028bcc <HAL_SPI_Receive+0x112>
 8028c60:	2d00      	cmp	r5, #0
 8028c62:	d1ef      	bne.n	8028c44 <HAL_SPI_Receive+0x18a>
 8028c64:	e7b2      	b.n	8028bcc <HAL_SPI_Receive+0x112>
 8028c66:	f7fd fd8f 	bl	8026788 <HAL_GetTick>
 8028c6a:	1b80      	subs	r0, r0, r6
 8028c6c:	42a8      	cmp	r0, r5
 8028c6e:	d302      	bcc.n	8028c76 <HAL_SPI_Receive+0x1bc>
 8028c70:	1c6b      	adds	r3, r5, #1
 8028c72:	d0c1      	beq.n	8028bf8 <HAL_SPI_Receive+0x13e>
 8028c74:	e7aa      	b.n	8028bcc <HAL_SPI_Receive+0x112>
 8028c76:	2d00      	cmp	r5, #0
 8028c78:	d1be      	bne.n	8028bf8 <HAL_SPI_Receive+0x13e>
 8028c7a:	e7a7      	b.n	8028bcc <HAL_SPI_Receive+0x112>

08028c7c <HAL_SPI_TransmitReceive>:
 8028c7c:	e92d 47f0 	stmdb	sp!, {r4, r5, r6, r7, r8, r9, sl, lr}
 8028c80:	461d      	mov	r5, r3
 8028c82:	f890 3080 	ldrb.w	r3, [r0, #128]	; 0x80
 8028c86:	4604      	mov	r4, r0
 8028c88:	4689      	mov	r9, r1
 8028c8a:	2b01      	cmp	r3, #1
 8028c8c:	4692      	mov	sl, r2
 8028c8e:	9e08      	ldr	r6, [sp, #32]
 8028c90:	d00f      	beq.n	8028cb2 <HAL_SPI_TransmitReceive+0x36>
 8028c92:	2301      	movs	r3, #1
 8028c94:	f8d0 8000 	ldr.w	r8, [r0]
 8028c98:	f880 3080 	strb.w	r3, [r0, #128]	; 0x80
 8028c9c:	f7fd fd74 	bl	8026788 <HAL_GetTick>
 8028ca0:	f894 3081 	ldrb.w	r3, [r4, #129]	; 0x81
 8028ca4:	4607      	mov	r7, r0
 8028ca6:	2b01      	cmp	r3, #1
 8028ca8:	b2d8      	uxtb	r0, r3
 8028caa:	d004      	beq.n	8028cb6 <HAL_SPI_TransmitReceive+0x3a>
 8028cac:	2300      	movs	r3, #0
 8028cae:	f884 3080 	strb.w	r3, [r4, #128]	; 0x80
 8028cb2:	2002      	movs	r0, #2
 8028cb4:	e009      	b.n	8028cca <HAL_SPI_TransmitReceive+0x4e>
 8028cb6:	f1b9 0f00 	cmp.w	r9, #0
 8028cba:	d003      	beq.n	8028cc4 <HAL_SPI_TransmitReceive+0x48>
 8028cbc:	f1ba 0f00 	cmp.w	sl, #0
 8028cc0:	d000      	beq.n	8028cc4 <HAL_SPI_TransmitReceive+0x48>
 8028cc2:	b925      	cbnz	r5, 8028cce <HAL_SPI_TransmitReceive+0x52>
 8028cc4:	2300      	movs	r3, #0
 8028cc6:	f884 3080 	strb.w	r3, [r4, #128]	; 0x80
 8028cca:	e8bd 87f0 	ldmia.w	sp!, {r4, r5, r6, r7, r8, r9, sl, pc}
 8028cce:	2305      	movs	r3, #5
 8028cd0:	f8c4 a064 	str.w	sl, [r4, #100]	; 0x64
 8028cd4:	f8a4 5068 	strh.w	r5, [r4, #104]	; 0x68
 8028cd8:	f884 3081 	strb.w	r3, [r4, #129]	; 0x81
 8028cdc:	2300      	movs	r3, #0
 8028cde:	f8c4 905c 	str.w	r9, [r4, #92]	; 0x5c
 8028ce2:	f8c4 3084 	str.w	r3, [r4, #132]	; 0x84
 8028ce6:	f8a4 506a 	strh.w	r5, [r4, #106]	; 0x6a
 8028cea:	f8a4 5062 	strh.w	r5, [r4, #98]	; 0x62
 8028cee:	f8a4 5060 	strh.w	r5, [r4, #96]	; 0x60
 8028cf2:	e9c4 331c 	strd	r3, r3, [r4, #112]	; 0x70
 8028cf6:	6823      	ldr	r3, [r4, #0]
 8028cf8:	68da      	ldr	r2, [r3, #12]
 8028cfa:	f422 22c0 	bic.w	r2, r2, #393216	; 0x60000
 8028cfe:	60da      	str	r2, [r3, #12]
 8028d00:	685a      	ldr	r2, [r3, #4]
 8028d02:	0c12      	lsrs	r2, r2, #16
 8028d04:	0412      	lsls	r2, r2, #16
 8028d06:	432a      	orrs	r2, r5
 8028d08:	605a      	str	r2, [r3, #4]
 8028d0a:	681a      	ldr	r2, [r3, #0]
 8028d0c:	f042 0201 	orr.w	r2, r2, #1
 8028d10:	601a      	str	r2, [r3, #0]
 8028d12:	6862      	ldr	r2, [r4, #4]
 8028d14:	f5b2 0f80 	cmp.w	r2, #4194304	; 0x400000
 8028d18:	d103      	bne.n	8028d22 <HAL_SPI_TransmitReceive+0xa6>
 8028d1a:	681a      	ldr	r2, [r3, #0]
 8028d1c:	f442 7200 	orr.w	r2, r2, #512	; 0x200
 8028d20:	601a      	str	r2, [r3, #0]
 8028d22:	68e3      	ldr	r3, [r4, #12]
 8028d24:	2b0f      	cmp	r3, #15
 8028d26:	d95e      	bls.n	8028de6 <HAL_SPI_TransmitReceive+0x16a>
 8028d28:	46a8      	mov	r8, r5
 8028d2a:	f248 0908 	movw	r9, #32776	; 0x8008
 8028d2e:	6822      	ldr	r2, [r4, #0]
 8028d30:	6953      	ldr	r3, [r2, #20]
 8028d32:	0799      	lsls	r1, r3, #30
 8028d34:	d50e      	bpl.n	8028d54 <HAL_SPI_TransmitReceive+0xd8>
 8028d36:	b16d      	cbz	r5, 8028d54 <HAL_SPI_TransmitReceive+0xd8>
 8028d38:	6de3      	ldr	r3, [r4, #92]	; 0x5c
 8028d3a:	f853 1b04 	ldr.w	r1, [r3], #4
 8028d3e:	6211      	str	r1, [r2, #32]
 8028d40:	65e3      	str	r3, [r4, #92]	; 0x5c
 8028d42:	f8b4 3062 	ldrh.w	r3, [r4, #98]	; 0x62
 8028d46:	3b01      	subs	r3, #1
 8028d48:	b29b      	uxth	r3, r3
 8028d4a:	f8a4 3062 	strh.w	r3, [r4, #98]	; 0x62
 8028d4e:	f8b4 5062 	ldrh.w	r5, [r4, #98]	; 0x62
 8028d52:	b2ad      	uxth	r5, r5
 8028d54:	6953      	ldr	r3, [r2, #20]
 8028d56:	ea13 0f09 	tst.w	r3, r9
 8028d5a:	d011      	beq.n	8028d80 <HAL_SPI_TransmitReceive+0x104>
 8028d5c:	f1b8 0f00 	cmp.w	r8, #0
 8028d60:	d00e      	beq.n	8028d80 <HAL_SPI_TransmitReceive+0x104>
 8028d62:	6b12      	ldr	r2, [r2, #48]	; 0x30
 8028d64:	6e63      	ldr	r3, [r4, #100]	; 0x64
 8028d66:	f843 2b04 	str.w	r2, [r3], #4
 8028d6a:	6663      	str	r3, [r4, #100]	; 0x64
 8028d6c:	f8b4 306a 	ldrh.w	r3, [r4, #106]	; 0x6a
 8028d70:	3b01      	subs	r3, #1
 8028d72:	b29b      	uxth	r3, r3
 8028d74:	f8a4 306a 	strh.w	r3, [r4, #106]	; 0x6a
 8028d78:	f8b4 806a 	ldrh.w	r8, [r4, #106]	; 0x6a
 8028d7c:	fa1f f888 	uxth.w	r8, r8
 8028d80:	f7fd fd02 	bl	8026788 <HAL_GetTick>
 8028d84:	1bc0      	subs	r0, r0, r7
 8028d86:	42b0      	cmp	r0, r6
 8028d88:	d312      	bcc.n	8028db0 <HAL_SPI_TransmitReceive+0x134>
 8028d8a:	1c72      	adds	r2, r6, #1
 8028d8c:	d012      	beq.n	8028db4 <HAL_SPI_TransmitReceive+0x138>
 8028d8e:	4620      	mov	r0, r4
 8028d90:	f7ff fc70 	bl	8028674 <SPI_CloseTransfer>
 8028d94:	2300      	movs	r3, #0
 8028d96:	2003      	movs	r0, #3
 8028d98:	f884 3080 	strb.w	r3, [r4, #128]	; 0x80
 8028d9c:	f8d4 3084 	ldr.w	r3, [r4, #132]	; 0x84
 8028da0:	f443 7380 	orr.w	r3, r3, #256	; 0x100
 8028da4:	f8c4 3084 	str.w	r3, [r4, #132]	; 0x84
 8028da8:	2301      	movs	r3, #1
 8028daa:	f884 3081 	strb.w	r3, [r4, #129]	; 0x81
 8028dae:	e78c      	b.n	8028cca <HAL_SPI_TransmitReceive+0x4e>
 8028db0:	2e00      	cmp	r6, #0
 8028db2:	d0ec      	beq.n	8028d8e <HAL_SPI_TransmitReceive+0x112>
 8028db4:	ea45 0308 	orr.w	r3, r5, r8
 8028db8:	b29b      	uxth	r3, r3
 8028dba:	2b00      	cmp	r3, #0
 8028dbc:	d1b7      	bne.n	8028d2e <HAL_SPI_TransmitReceive+0xb2>
 8028dbe:	6823      	ldr	r3, [r4, #0]
 8028dc0:	695b      	ldr	r3, [r3, #20]
 8028dc2:	071b      	lsls	r3, r3, #28
 8028dc4:	f140 808b 	bpl.w	8028ede <HAL_SPI_TransmitReceive+0x262>
 8028dc8:	4620      	mov	r0, r4
 8028dca:	f7ff fc53 	bl	8028674 <SPI_CloseTransfer>
 8028dce:	2300      	movs	r3, #0
 8028dd0:	f884 3080 	strb.w	r3, [r4, #128]	; 0x80
 8028dd4:	2301      	movs	r3, #1
 8028dd6:	f884 3081 	strb.w	r3, [r4, #129]	; 0x81
 8028dda:	f8d4 0084 	ldr.w	r0, [r4, #132]	; 0x84
 8028dde:	3800      	subs	r0, #0
 8028de0:	bf18      	it	ne
 8028de2:	2001      	movne	r0, #1
 8028de4:	e771      	b.n	8028cca <HAL_SPI_TransmitReceive+0x4e>
 8028de6:	2b07      	cmp	r3, #7
 8028de8:	d93a      	bls.n	8028e60 <HAL_SPI_TransmitReceive+0x1e4>
 8028dea:	46a9      	mov	r9, r5
 8028dec:	6822      	ldr	r2, [r4, #0]
 8028dee:	6953      	ldr	r3, [r2, #20]
 8028df0:	079b      	lsls	r3, r3, #30
 8028df2:	d50f      	bpl.n	8028e14 <HAL_SPI_TransmitReceive+0x198>
 8028df4:	b175      	cbz	r5, 8028e14 <HAL_SPI_TransmitReceive+0x198>
 8028df6:	6de3      	ldr	r3, [r4, #92]	; 0x5c
 8028df8:	f833 1b02 	ldrh.w	r1, [r3], #2
 8028dfc:	f8a8 1020 	strh.w	r1, [r8, #32]
 8028e00:	65e3      	str	r3, [r4, #92]	; 0x5c
 8028e02:	f8b4 3062 	ldrh.w	r3, [r4, #98]	; 0x62
 8028e06:	3b01      	subs	r3, #1
 8028e08:	b29b      	uxth	r3, r3
 8028e0a:	f8a4 3062 	strh.w	r3, [r4, #98]	; 0x62
 8028e0e:	f8b4 5062 	ldrh.w	r5, [r4, #98]	; 0x62
 8028e12:	b2ad      	uxth	r5, r5
 8028e14:	6953      	ldr	r3, [r2, #20]
 8028e16:	07d8      	lsls	r0, r3, #31
 8028e18:	d512      	bpl.n	8028e40 <HAL_SPI_TransmitReceive+0x1c4>
 8028e1a:	f1b9 0f00 	cmp.w	r9, #0
 8028e1e:	d00f      	beq.n	8028e40 <HAL_SPI_TransmitReceive+0x1c4>
 8028e20:	f8b8 2030 	ldrh.w	r2, [r8, #48]	; 0x30
 8028e24:	6e63      	ldr	r3, [r4, #100]	; 0x64
 8028e26:	f823 2b02 	strh.w	r2, [r3], #2
 8028e2a:	6663      	str	r3, [r4, #100]	; 0x64
 8028e2c:	f8b4 306a 	ldrh.w	r3, [r4, #106]	; 0x6a
 8028e30:	3b01      	subs	r3, #1
 8028e32:	b29b      	uxth	r3, r3
 8028e34:	f8a4 306a 	strh.w	r3, [r4, #106]	; 0x6a
 8028e38:	f8b4 906a 	ldrh.w	r9, [r4, #106]	; 0x6a
 8028e3c:	fa1f f989 	uxth.w	r9, r9
 8028e40:	f7fd fca2 	bl	8026788 <HAL_GetTick>
 8028e44:	1bc0      	subs	r0, r0, r7
 8028e46:	42b0      	cmp	r0, r6
 8028e48:	d307      	bcc.n	8028e5a <HAL_SPI_TransmitReceive+0x1de>
 8028e4a:	1c71      	adds	r1, r6, #1
 8028e4c:	d19f      	bne.n	8028d8e <HAL_SPI_TransmitReceive+0x112>
 8028e4e:	ea45 0309 	orr.w	r3, r5, r9
 8028e52:	b29b      	uxth	r3, r3
 8028e54:	2b00      	cmp	r3, #0
 8028e56:	d1c9      	bne.n	8028dec <HAL_SPI_TransmitReceive+0x170>
 8028e58:	e7b1      	b.n	8028dbe <HAL_SPI_TransmitReceive+0x142>
 8028e5a:	2e00      	cmp	r6, #0
 8028e5c:	d1f7      	bne.n	8028e4e <HAL_SPI_TransmitReceive+0x1d2>
 8028e5e:	e796      	b.n	8028d8e <HAL_SPI_TransmitReceive+0x112>
 8028e60:	46a8      	mov	r8, r5
 8028e62:	6823      	ldr	r3, [r4, #0]
 8028e64:	695a      	ldr	r2, [r3, #20]
 8028e66:	0792      	lsls	r2, r2, #30
 8028e68:	d510      	bpl.n	8028e8c <HAL_SPI_TransmitReceive+0x210>
 8028e6a:	b17d      	cbz	r5, 8028e8c <HAL_SPI_TransmitReceive+0x210>
 8028e6c:	6de2      	ldr	r2, [r4, #92]	; 0x5c
 8028e6e:	7812      	ldrb	r2, [r2, #0]
 8028e70:	f883 2020 	strb.w	r2, [r3, #32]
 8028e74:	6de3      	ldr	r3, [r4, #92]	; 0x5c
 8028e76:	3301      	adds	r3, #1
 8028e78:	65e3      	str	r3, [r4, #92]	; 0x5c
 8028e7a:	f8b4 3062 	ldrh.w	r3, [r4, #98]	; 0x62
 8028e7e:	3b01      	subs	r3, #1
 8028e80:	b29b      	uxth	r3, r3
 8028e82:	f8a4 3062 	strh.w	r3, [r4, #98]	; 0x62
 8028e86:	f8b4 5062 	ldrh.w	r5, [r4, #98]	; 0x62
 8028e8a:	b2ad      	uxth	r5, r5
 8028e8c:	6823      	ldr	r3, [r4, #0]
 8028e8e:	695a      	ldr	r2, [r3, #20]
 8028e90:	07d0      	lsls	r0, r2, #31
 8028e92:	d513      	bpl.n	8028ebc <HAL_SPI_TransmitReceive+0x240>
 8028e94:	f1b8 0f00 	cmp.w	r8, #0
 8028e98:	d010      	beq.n	8028ebc <HAL_SPI_TransmitReceive+0x240>
 8028e9a:	f893 3030 	ldrb.w	r3, [r3, #48]	; 0x30
 8028e9e:	6e62      	ldr	r2, [r4, #100]	; 0x64
 8028ea0:	7013      	strb	r3, [r2, #0]
 8028ea2:	6e63      	ldr	r3, [r4, #100]	; 0x64
 8028ea4:	3301      	adds	r3, #1
 8028ea6:	6663      	str	r3, [r4, #100]	; 0x64
 8028ea8:	f8b4 306a 	ldrh.w	r3, [r4, #106]	; 0x6a
 8028eac:	3b01      	subs	r3, #1
 8028eae:	b29b      	uxth	r3, r3
 8028eb0:	f8a4 306a 	strh.w	r3, [r4, #106]	; 0x6a
 8028eb4:	f8b4 806a 	ldrh.w	r8, [r4, #106]	; 0x6a
 8028eb8:	fa1f f888 	uxth.w	r8, r8
 8028ebc:	f7fd fc64 	bl	8026788 <HAL_GetTick>
 8028ec0:	1bc0      	subs	r0, r0, r7
 8028ec2:	42b0      	cmp	r0, r6
 8028ec4:	d308      	bcc.n	8028ed8 <HAL_SPI_TransmitReceive+0x25c>
 8028ec6:	1c71      	adds	r1, r6, #1
 8028ec8:	f47f af61 	bne.w	8028d8e <HAL_SPI_TransmitReceive+0x112>
 8028ecc:	ea45 0308 	orr.w	r3, r5, r8
 8028ed0:	b29b      	uxth	r3, r3
 8028ed2:	2b00      	cmp	r3, #0
 8028ed4:	d1c5      	bne.n	8028e62 <HAL_SPI_TransmitReceive+0x1e6>
 8028ed6:	e772      	b.n	8028dbe <HAL_SPI_TransmitReceive+0x142>
 8028ed8:	2e00      	cmp	r6, #0
 8028eda:	d1f7      	bne.n	8028ecc <HAL_SPI_TransmitReceive+0x250>
 8028edc:	e757      	b.n	8028d8e <HAL_SPI_TransmitReceive+0x112>
 8028ede:	f7fd fc53 	bl	8026788 <HAL_GetTick>
 8028ee2:	1bc0      	subs	r0, r0, r7
 8028ee4:	4286      	cmp	r6, r0
 8028ee6:	d809      	bhi.n	8028efc <HAL_SPI_TransmitReceive+0x280>
 8028ee8:	1c72      	adds	r2, r6, #1
 8028eea:	f43f af68 	beq.w	8028dbe <HAL_SPI_TransmitReceive+0x142>
 8028eee:	f8d4 3084 	ldr.w	r3, [r4, #132]	; 0x84
 8028ef2:	f043 0320 	orr.w	r3, r3, #32
 8028ef6:	f8c4 3084 	str.w	r3, [r4, #132]	; 0x84
 8028efa:	e765      	b.n	8028dc8 <HAL_SPI_TransmitReceive+0x14c>
 8028efc:	2e00      	cmp	r6, #0
 8028efe:	f47f af5e 	bne.w	8028dbe <HAL_SPI_TransmitReceive+0x142>
 8028f02:	e7f4      	b.n	8028eee <HAL_SPI_TransmitReceive+0x272>

08028f04 <HAL_SPI_TxCpltCallback>:
 8028f04:	4770      	bx	lr

08028f06 <HAL_SPI_RxCpltCallback>:
 8028f06:	4770      	bx	lr

08028f08 <HAL_SPI_TxRxCpltCallback>:
 8028f08:	4770      	bx	lr

08028f0a <HAL_SPI_ErrorCallback>:
 8028f0a:	4770      	bx	lr

08028f0c <SPI_DMAAbortOnError>:
 8028f0c:	b508      	push	{r3, lr}
 8028f0e:	6b80      	ldr	r0, [r0, #56]	; 0x38
 8028f10:	2300      	movs	r3, #0
 8028f12:	f8a0 306a 	strh.w	r3, [r0, #106]	; 0x6a
 8028f16:	f8a0 3062 	strh.w	r3, [r0, #98]	; 0x62
 8028f1a:	2301      	movs	r3, #1
 8028f1c:	f880 3081 	strb.w	r3, [r0, #129]	; 0x81
 8028f20:	f7ff fff3 	bl	8028f0a <HAL_SPI_ErrorCallback>
 8028f24:	bd08      	pop	{r3, pc}

08028f26 <HAL_SPI_SuspendCallback>:
 8028f26:	4770      	bx	lr

08028f28 <HAL_SPI_IRQHandler>:
 8028f28:	e92d 47f0 	stmdb	sp!, {r4, r5, r6, r7, r8, r9, sl, lr}
 8028f2c:	6806      	ldr	r6, [r0, #0]
 8028f2e:	4604      	mov	r4, r0
 8028f30:	6933      	ldr	r3, [r6, #16]
 8028f32:	6972      	ldr	r2, [r6, #20]
 8028f34:	f8d6 8008 	ldr.w	r8, [r6, #8]
 8028f38:	0511      	lsls	r1, r2, #20
 8028f3a:	f890 7081 	ldrb.w	r7, [r0, #129]	; 0x81
 8028f3e:	ea03 0502 	and.w	r5, r3, r2
 8028f42:	b2ff      	uxtb	r7, r7
 8028f44:	d509      	bpl.n	8028f5a <HAL_SPI_IRQHandler+0x32>
 8028f46:	071a      	lsls	r2, r3, #28
 8028f48:	d507      	bpl.n	8028f5a <HAL_SPI_IRQHandler+0x32>
 8028f4a:	69b3      	ldr	r3, [r6, #24]
 8028f4c:	f443 6300 	orr.w	r3, r3, #2048	; 0x800
 8028f50:	61b3      	str	r3, [r6, #24]
 8028f52:	f7ff ffe8 	bl	8028f26 <HAL_SPI_SuspendCallback>
 8028f56:	e8bd 87f0 	ldmia.w	sp!, {r4, r5, r6, r7, r8, r9, sl, pc}
 8028f5a:	f005 0364 	and.w	r3, r5, #100	; 0x64
 8028f5e:	2b04      	cmp	r3, #4
 8028f60:	d118      	bne.n	8028f94 <HAL_SPI_IRQHandler+0x6c>
 8028f62:	6f63      	ldr	r3, [r4, #116]	; 0x74
 8028f64:	4620      	mov	r0, r4
 8028f66:	4798      	blx	r3
 8028f68:	6f23      	ldr	r3, [r4, #112]	; 0x70
 8028f6a:	4620      	mov	r0, r4
 8028f6c:	4798      	blx	r3
 8028f6e:	2301      	movs	r3, #1
 8028f70:	f005 0945 	and.w	r9, r5, #69	; 0x45
 8028f74:	f1b9 0f01 	cmp.w	r9, #1
 8028f78:	d103      	bne.n	8028f82 <HAL_SPI_IRQHandler+0x5a>
 8028f7a:	6f23      	ldr	r3, [r4, #112]	; 0x70
 8028f7c:	4620      	mov	r0, r4
 8028f7e:	4798      	blx	r3
 8028f80:	464b      	mov	r3, r9
 8028f82:	f005 0226 	and.w	r2, r5, #38	; 0x26
 8028f86:	2a02      	cmp	r2, #2
 8028f88:	d106      	bne.n	8028f98 <HAL_SPI_IRQHandler+0x70>
 8028f8a:	6f63      	ldr	r3, [r4, #116]	; 0x74
 8028f8c:	4620      	mov	r0, r4
 8028f8e:	e8bd 47f0 	ldmia.w	sp!, {r4, r5, r6, r7, r8, r9, sl, lr}
 8028f92:	4718      	bx	r3
 8028f94:	2300      	movs	r3, #0
 8028f96:	e7eb      	b.n	8028f70 <HAL_SPI_IRQHandler+0x48>
 8028f98:	2b00      	cmp	r3, #0
 8028f9a:	d1dc      	bne.n	8028f56 <HAL_SPI_IRQHandler+0x2e>
 8028f9c:	072b      	lsls	r3, r5, #28
 8028f9e:	d551      	bpl.n	8029044 <HAL_SPI_IRQHandler+0x11c>
 8028fa0:	6823      	ldr	r3, [r4, #0]
 8028fa2:	699a      	ldr	r2, [r3, #24]
 8028fa4:	f042 0208 	orr.w	r2, r2, #8
 8028fa8:	619a      	str	r2, [r3, #24]
 8028faa:	699a      	ldr	r2, [r3, #24]
 8028fac:	f042 0210 	orr.w	r2, r2, #16
 8028fb0:	619a      	str	r2, [r3, #24]
 8028fb2:	699a      	ldr	r2, [r3, #24]
 8028fb4:	f442 6200 	orr.w	r2, r2, #2048	; 0x800
 8028fb8:	619a      	str	r2, [r3, #24]
 8028fba:	691a      	ldr	r2, [r3, #16]
 8028fbc:	f022 0208 	bic.w	r2, r2, #8
 8028fc0:	611a      	str	r2, [r3, #16]
 8028fc2:	689b      	ldr	r3, [r3, #8]
 8028fc4:	f413 4f40 	tst.w	r3, #49152	; 0xc000
 8028fc8:	d01a      	beq.n	8029000 <HAL_SPI_IRQHandler+0xd8>
 8028fca:	4620      	mov	r0, r4
 8028fcc:	f7ff fb52 	bl	8028674 <SPI_CloseTransfer>
 8028fd0:	2301      	movs	r3, #1
 8028fd2:	f884 3081 	strb.w	r3, [r4, #129]	; 0x81
 8028fd6:	f8d4 3084 	ldr.w	r3, [r4, #132]	; 0x84
 8028fda:	b323      	cbz	r3, 8029026 <HAL_SPI_IRQHandler+0xfe>
 8028fdc:	f7ff ff95 	bl	8028f0a <HAL_SPI_ErrorCallback>
 8028fe0:	e7b9      	b.n	8028f56 <HAL_SPI_IRQHandler+0x2e>
 8028fe2:	68e2      	ldr	r2, [r4, #12]
 8028fe4:	6e63      	ldr	r3, [r4, #100]	; 0x64
 8028fe6:	2a0f      	cmp	r2, #15
 8028fe8:	d910      	bls.n	802900c <HAL_SPI_IRQHandler+0xe4>
 8028fea:	6822      	ldr	r2, [r4, #0]
 8028fec:	6b12      	ldr	r2, [r2, #48]	; 0x30
 8028fee:	f843 2b04 	str.w	r2, [r3], #4
 8028ff2:	6663      	str	r3, [r4, #100]	; 0x64
 8028ff4:	f8b4 306a 	ldrh.w	r3, [r4, #106]	; 0x6a
 8028ff8:	3b01      	subs	r3, #1
 8028ffa:	b29b      	uxth	r3, r3
 8028ffc:	f8a4 306a 	strh.w	r3, [r4, #106]	; 0x6a
 8029000:	f8b4 306a 	ldrh.w	r3, [r4, #106]	; 0x6a
 8029004:	b29b      	uxth	r3, r3
 8029006:	2b00      	cmp	r3, #0
 8029008:	d1eb      	bne.n	8028fe2 <HAL_SPI_IRQHandler+0xba>
 802900a:	e7de      	b.n	8028fca <HAL_SPI_IRQHandler+0xa2>
 802900c:	2a07      	cmp	r2, #7
 802900e:	d903      	bls.n	8029018 <HAL_SPI_IRQHandler+0xf0>
 8029010:	8e32      	ldrh	r2, [r6, #48]	; 0x30
 8029012:	f823 2b02 	strh.w	r2, [r3], #2
 8029016:	e7ec      	b.n	8028ff2 <HAL_SPI_IRQHandler+0xca>
 8029018:	6822      	ldr	r2, [r4, #0]
 802901a:	f892 2030 	ldrb.w	r2, [r2, #48]	; 0x30
 802901e:	701a      	strb	r2, [r3, #0]
 8029020:	6e63      	ldr	r3, [r4, #100]	; 0x64
 8029022:	3301      	adds	r3, #1
 8029024:	e7e5      	b.n	8028ff2 <HAL_SPI_IRQHandler+0xca>
 8029026:	2f05      	cmp	r7, #5
 8029028:	d102      	bne.n	8029030 <HAL_SPI_IRQHandler+0x108>
 802902a:	f7ff ff6d 	bl	8028f08 <HAL_SPI_TxRxCpltCallback>
 802902e:	e792      	b.n	8028f56 <HAL_SPI_IRQHandler+0x2e>
 8029030:	2f04      	cmp	r7, #4
 8029032:	d102      	bne.n	802903a <HAL_SPI_IRQHandler+0x112>
 8029034:	f7ff ff67 	bl	8028f06 <HAL_SPI_RxCpltCallback>
 8029038:	e78d      	b.n	8028f56 <HAL_SPI_IRQHandler+0x2e>
 802903a:	2f03      	cmp	r7, #3
 802903c:	d18b      	bne.n	8028f56 <HAL_SPI_IRQHandler+0x2e>
 802903e:	f7ff ff61 	bl	8028f04 <HAL_SPI_TxCpltCallback>
 8029042:	e788      	b.n	8028f56 <HAL_SPI_IRQHandler+0x2e>
 8029044:	f415 7f58 	tst.w	r5, #864	; 0x360
 8029048:	d085      	beq.n	8028f56 <HAL_SPI_IRQHandler+0x2e>
 802904a:	0668      	lsls	r0, r5, #25
 802904c:	d50a      	bpl.n	8029064 <HAL_SPI_IRQHandler+0x13c>
 802904e:	f8d4 3084 	ldr.w	r3, [r4, #132]	; 0x84
 8029052:	6822      	ldr	r2, [r4, #0]
 8029054:	f043 0304 	orr.w	r3, r3, #4
 8029058:	f8c4 3084 	str.w	r3, [r4, #132]	; 0x84
 802905c:	6993      	ldr	r3, [r2, #24]
 802905e:	f043 0340 	orr.w	r3, r3, #64	; 0x40
 8029062:	6193      	str	r3, [r2, #24]
 8029064:	05a9      	lsls	r1, r5, #22
 8029066:	d50a      	bpl.n	802907e <HAL_SPI_IRQHandler+0x156>
 8029068:	f8d4 3084 	ldr.w	r3, [r4, #132]	; 0x84
 802906c:	6822      	ldr	r2, [r4, #0]
 802906e:	f043 0301 	orr.w	r3, r3, #1
 8029072:	f8c4 3084 	str.w	r3, [r4, #132]	; 0x84
 8029076:	6993      	ldr	r3, [r2, #24]
 8029078:	f443 7300 	orr.w	r3, r3, #512	; 0x200
 802907c:	6193      	str	r3, [r2, #24]
 802907e:	05ea      	lsls	r2, r5, #23
 8029080:	d50a      	bpl.n	8029098 <HAL_SPI_IRQHandler+0x170>
 8029082:	f8d4 3084 	ldr.w	r3, [r4, #132]	; 0x84
 8029086:	6822      	ldr	r2, [r4, #0]
 8029088:	f043 0308 	orr.w	r3, r3, #8
 802908c:	f8c4 3084 	str.w	r3, [r4, #132]	; 0x84
 8029090:	6993      	ldr	r3, [r2, #24]
 8029092:	f443 7380 	orr.w	r3, r3, #256	; 0x100
 8029096:	6193      	str	r3, [r2, #24]
 8029098:	06ab      	lsls	r3, r5, #26
 802909a:	d50a      	bpl.n	80290b2 <HAL_SPI_IRQHandler+0x18a>
 802909c:	f8d4 3084 	ldr.w	r3, [r4, #132]	; 0x84
 80290a0:	6822      	ldr	r2, [r4, #0]
 80290a2:	f043 0380 	orr.w	r3, r3, #128	; 0x80
 80290a6:	f8c4 3084 	str.w	r3, [r4, #132]	; 0x84
 80290aa:	6993      	ldr	r3, [r2, #24]
 80290ac:	f043 0320 	orr.w	r3, r3, #32
 80290b0:	6193      	str	r3, [r2, #24]
 80290b2:	f8d4 3084 	ldr.w	r3, [r4, #132]	; 0x84
 80290b6:	2b00      	cmp	r3, #0
 80290b8:	f43f af4d 	beq.w	8028f56 <HAL_SPI_IRQHandler+0x2e>
 80290bc:	6823      	ldr	r3, [r4, #0]
 80290be:	f408 4840 	and.w	r8, r8, #49152	; 0xc000
 80290c2:	681a      	ldr	r2, [r3, #0]
 80290c4:	f5b8 4f40 	cmp.w	r8, #49152	; 0xc000
 80290c8:	f022 0201 	bic.w	r2, r2, #1
 80290cc:	601a      	str	r2, [r3, #0]
 80290ce:	691a      	ldr	r2, [r3, #16]
 80290d0:	f422 725a 	bic.w	r2, r2, #872	; 0x368
 80290d4:	f022 0203 	bic.w	r2, r2, #3
 80290d8:	611a      	str	r2, [r3, #16]
 80290da:	d122      	bne.n	8029122 <HAL_SPI_IRQHandler+0x1fa>
 80290dc:	689a      	ldr	r2, [r3, #8]
 80290de:	6fe0      	ldr	r0, [r4, #124]	; 0x7c
 80290e0:	f422 4240 	bic.w	r2, r2, #49152	; 0xc000
 80290e4:	609a      	str	r2, [r3, #8]
 80290e6:	b150      	cbz	r0, 80290fe <HAL_SPI_IRQHandler+0x1d6>
 80290e8:	4b10      	ldr	r3, [pc, #64]	; (802912c <HAL_SPI_IRQHandler+0x204>)
 80290ea:	6503      	str	r3, [r0, #80]	; 0x50
 80290ec:	f7fd fc1a 	bl	8026924 <HAL_DMA_Abort_IT>
 80290f0:	b128      	cbz	r0, 80290fe <HAL_SPI_IRQHandler+0x1d6>
 80290f2:	f8d4 3084 	ldr.w	r3, [r4, #132]	; 0x84
 80290f6:	f043 0340 	orr.w	r3, r3, #64	; 0x40
 80290fa:	f8c4 3084 	str.w	r3, [r4, #132]	; 0x84
 80290fe:	6fa0      	ldr	r0, [r4, #120]	; 0x78
 8029100:	2800      	cmp	r0, #0
 8029102:	f43f af28 	beq.w	8028f56 <HAL_SPI_IRQHandler+0x2e>
 8029106:	4b09      	ldr	r3, [pc, #36]	; (802912c <HAL_SPI_IRQHandler+0x204>)
 8029108:	6503      	str	r3, [r0, #80]	; 0x50
 802910a:	f7fd fc0b 	bl	8026924 <HAL_DMA_Abort_IT>
 802910e:	2800      	cmp	r0, #0
 8029110:	f43f af21 	beq.w	8028f56 <HAL_SPI_IRQHandler+0x2e>
 8029114:	f8d4 3084 	ldr.w	r3, [r4, #132]	; 0x84
 8029118:	f043 0340 	orr.w	r3, r3, #64	; 0x40
 802911c:	f8c4 3084 	str.w	r3, [r4, #132]	; 0x84
 8029120:	e719      	b.n	8028f56 <HAL_SPI_IRQHandler+0x2e>
 8029122:	2301      	movs	r3, #1
 8029124:	4620      	mov	r0, r4
 8029126:	f884 3081 	strb.w	r3, [r4, #129]	; 0x81
 802912a:	e757      	b.n	8028fdc <HAL_SPI_IRQHandler+0xb4>
 802912c:	08028f0d 	.word	0x08028f0d

08029130 <HAL_SRAM_Init>:
 8029130:	b570      	push	{r4, r5, r6, lr}
 8029132:	460e      	mov	r6, r1
 8029134:	4615      	mov	r5, r2
 8029136:	4604      	mov	r4, r0
 8029138:	b350      	cbz	r0, 8029190 <HAL_SRAM_Init+0x60>
 802913a:	f890 3045 	ldrb.w	r3, [r0, #69]	; 0x45
 802913e:	f003 02ff 	and.w	r2, r3, #255	; 0xff
 8029142:	b91b      	cbnz	r3, 802914c <HAL_SRAM_Init+0x1c>
 8029144:	f880 2044 	strb.w	r2, [r0, #68]	; 0x44
 8029148:	f7fd f916 	bl	8026378 <HAL_SRAM_MspInit>
 802914c:	f104 0108 	add.w	r1, r4, #8
 8029150:	6820      	ldr	r0, [r4, #0]
 8029152:	f000 fdb5 	bl	8029cc0 <FMC_NORSRAM_Init>
 8029156:	68a2      	ldr	r2, [r4, #8]
 8029158:	4631      	mov	r1, r6
 802915a:	6820      	ldr	r0, [r4, #0]
 802915c:	f000 fdfa 	bl	8029d54 <FMC_NORSRAM_Timing_Init>
 8029160:	6ae3      	ldr	r3, [r4, #44]	; 0x2c
 8029162:	68a2      	ldr	r2, [r4, #8]
 8029164:	4629      	mov	r1, r5
 8029166:	6860      	ldr	r0, [r4, #4]
 8029168:	f000 fe20 	bl	8029dac <FMC_NORSRAM_Extended_Timing_Init>
 802916c:	6822      	ldr	r2, [r4, #0]
 802916e:	68a1      	ldr	r1, [r4, #8]
 8029170:	2000      	movs	r0, #0
 8029172:	f852 3021 	ldr.w	r3, [r2, r1, lsl #2]
 8029176:	f043 0301 	orr.w	r3, r3, #1
 802917a:	f842 3021 	str.w	r3, [r2, r1, lsl #2]
 802917e:	4a05      	ldr	r2, [pc, #20]	; (8029194 <HAL_SRAM_Init+0x64>)
 8029180:	6813      	ldr	r3, [r2, #0]
 8029182:	f043 4300 	orr.w	r3, r3, #2147483648	; 0x80000000
 8029186:	6013      	str	r3, [r2, #0]
 8029188:	2301      	movs	r3, #1
 802918a:	f884 3045 	strb.w	r3, [r4, #69]	; 0x45
 802918e:	bd70      	pop	{r4, r5, r6, pc}
 8029190:	2001      	movs	r0, #1
 8029192:	e7fc      	b.n	802918e <HAL_SRAM_Init+0x5e>
 8029194:	52004000 	.word	0x52004000

08029198 <HAL_TIM_Base_Start_IT>:
 8029198:	f890 303d 	ldrb.w	r3, [r0, #61]	; 0x3d
 802919c:	2b01      	cmp	r3, #1
 802919e:	d133      	bne.n	8029208 <HAL_TIM_Base_Start_IT+0x70>
 80291a0:	2302      	movs	r3, #2
 80291a2:	f880 303d 	strb.w	r3, [r0, #61]	; 0x3d
 80291a6:	6803      	ldr	r3, [r0, #0]
 80291a8:	68da      	ldr	r2, [r3, #12]
 80291aa:	f042 0201 	orr.w	r2, r2, #1
 80291ae:	60da      	str	r2, [r3, #12]
 80291b0:	4a16      	ldr	r2, [pc, #88]	; (802920c <HAL_TIM_Base_Start_IT+0x74>)
 80291b2:	4293      	cmp	r3, r2
 80291b4:	d01a      	beq.n	80291ec <HAL_TIM_Base_Start_IT+0x54>
 80291b6:	f1b3 4f80 	cmp.w	r3, #1073741824	; 0x40000000
 80291ba:	d017      	beq.n	80291ec <HAL_TIM_Base_Start_IT+0x54>
 80291bc:	f5a2 427c 	sub.w	r2, r2, #64512	; 0xfc00
 80291c0:	4293      	cmp	r3, r2
 80291c2:	d013      	beq.n	80291ec <HAL_TIM_Base_Start_IT+0x54>
 80291c4:	f502 6280 	add.w	r2, r2, #1024	; 0x400
 80291c8:	4293      	cmp	r3, r2
 80291ca:	d00f      	beq.n	80291ec <HAL_TIM_Base_Start_IT+0x54>
 80291cc:	f502 6280 	add.w	r2, r2, #1024	; 0x400
 80291d0:	4293      	cmp	r3, r2
 80291d2:	d00b      	beq.n	80291ec <HAL_TIM_Base_Start_IT+0x54>
 80291d4:	f502 4278 	add.w	r2, r2, #63488	; 0xf800
 80291d8:	4293      	cmp	r3, r2
 80291da:	d007      	beq.n	80291ec <HAL_TIM_Base_Start_IT+0x54>
 80291dc:	f5a2 426c 	sub.w	r2, r2, #60416	; 0xec00
 80291e0:	4293      	cmp	r3, r2
 80291e2:	d003      	beq.n	80291ec <HAL_TIM_Base_Start_IT+0x54>
 80291e4:	f502 3294 	add.w	r2, r2, #75776	; 0x12800
 80291e8:	4293      	cmp	r3, r2
 80291ea:	d107      	bne.n	80291fc <HAL_TIM_Base_Start_IT+0x64>
 80291ec:	6899      	ldr	r1, [r3, #8]
 80291ee:	4a08      	ldr	r2, [pc, #32]	; (8029210 <HAL_TIM_Base_Start_IT+0x78>)
 80291f0:	400a      	ands	r2, r1
 80291f2:	2a06      	cmp	r2, #6
 80291f4:	d006      	beq.n	8029204 <HAL_TIM_Base_Start_IT+0x6c>
 80291f6:	f5b2 3f80 	cmp.w	r2, #65536	; 0x10000
 80291fa:	d003      	beq.n	8029204 <HAL_TIM_Base_Start_IT+0x6c>
 80291fc:	681a      	ldr	r2, [r3, #0]
 80291fe:	f042 0201 	orr.w	r2, r2, #1
 8029202:	601a      	str	r2, [r3, #0]
 8029204:	2000      	movs	r0, #0
 8029206:	4770      	bx	lr
 8029208:	2001      	movs	r0, #1
 802920a:	4770      	bx	lr
 802920c:	40010000 	.word	0x40010000
 8029210:	00010007 	.word	0x00010007

08029214 <HAL_TIM_OC_DelayElapsedCallback>:
 8029214:	4770      	bx	lr

08029216 <HAL_TIM_IC_CaptureCallback>:
 8029216:	4770      	bx	lr

08029218 <HAL_TIM_PWM_PulseFinishedCallback>:
 8029218:	4770      	bx	lr

0802921a <HAL_TIM_TriggerCallback>:
 802921a:	4770      	bx	lr

0802921c <HAL_TIM_IRQHandler>:
 802921c:	6803      	ldr	r3, [r0, #0]
 802921e:	691a      	ldr	r2, [r3, #16]
 8029220:	0791      	lsls	r1, r2, #30
 8029222:	b510      	push	{r4, lr}
 8029224:	4604      	mov	r4, r0
 8029226:	d50f      	bpl.n	8029248 <HAL_TIM_IRQHandler+0x2c>
 8029228:	68da      	ldr	r2, [r3, #12]
 802922a:	0792      	lsls	r2, r2, #30
 802922c:	d50c      	bpl.n	8029248 <HAL_TIM_IRQHandler+0x2c>
 802922e:	f06f 0202 	mvn.w	r2, #2
 8029232:	611a      	str	r2, [r3, #16]
 8029234:	2201      	movs	r2, #1
 8029236:	7702      	strb	r2, [r0, #28]
 8029238:	699b      	ldr	r3, [r3, #24]
 802923a:	0799      	lsls	r1, r3, #30
 802923c:	f000 8085 	beq.w	802934a <HAL_TIM_IRQHandler+0x12e>
 8029240:	f7ff ffe9 	bl	8029216 <HAL_TIM_IC_CaptureCallback>
 8029244:	2300      	movs	r3, #0
 8029246:	7723      	strb	r3, [r4, #28]
 8029248:	6823      	ldr	r3, [r4, #0]
 802924a:	691a      	ldr	r2, [r3, #16]
 802924c:	0752      	lsls	r2, r2, #29
 802924e:	d510      	bpl.n	8029272 <HAL_TIM_IRQHandler+0x56>
 8029250:	68da      	ldr	r2, [r3, #12]
 8029252:	0750      	lsls	r0, r2, #29
 8029254:	d50d      	bpl.n	8029272 <HAL_TIM_IRQHandler+0x56>
 8029256:	f06f 0204 	mvn.w	r2, #4
 802925a:	4620      	mov	r0, r4
 802925c:	611a      	str	r2, [r3, #16]
 802925e:	2202      	movs	r2, #2
 8029260:	7722      	strb	r2, [r4, #28]
 8029262:	699b      	ldr	r3, [r3, #24]
 8029264:	f413 7f40 	tst.w	r3, #768	; 0x300
 8029268:	d075      	beq.n	8029356 <HAL_TIM_IRQHandler+0x13a>
 802926a:	f7ff ffd4 	bl	8029216 <HAL_TIM_IC_CaptureCallback>
 802926e:	2300      	movs	r3, #0
 8029270:	7723      	strb	r3, [r4, #28]
 8029272:	6823      	ldr	r3, [r4, #0]
 8029274:	691a      	ldr	r2, [r3, #16]
 8029276:	0711      	lsls	r1, r2, #28
 8029278:	d50f      	bpl.n	802929a <HAL_TIM_IRQHandler+0x7e>
 802927a:	68da      	ldr	r2, [r3, #12]
 802927c:	0712      	lsls	r2, r2, #28
 802927e:	d50c      	bpl.n	802929a <HAL_TIM_IRQHandler+0x7e>
 8029280:	f06f 0208 	mvn.w	r2, #8
 8029284:	4620      	mov	r0, r4
 8029286:	611a      	str	r2, [r3, #16]
 8029288:	2204      	movs	r2, #4
 802928a:	7722      	strb	r2, [r4, #28]
 802928c:	69db      	ldr	r3, [r3, #28]
 802928e:	079b      	lsls	r3, r3, #30
 8029290:	d067      	beq.n	8029362 <HAL_TIM_IRQHandler+0x146>
 8029292:	f7ff ffc0 	bl	8029216 <HAL_TIM_IC_CaptureCallback>
 8029296:	2300      	movs	r3, #0
 8029298:	7723      	strb	r3, [r4, #28]
 802929a:	6823      	ldr	r3, [r4, #0]
 802929c:	691a      	ldr	r2, [r3, #16]
 802929e:	06d0      	lsls	r0, r2, #27
 80292a0:	d510      	bpl.n	80292c4 <HAL_TIM_IRQHandler+0xa8>
 80292a2:	68da      	ldr	r2, [r3, #12]
 80292a4:	06d1      	lsls	r1, r2, #27
 80292a6:	d50d      	bpl.n	80292c4 <HAL_TIM_IRQHandler+0xa8>
 80292a8:	f06f 0210 	mvn.w	r2, #16
 80292ac:	4620      	mov	r0, r4
 80292ae:	611a      	str	r2, [r3, #16]
 80292b0:	2208      	movs	r2, #8
 80292b2:	7722      	strb	r2, [r4, #28]
 80292b4:	69db      	ldr	r3, [r3, #28]
 80292b6:	f413 7f40 	tst.w	r3, #768	; 0x300
 80292ba:	d058      	beq.n	802936e <HAL_TIM_IRQHandler+0x152>
 80292bc:	f7ff ffab 	bl	8029216 <HAL_TIM_IC_CaptureCallback>
 80292c0:	2300      	movs	r3, #0
 80292c2:	7723      	strb	r3, [r4, #28]
 80292c4:	6823      	ldr	r3, [r4, #0]
 80292c6:	691a      	ldr	r2, [r3, #16]
 80292c8:	07d2      	lsls	r2, r2, #31
 80292ca:	d508      	bpl.n	80292de <HAL_TIM_IRQHandler+0xc2>
 80292cc:	68da      	ldr	r2, [r3, #12]
 80292ce:	07d0      	lsls	r0, r2, #31
 80292d0:	d505      	bpl.n	80292de <HAL_TIM_IRQHandler+0xc2>
 80292d2:	f06f 0201 	mvn.w	r2, #1
 80292d6:	4620      	mov	r0, r4
 80292d8:	611a      	str	r2, [r3, #16]
 80292da:	f7fb fb45 	bl	8024968 <HAL_TIM_PeriodElapsedCallback>
 80292de:	6823      	ldr	r3, [r4, #0]
 80292e0:	691a      	ldr	r2, [r3, #16]
 80292e2:	0611      	lsls	r1, r2, #24
 80292e4:	d508      	bpl.n	80292f8 <HAL_TIM_IRQHandler+0xdc>
 80292e6:	68da      	ldr	r2, [r3, #12]
 80292e8:	0612      	lsls	r2, r2, #24
 80292ea:	d505      	bpl.n	80292f8 <HAL_TIM_IRQHandler+0xdc>
 80292ec:	f06f 0280 	mvn.w	r2, #128	; 0x80
 80292f0:	4620      	mov	r0, r4
 80292f2:	611a      	str	r2, [r3, #16]
 80292f4:	f000 f923 	bl	802953e <HAL_TIMEx_BreakCallback>
 80292f8:	6823      	ldr	r3, [r4, #0]
 80292fa:	691a      	ldr	r2, [r3, #16]
 80292fc:	05d0      	lsls	r0, r2, #23
 80292fe:	d508      	bpl.n	8029312 <HAL_TIM_IRQHandler+0xf6>
 8029300:	68da      	ldr	r2, [r3, #12]
 8029302:	0611      	lsls	r1, r2, #24
 8029304:	d505      	bpl.n	8029312 <HAL_TIM_IRQHandler+0xf6>
 8029306:	f46f 7280 	mvn.w	r2, #256	; 0x100
 802930a:	4620      	mov	r0, r4
 802930c:	611a      	str	r2, [r3, #16]
 802930e:	f000 f917 	bl	8029540 <HAL_TIMEx_Break2Callback>
 8029312:	6823      	ldr	r3, [r4, #0]
 8029314:	691a      	ldr	r2, [r3, #16]
 8029316:	0652      	lsls	r2, r2, #25
 8029318:	d508      	bpl.n	802932c <HAL_TIM_IRQHandler+0x110>
 802931a:	68da      	ldr	r2, [r3, #12]
 802931c:	0650      	lsls	r0, r2, #25
 802931e:	d505      	bpl.n	802932c <HAL_TIM_IRQHandler+0x110>
 8029320:	f06f 0240 	mvn.w	r2, #64	; 0x40
 8029324:	4620      	mov	r0, r4
 8029326:	611a      	str	r2, [r3, #16]
 8029328:	f7ff ff77 	bl	802921a <HAL_TIM_TriggerCallback>
 802932c:	6823      	ldr	r3, [r4, #0]
 802932e:	691a      	ldr	r2, [r3, #16]
 8029330:	0691      	lsls	r1, r2, #26
 8029332:	d522      	bpl.n	802937a <HAL_TIM_IRQHandler+0x15e>
 8029334:	68da      	ldr	r2, [r3, #12]
 8029336:	0692      	lsls	r2, r2, #26
 8029338:	d51f      	bpl.n	802937a <HAL_TIM_IRQHandler+0x15e>
 802933a:	f06f 0220 	mvn.w	r2, #32
 802933e:	4620      	mov	r0, r4
 8029340:	611a      	str	r2, [r3, #16]
 8029342:	e8bd 4010 	ldmia.w	sp!, {r4, lr}
 8029346:	f000 b8f9 	b.w	802953c <HAL_TIMEx_CommutCallback>
 802934a:	f7ff ff63 	bl	8029214 <HAL_TIM_OC_DelayElapsedCallback>
 802934e:	4620      	mov	r0, r4
 8029350:	f7ff ff62 	bl	8029218 <HAL_TIM_PWM_PulseFinishedCallback>
 8029354:	e776      	b.n	8029244 <HAL_TIM_IRQHandler+0x28>
 8029356:	f7ff ff5d 	bl	8029214 <HAL_TIM_OC_DelayElapsedCallback>
 802935a:	4620      	mov	r0, r4
 802935c:	f7ff ff5c 	bl	8029218 <HAL_TIM_PWM_PulseFinishedCallback>
 8029360:	e785      	b.n	802926e <HAL_TIM_IRQHandler+0x52>
 8029362:	f7ff ff57 	bl	8029214 <HAL_TIM_OC_DelayElapsedCallback>
 8029366:	4620      	mov	r0, r4
 8029368:	f7ff ff56 	bl	8029218 <HAL_TIM_PWM_PulseFinishedCallback>
 802936c:	e793      	b.n	8029296 <HAL_TIM_IRQHandler+0x7a>
 802936e:	f7ff ff51 	bl	8029214 <HAL_TIM_OC_DelayElapsedCallback>
 8029372:	4620      	mov	r0, r4
 8029374:	f7ff ff50 	bl	8029218 <HAL_TIM_PWM_PulseFinishedCallback>
 8029378:	e7a2      	b.n	80292c0 <HAL_TIM_IRQHandler+0xa4>
 802937a:	bd10      	pop	{r4, pc}

0802937c <TIM_Base_SetConfig>:
 802937c:	4a30      	ldr	r2, [pc, #192]	; (8029440 <TIM_Base_SetConfig+0xc4>)
 802937e:	6803      	ldr	r3, [r0, #0]
 8029380:	4290      	cmp	r0, r2
 8029382:	d012      	beq.n	80293aa <TIM_Base_SetConfig+0x2e>
 8029384:	f1b0 4f80 	cmp.w	r0, #1073741824	; 0x40000000
 8029388:	d00f      	beq.n	80293aa <TIM_Base_SetConfig+0x2e>
 802938a:	f5a2 427c 	sub.w	r2, r2, #64512	; 0xfc00
 802938e:	4290      	cmp	r0, r2
 8029390:	d00b      	beq.n	80293aa <TIM_Base_SetConfig+0x2e>
 8029392:	f502 6280 	add.w	r2, r2, #1024	; 0x400
 8029396:	4290      	cmp	r0, r2
 8029398:	d007      	beq.n	80293aa <TIM_Base_SetConfig+0x2e>
 802939a:	f502 6280 	add.w	r2, r2, #1024	; 0x400
 802939e:	4290      	cmp	r0, r2
 80293a0:	d003      	beq.n	80293aa <TIM_Base_SetConfig+0x2e>
 80293a2:	f502 4278 	add.w	r2, r2, #63488	; 0xf800
 80293a6:	4290      	cmp	r0, r2
 80293a8:	d119      	bne.n	80293de <TIM_Base_SetConfig+0x62>
 80293aa:	684a      	ldr	r2, [r1, #4]
 80293ac:	f023 0370 	bic.w	r3, r3, #112	; 0x70
 80293b0:	4313      	orrs	r3, r2
 80293b2:	4a23      	ldr	r2, [pc, #140]	; (8029440 <TIM_Base_SetConfig+0xc4>)
 80293b4:	4290      	cmp	r0, r2
 80293b6:	d01d      	beq.n	80293f4 <TIM_Base_SetConfig+0x78>
 80293b8:	f1b0 4f80 	cmp.w	r0, #1073741824	; 0x40000000
 80293bc:	d01a      	beq.n	80293f4 <TIM_Base_SetConfig+0x78>
 80293be:	f5a2 427c 	sub.w	r2, r2, #64512	; 0xfc00
 80293c2:	4290      	cmp	r0, r2
 80293c4:	d016      	beq.n	80293f4 <TIM_Base_SetConfig+0x78>
 80293c6:	f502 6280 	add.w	r2, r2, #1024	; 0x400
 80293ca:	4290      	cmp	r0, r2
 80293cc:	d012      	beq.n	80293f4 <TIM_Base_SetConfig+0x78>
 80293ce:	f502 6280 	add.w	r2, r2, #1024	; 0x400
 80293d2:	4290      	cmp	r0, r2
 80293d4:	d00e      	beq.n	80293f4 <TIM_Base_SetConfig+0x78>
 80293d6:	f502 4278 	add.w	r2, r2, #63488	; 0xf800
 80293da:	4290      	cmp	r0, r2
 80293dc:	d00a      	beq.n	80293f4 <TIM_Base_SetConfig+0x78>
 80293de:	4a19      	ldr	r2, [pc, #100]	; (8029444 <TIM_Base_SetConfig+0xc8>)
 80293e0:	4290      	cmp	r0, r2
 80293e2:	d007      	beq.n	80293f4 <TIM_Base_SetConfig+0x78>
 80293e4:	f502 6280 	add.w	r2, r2, #1024	; 0x400
 80293e8:	4290      	cmp	r0, r2
 80293ea:	d003      	beq.n	80293f4 <TIM_Base_SetConfig+0x78>
 80293ec:	f502 6280 	add.w	r2, r2, #1024	; 0x400
 80293f0:	4290      	cmp	r0, r2
 80293f2:	d103      	bne.n	80293fc <TIM_Base_SetConfig+0x80>
 80293f4:	f423 7340 	bic.w	r3, r3, #768	; 0x300
 80293f8:	68ca      	ldr	r2, [r1, #12]
 80293fa:	4313      	orrs	r3, r2
 80293fc:	694a      	ldr	r2, [r1, #20]
 80293fe:	f023 0380 	bic.w	r3, r3, #128	; 0x80
 8029402:	4313      	orrs	r3, r2
 8029404:	6003      	str	r3, [r0, #0]
 8029406:	688b      	ldr	r3, [r1, #8]
 8029408:	62c3      	str	r3, [r0, #44]	; 0x2c
 802940a:	680b      	ldr	r3, [r1, #0]
 802940c:	6283      	str	r3, [r0, #40]	; 0x28
 802940e:	4b0c      	ldr	r3, [pc, #48]	; (8029440 <TIM_Base_SetConfig+0xc4>)
 8029410:	4298      	cmp	r0, r3
 8029412:	d00f      	beq.n	8029434 <TIM_Base_SetConfig+0xb8>
 8029414:	f503 6380 	add.w	r3, r3, #1024	; 0x400
 8029418:	4298      	cmp	r0, r3
 802941a:	d00b      	beq.n	8029434 <TIM_Base_SetConfig+0xb8>
 802941c:	f503 5370 	add.w	r3, r3, #15360	; 0x3c00
 8029420:	4298      	cmp	r0, r3
 8029422:	d007      	beq.n	8029434 <TIM_Base_SetConfig+0xb8>
 8029424:	f503 6380 	add.w	r3, r3, #1024	; 0x400
 8029428:	4298      	cmp	r0, r3
 802942a:	d003      	beq.n	8029434 <TIM_Base_SetConfig+0xb8>
 802942c:	f503 6380 	add.w	r3, r3, #1024	; 0x400
 8029430:	4298      	cmp	r0, r3
 8029432:	d101      	bne.n	8029438 <TIM_Base_SetConfig+0xbc>
 8029434:	690b      	ldr	r3, [r1, #16]
 8029436:	6303      	str	r3, [r0, #48]	; 0x30
 8029438:	2301      	movs	r3, #1
 802943a:	6143      	str	r3, [r0, #20]
 802943c:	4770      	bx	lr
 802943e:	bf00      	nop
 8029440:	40010000 	.word	0x40010000
 8029444:	40014000 	.word	0x40014000

08029448 <HAL_TIM_Base_Init>:
 8029448:	b510      	push	{r4, lr}
 802944a:	4604      	mov	r4, r0
 802944c:	b350      	cbz	r0, 80294a4 <HAL_TIM_Base_Init+0x5c>
 802944e:	f890 303d 	ldrb.w	r3, [r0, #61]	; 0x3d
 8029452:	f003 02ff 	and.w	r2, r3, #255	; 0xff
 8029456:	b91b      	cbnz	r3, 8029460 <HAL_TIM_Base_Init+0x18>
 8029458:	f880 203c 	strb.w	r2, [r0, #60]	; 0x3c
 802945c:	f7fc fdfc 	bl	8026058 <HAL_TIM_Base_MspInit>
 8029460:	2302      	movs	r3, #2
 8029462:	6820      	ldr	r0, [r4, #0]
 8029464:	1d21      	adds	r1, r4, #4
 8029466:	f884 303d 	strb.w	r3, [r4, #61]	; 0x3d
 802946a:	f7ff ff87 	bl	802937c <TIM_Base_SetConfig>
 802946e:	2301      	movs	r3, #1
 8029470:	2000      	movs	r0, #0
 8029472:	f884 3048 	strb.w	r3, [r4, #72]	; 0x48
 8029476:	f884 303e 	strb.w	r3, [r4, #62]	; 0x3e
 802947a:	f884 303f 	strb.w	r3, [r4, #63]	; 0x3f
 802947e:	f884 3040 	strb.w	r3, [r4, #64]	; 0x40
 8029482:	f884 3041 	strb.w	r3, [r4, #65]	; 0x41
 8029486:	f884 3042 	strb.w	r3, [r4, #66]	; 0x42
 802948a:	f884 3043 	strb.w	r3, [r4, #67]	; 0x43
 802948e:	f884 3044 	strb.w	r3, [r4, #68]	; 0x44
 8029492:	f884 3045 	strb.w	r3, [r4, #69]	; 0x45
 8029496:	f884 3046 	strb.w	r3, [r4, #70]	; 0x46
 802949a:	f884 3047 	strb.w	r3, [r4, #71]	; 0x47
 802949e:	f884 303d 	strb.w	r3, [r4, #61]	; 0x3d
 80294a2:	bd10      	pop	{r4, pc}
 80294a4:	2001      	movs	r0, #1
 80294a6:	e7fc      	b.n	80294a2 <HAL_TIM_Base_Init+0x5a>

080294a8 <HAL_TIMEx_MasterConfigSynchronization>:
 80294a8:	b530      	push	{r4, r5, lr}
 80294aa:	f890 303c 	ldrb.w	r3, [r0, #60]	; 0x3c
 80294ae:	2b01      	cmp	r3, #1
 80294b0:	f04f 0302 	mov.w	r3, #2
 80294b4:	d03d      	beq.n	8029532 <HAL_TIMEx_MasterConfigSynchronization+0x8a>
 80294b6:	f880 303d 	strb.w	r3, [r0, #61]	; 0x3d
 80294ba:	4d1f      	ldr	r5, [pc, #124]	; (8029538 <HAL_TIMEx_MasterConfigSynchronization+0x90>)
 80294bc:	6803      	ldr	r3, [r0, #0]
 80294be:	42ab      	cmp	r3, r5
 80294c0:	685a      	ldr	r2, [r3, #4]
 80294c2:	689c      	ldr	r4, [r3, #8]
 80294c4:	d003      	beq.n	80294ce <HAL_TIMEx_MasterConfigSynchronization+0x26>
 80294c6:	f505 6580 	add.w	r5, r5, #1024	; 0x400
 80294ca:	42ab      	cmp	r3, r5
 80294cc:	d103      	bne.n	80294d6 <HAL_TIMEx_MasterConfigSynchronization+0x2e>
 80294ce:	f422 0270 	bic.w	r2, r2, #15728640	; 0xf00000
 80294d2:	684d      	ldr	r5, [r1, #4]
 80294d4:	432a      	orrs	r2, r5
 80294d6:	680d      	ldr	r5, [r1, #0]
 80294d8:	f022 0270 	bic.w	r2, r2, #112	; 0x70
 80294dc:	432a      	orrs	r2, r5
 80294de:	605a      	str	r2, [r3, #4]
 80294e0:	4a15      	ldr	r2, [pc, #84]	; (8029538 <HAL_TIMEx_MasterConfigSynchronization+0x90>)
 80294e2:	4293      	cmp	r3, r2
 80294e4:	d01a      	beq.n	802951c <HAL_TIMEx_MasterConfigSynchronization+0x74>
 80294e6:	f1b3 4f80 	cmp.w	r3, #1073741824	; 0x40000000
 80294ea:	d017      	beq.n	802951c <HAL_TIMEx_MasterConfigSynchronization+0x74>
 80294ec:	f5a2 427c 	sub.w	r2, r2, #64512	; 0xfc00
 80294f0:	4293      	cmp	r3, r2
 80294f2:	d013      	beq.n	802951c <HAL_TIMEx_MasterConfigSynchronization+0x74>
 80294f4:	f502 6280 	add.w	r2, r2, #1024	; 0x400
 80294f8:	4293      	cmp	r3, r2
 80294fa:	d00f      	beq.n	802951c <HAL_TIMEx_MasterConfigSynchronization+0x74>
 80294fc:	f502 6280 	add.w	r2, r2, #1024	; 0x400
 8029500:	4293      	cmp	r3, r2
 8029502:	d00b      	beq.n	802951c <HAL_TIMEx_MasterConfigSynchronization+0x74>
 8029504:	f502 4278 	add.w	r2, r2, #63488	; 0xf800
 8029508:	4293      	cmp	r3, r2
 802950a:	d007      	beq.n	802951c <HAL_TIMEx_MasterConfigSynchronization+0x74>
 802950c:	f5a2 426c 	sub.w	r2, r2, #60416	; 0xec00
 8029510:	4293      	cmp	r3, r2
 8029512:	d003      	beq.n	802951c <HAL_TIMEx_MasterConfigSynchronization+0x74>
 8029514:	f502 3294 	add.w	r2, r2, #75776	; 0x12800
 8029518:	4293      	cmp	r3, r2
 802951a:	d104      	bne.n	8029526 <HAL_TIMEx_MasterConfigSynchronization+0x7e>
 802951c:	6889      	ldr	r1, [r1, #8]
 802951e:	f024 0280 	bic.w	r2, r4, #128	; 0x80
 8029522:	430a      	orrs	r2, r1
 8029524:	609a      	str	r2, [r3, #8]
 8029526:	2301      	movs	r3, #1
 8029528:	f880 303d 	strb.w	r3, [r0, #61]	; 0x3d
 802952c:	2300      	movs	r3, #0
 802952e:	f880 303c 	strb.w	r3, [r0, #60]	; 0x3c
 8029532:	4618      	mov	r0, r3
 8029534:	bd30      	pop	{r4, r5, pc}
 8029536:	bf00      	nop
 8029538:	40010000 	.word	0x40010000

0802953c <HAL_TIMEx_CommutCallback>:
 802953c:	4770      	bx	lr

0802953e <HAL_TIMEx_BreakCallback>:
 802953e:	4770      	bx	lr

08029540 <HAL_TIMEx_Break2Callback>:
 8029540:	4770      	bx	lr
	...

08029544 <UART_EndRxTransfer>:
 8029544:	b510      	push	{r4, lr}
 8029546:	6802      	ldr	r2, [r0, #0]
 8029548:	e852 3f00 	ldrex	r3, [r2]
 802954c:	f423 7390 	bic.w	r3, r3, #288	; 0x120
 8029550:	e842 3100 	strex	r1, r3, [r2]
 8029554:	6802      	ldr	r2, [r0, #0]
 8029556:	2900      	cmp	r1, #0
 8029558:	d1f5      	bne.n	8029546 <UART_EndRxTransfer+0x2>
 802955a:	4c0f      	ldr	r4, [pc, #60]	; (8029598 <UART_EndRxTransfer+0x54>)
 802955c:	f102 0308 	add.w	r3, r2, #8
 8029560:	e853 3f00 	ldrex	r3, [r3]
 8029564:	4023      	ands	r3, r4
 8029566:	f102 0c08 	add.w	ip, r2, #8
 802956a:	e84c 3100 	strex	r1, r3, [ip]
 802956e:	2900      	cmp	r1, #0
 8029570:	d1f4      	bne.n	802955c <UART_EndRxTransfer+0x18>
 8029572:	6ec3      	ldr	r3, [r0, #108]	; 0x6c
 8029574:	2b01      	cmp	r3, #1
 8029576:	d107      	bne.n	8029588 <UART_EndRxTransfer+0x44>
 8029578:	e852 3f00 	ldrex	r3, [r2]
 802957c:	f023 0310 	bic.w	r3, r3, #16
 8029580:	e842 3100 	strex	r1, r3, [r2]
 8029584:	2900      	cmp	r1, #0
 8029586:	d1f7      	bne.n	8029578 <UART_EndRxTransfer+0x34>
 8029588:	2320      	movs	r3, #32
 802958a:	f8c0 308c 	str.w	r3, [r0, #140]	; 0x8c
 802958e:	2300      	movs	r3, #0
 8029590:	66c3      	str	r3, [r0, #108]	; 0x6c
 8029592:	6743      	str	r3, [r0, #116]	; 0x74
 8029594:	bd10      	pop	{r4, pc}
 8029596:	bf00      	nop
 8029598:	effffffe 	.word	0xeffffffe

0802959c <HAL_UART_DeInit>:
 802959c:	b538      	push	{r3, r4, r5, lr}
 802959e:	4605      	mov	r5, r0
 80295a0:	b1c8      	cbz	r0, 80295d6 <HAL_UART_DeInit+0x3a>
 80295a2:	2324      	movs	r3, #36	; 0x24
 80295a4:	2400      	movs	r4, #0
 80295a6:	f8c0 3088 	str.w	r3, [r0, #136]	; 0x88
 80295aa:	6803      	ldr	r3, [r0, #0]
 80295ac:	681a      	ldr	r2, [r3, #0]
 80295ae:	f022 0201 	bic.w	r2, r2, #1
 80295b2:	601a      	str	r2, [r3, #0]
 80295b4:	601c      	str	r4, [r3, #0]
 80295b6:	605c      	str	r4, [r3, #4]
 80295b8:	609c      	str	r4, [r3, #8]
 80295ba:	f7fc fe89 	bl	80262d0 <HAL_UART_MspDeInit>
 80295be:	4620      	mov	r0, r4
 80295c0:	f8c5 4090 	str.w	r4, [r5, #144]	; 0x90
 80295c4:	f885 4084 	strb.w	r4, [r5, #132]	; 0x84
 80295c8:	f8c5 4088 	str.w	r4, [r5, #136]	; 0x88
 80295cc:	f8c5 408c 	str.w	r4, [r5, #140]	; 0x8c
 80295d0:	66ec      	str	r4, [r5, #108]	; 0x6c
 80295d2:	672c      	str	r4, [r5, #112]	; 0x70
 80295d4:	bd38      	pop	{r3, r4, r5, pc}
 80295d6:	2001      	movs	r0, #1
 80295d8:	e7fc      	b.n	80295d4 <HAL_UART_DeInit+0x38>
	...

080295dc <UART_SetConfig>:
 80295dc:	b530      	push	{r4, r5, lr}
 80295de:	4604      	mov	r4, r0
 80295e0:	6803      	ldr	r3, [r0, #0]
 80295e2:	69c0      	ldr	r0, [r0, #28]
 80295e4:	b087      	sub	sp, #28
 80295e6:	6921      	ldr	r1, [r4, #16]
 80295e8:	68a2      	ldr	r2, [r4, #8]
 80295ea:	681d      	ldr	r5, [r3, #0]
 80295ec:	430a      	orrs	r2, r1
 80295ee:	6961      	ldr	r1, [r4, #20]
 80295f0:	430a      	orrs	r2, r1
 80295f2:	4997      	ldr	r1, [pc, #604]	; (8029850 <UART_SetConfig+0x274>)
 80295f4:	4302      	orrs	r2, r0
 80295f6:	4029      	ands	r1, r5
 80295f8:	430a      	orrs	r2, r1
 80295fa:	68e1      	ldr	r1, [r4, #12]
 80295fc:	601a      	str	r2, [r3, #0]
 80295fe:	685a      	ldr	r2, [r3, #4]
 8029600:	f422 5240 	bic.w	r2, r2, #12288	; 0x3000
 8029604:	430a      	orrs	r2, r1
 8029606:	69a1      	ldr	r1, [r4, #24]
 8029608:	605a      	str	r2, [r3, #4]
 802960a:	4a92      	ldr	r2, [pc, #584]	; (8029854 <UART_SetConfig+0x278>)
 802960c:	4293      	cmp	r3, r2
 802960e:	bf1c      	itt	ne
 8029610:	6a22      	ldrne	r2, [r4, #32]
 8029612:	4311      	orrne	r1, r2
 8029614:	689a      	ldr	r2, [r3, #8]
 8029616:	f022 426e 	bic.w	r2, r2, #3992977408	; 0xee000000
 802961a:	f422 6230 	bic.w	r2, r2, #2816	; 0xb00
 802961e:	430a      	orrs	r2, r1
 8029620:	6a61      	ldr	r1, [r4, #36]	; 0x24
 8029622:	609a      	str	r2, [r3, #8]
 8029624:	6ada      	ldr	r2, [r3, #44]	; 0x2c
 8029626:	f022 020f 	bic.w	r2, r2, #15
 802962a:	430a      	orrs	r2, r1
 802962c:	62da      	str	r2, [r3, #44]	; 0x2c
 802962e:	4a8a      	ldr	r2, [pc, #552]	; (8029858 <UART_SetConfig+0x27c>)
 8029630:	4293      	cmp	r3, r2
 8029632:	d11b      	bne.n	802966c <UART_SetConfig+0x90>
 8029634:	4b89      	ldr	r3, [pc, #548]	; (802985c <UART_SetConfig+0x280>)
 8029636:	6d5b      	ldr	r3, [r3, #84]	; 0x54
 8029638:	f003 0338 	and.w	r3, r3, #56	; 0x38
 802963c:	2b28      	cmp	r3, #40	; 0x28
 802963e:	d86c      	bhi.n	802971a <UART_SetConfig+0x13e>
 8029640:	4a87      	ldr	r2, [pc, #540]	; (8029860 <UART_SetConfig+0x284>)
 8029642:	f5b0 4f00 	cmp.w	r0, #32768	; 0x8000
 8029646:	5cd3      	ldrb	r3, [r2, r3]
 8029648:	f040 8132 	bne.w	80298b0 <UART_SetConfig+0x2d4>
 802964c:	2b08      	cmp	r3, #8
 802964e:	f200 80c0 	bhi.w	80297d2 <UART_SetConfig+0x1f6>
 8029652:	2b08      	cmp	r3, #8
 8029654:	d861      	bhi.n	802971a <UART_SetConfig+0x13e>
 8029656:	e8df f013 	tbh	[pc, r3, lsl #1]
 802965a:	00e7      	.short	0x00e7
 802965c:	006000ec 	.word	0x006000ec
 8029660:	00ef0060 	.word	0x00ef0060
 8029664:	00600060 	.word	0x00600060
 8029668:	00f40060 	.word	0x00f40060
 802966c:	4a7d      	ldr	r2, [pc, #500]	; (8029864 <UART_SetConfig+0x288>)
 802966e:	4293      	cmp	r3, r2
 8029670:	d107      	bne.n	8029682 <UART_SetConfig+0xa6>
 8029672:	4b7a      	ldr	r3, [pc, #488]	; (802985c <UART_SetConfig+0x280>)
 8029674:	6d5b      	ldr	r3, [r3, #84]	; 0x54
 8029676:	f003 0307 	and.w	r3, r3, #7
 802967a:	2b05      	cmp	r3, #5
 802967c:	d84d      	bhi.n	802971a <UART_SetConfig+0x13e>
 802967e:	4a7a      	ldr	r2, [pc, #488]	; (8029868 <UART_SetConfig+0x28c>)
 8029680:	e7df      	b.n	8029642 <UART_SetConfig+0x66>
 8029682:	4a7a      	ldr	r2, [pc, #488]	; (802986c <UART_SetConfig+0x290>)
 8029684:	4293      	cmp	r3, r2
 8029686:	d107      	bne.n	8029698 <UART_SetConfig+0xbc>
 8029688:	4b74      	ldr	r3, [pc, #464]	; (802985c <UART_SetConfig+0x280>)
 802968a:	6d5b      	ldr	r3, [r3, #84]	; 0x54
 802968c:	f003 0307 	and.w	r3, r3, #7
 8029690:	2b05      	cmp	r3, #5
 8029692:	d842      	bhi.n	802971a <UART_SetConfig+0x13e>
 8029694:	4a76      	ldr	r2, [pc, #472]	; (8029870 <UART_SetConfig+0x294>)
 8029696:	e7d4      	b.n	8029642 <UART_SetConfig+0x66>
 8029698:	4a76      	ldr	r2, [pc, #472]	; (8029874 <UART_SetConfig+0x298>)
 802969a:	4293      	cmp	r3, r2
 802969c:	d107      	bne.n	80296ae <UART_SetConfig+0xd2>
 802969e:	4b6f      	ldr	r3, [pc, #444]	; (802985c <UART_SetConfig+0x280>)
 80296a0:	6d5b      	ldr	r3, [r3, #84]	; 0x54
 80296a2:	f003 0307 	and.w	r3, r3, #7
 80296a6:	2b05      	cmp	r3, #5
 80296a8:	d837      	bhi.n	802971a <UART_SetConfig+0x13e>
 80296aa:	4a73      	ldr	r2, [pc, #460]	; (8029878 <UART_SetConfig+0x29c>)
 80296ac:	e7c9      	b.n	8029642 <UART_SetConfig+0x66>
 80296ae:	4a73      	ldr	r2, [pc, #460]	; (802987c <UART_SetConfig+0x2a0>)
 80296b0:	4293      	cmp	r3, r2
 80296b2:	d107      	bne.n	80296c4 <UART_SetConfig+0xe8>
 80296b4:	4b69      	ldr	r3, [pc, #420]	; (802985c <UART_SetConfig+0x280>)
 80296b6:	6d5b      	ldr	r3, [r3, #84]	; 0x54
 80296b8:	f003 0307 	and.w	r3, r3, #7
 80296bc:	2b05      	cmp	r3, #5
 80296be:	d82c      	bhi.n	802971a <UART_SetConfig+0x13e>
 80296c0:	4a6f      	ldr	r2, [pc, #444]	; (8029880 <UART_SetConfig+0x2a4>)
 80296c2:	e7be      	b.n	8029642 <UART_SetConfig+0x66>
 80296c4:	4a6f      	ldr	r2, [pc, #444]	; (8029884 <UART_SetConfig+0x2a8>)
 80296c6:	4293      	cmp	r3, r2
 80296c8:	d107      	bne.n	80296da <UART_SetConfig+0xfe>
 80296ca:	4b64      	ldr	r3, [pc, #400]	; (802985c <UART_SetConfig+0x280>)
 80296cc:	6d5b      	ldr	r3, [r3, #84]	; 0x54
 80296ce:	f003 0338 	and.w	r3, r3, #56	; 0x38
 80296d2:	2b28      	cmp	r3, #40	; 0x28
 80296d4:	d821      	bhi.n	802971a <UART_SetConfig+0x13e>
 80296d6:	4a6c      	ldr	r2, [pc, #432]	; (8029888 <UART_SetConfig+0x2ac>)
 80296d8:	e7b3      	b.n	8029642 <UART_SetConfig+0x66>
 80296da:	4a6c      	ldr	r2, [pc, #432]	; (802988c <UART_SetConfig+0x2b0>)
 80296dc:	4293      	cmp	r3, r2
 80296de:	d107      	bne.n	80296f0 <UART_SetConfig+0x114>
 80296e0:	4b5e      	ldr	r3, [pc, #376]	; (802985c <UART_SetConfig+0x280>)
 80296e2:	6d5b      	ldr	r3, [r3, #84]	; 0x54
 80296e4:	f003 0307 	and.w	r3, r3, #7
 80296e8:	2b05      	cmp	r3, #5
 80296ea:	d816      	bhi.n	802971a <UART_SetConfig+0x13e>
 80296ec:	4a68      	ldr	r2, [pc, #416]	; (8029890 <UART_SetConfig+0x2b4>)
 80296ee:	e7a8      	b.n	8029642 <UART_SetConfig+0x66>
 80296f0:	4a68      	ldr	r2, [pc, #416]	; (8029894 <UART_SetConfig+0x2b8>)
 80296f2:	4293      	cmp	r3, r2
 80296f4:	d107      	bne.n	8029706 <UART_SetConfig+0x12a>
 80296f6:	4b59      	ldr	r3, [pc, #356]	; (802985c <UART_SetConfig+0x280>)
 80296f8:	6d5b      	ldr	r3, [r3, #84]	; 0x54
 80296fa:	f003 0307 	and.w	r3, r3, #7
 80296fe:	2b05      	cmp	r3, #5
 8029700:	d80b      	bhi.n	802971a <UART_SetConfig+0x13e>
 8029702:	4a65      	ldr	r2, [pc, #404]	; (8029898 <UART_SetConfig+0x2bc>)
 8029704:	e79d      	b.n	8029642 <UART_SetConfig+0x66>
 8029706:	4a53      	ldr	r2, [pc, #332]	; (8029854 <UART_SetConfig+0x278>)
 8029708:	4293      	cmp	r3, r2
 802970a:	d106      	bne.n	802971a <UART_SetConfig+0x13e>
 802970c:	f502 320e 	add.w	r2, r2, #145408	; 0x23800
 8029710:	6d93      	ldr	r3, [r2, #88]	; 0x58
 8029712:	f003 0307 	and.w	r3, r3, #7
 8029716:	2b05      	cmp	r3, #5
 8029718:	d901      	bls.n	802971e <UART_SetConfig+0x142>
 802971a:	2001      	movs	r0, #1
 802971c:	e00e      	b.n	802973c <UART_SetConfig+0x160>
 802971e:	495f      	ldr	r1, [pc, #380]	; (802989c <UART_SetConfig+0x2c0>)
 8029720:	5ccb      	ldrb	r3, [r1, r3]
 8029722:	2b10      	cmp	r3, #16
 8029724:	d023      	beq.n	802976e <UART_SetConfig+0x192>
 8029726:	d811      	bhi.n	802974c <UART_SetConfig+0x170>
 8029728:	2b04      	cmp	r3, #4
 802972a:	d016      	beq.n	802975a <UART_SetConfig+0x17e>
 802972c:	2b08      	cmp	r3, #8
 802972e:	d019      	beq.n	8029764 <UART_SetConfig+0x188>
 8029730:	2b02      	cmp	r3, #2
 8029732:	d1f2      	bne.n	802971a <UART_SetConfig+0x13e>
 8029734:	f7fe fe3c 	bl	80283b0 <HAL_RCCEx_GetD3PCLK1Freq>
 8029738:	bb10      	cbnz	r0, 8029780 <UART_SetConfig+0x1a4>
 802973a:	2000      	movs	r0, #0
 802973c:	f04f 1301 	mov.w	r3, #65537	; 0x10001
 8029740:	66a3      	str	r3, [r4, #104]	; 0x68
 8029742:	2300      	movs	r3, #0
 8029744:	e9c4 331d 	strd	r3, r3, [r4, #116]	; 0x74
 8029748:	b007      	add	sp, #28
 802974a:	bd30      	pop	{r4, r5, pc}
 802974c:	2b20      	cmp	r3, #32
 802974e:	d03e      	beq.n	80297ce <UART_SetConfig+0x1f2>
 8029750:	2b40      	cmp	r3, #64	; 0x40
 8029752:	d1e2      	bne.n	802971a <UART_SetConfig+0x13e>
 8029754:	f44f 4000 	mov.w	r0, #32768	; 0x8000
 8029758:	e012      	b.n	8029780 <UART_SetConfig+0x1a4>
 802975a:	4668      	mov	r0, sp
 802975c:	f7fe fe3a 	bl	80283d4 <HAL_RCCEx_GetPLL2ClockFreq>
 8029760:	9801      	ldr	r0, [sp, #4]
 8029762:	e7e9      	b.n	8029738 <UART_SetConfig+0x15c>
 8029764:	a803      	add	r0, sp, #12
 8029766:	f7fe fedd 	bl	8028524 <HAL_RCCEx_GetPLL3ClockFreq>
 802976a:	9804      	ldr	r0, [sp, #16]
 802976c:	e7e4      	b.n	8029738 <UART_SetConfig+0x15c>
 802976e:	6813      	ldr	r3, [r2, #0]
 8029770:	484b      	ldr	r0, [pc, #300]	; (80298a0 <UART_SetConfig+0x2c4>)
 8029772:	f013 0f20 	tst.w	r3, #32
 8029776:	d003      	beq.n	8029780 <UART_SetConfig+0x1a4>
 8029778:	6813      	ldr	r3, [r2, #0]
 802977a:	f3c3 03c1 	ubfx	r3, r3, #3, #2
 802977e:	40d8      	lsrs	r0, r3
 8029780:	4b48      	ldr	r3, [pc, #288]	; (80298a4 <UART_SetConfig+0x2c8>)
 8029782:	6a62      	ldr	r2, [r4, #36]	; 0x24
 8029784:	6865      	ldr	r5, [r4, #4]
 8029786:	f833 2012 	ldrh.w	r2, [r3, r2, lsl #1]
 802978a:	eb05 0145 	add.w	r1, r5, r5, lsl #1
 802978e:	fbb0 f3f2 	udiv	r3, r0, r2
 8029792:	4299      	cmp	r1, r3
 8029794:	d8c1      	bhi.n	802971a <UART_SetConfig+0x13e>
 8029796:	ebb3 3f05 	cmp.w	r3, r5, lsl #12
 802979a:	d8be      	bhi.n	802971a <UART_SetConfig+0x13e>
 802979c:	2300      	movs	r3, #0
 802979e:	4619      	mov	r1, r3
 80297a0:	f7f6 fdee 	bl	8020380 <__aeabi_uldivmod>
 80297a4:	462a      	mov	r2, r5
 80297a6:	0209      	lsls	r1, r1, #8
 80297a8:	086b      	lsrs	r3, r5, #1
 80297aa:	ea41 6110 	orr.w	r1, r1, r0, lsr #24
 80297ae:	0200      	lsls	r0, r0, #8
 80297b0:	18c0      	adds	r0, r0, r3
 80297b2:	f04f 0300 	mov.w	r3, #0
 80297b6:	f141 0100 	adc.w	r1, r1, #0
 80297ba:	f7f6 fde1 	bl	8020380 <__aeabi_uldivmod>
 80297be:	4b3a      	ldr	r3, [pc, #232]	; (80298a8 <UART_SetConfig+0x2cc>)
 80297c0:	f5a0 7240 	sub.w	r2, r0, #768	; 0x300
 80297c4:	429a      	cmp	r2, r3
 80297c6:	d8a8      	bhi.n	802971a <UART_SetConfig+0x13e>
 80297c8:	6823      	ldr	r3, [r4, #0]
 80297ca:	60d8      	str	r0, [r3, #12]
 80297cc:	e7b5      	b.n	802973a <UART_SetConfig+0x15e>
 80297ce:	4837      	ldr	r0, [pc, #220]	; (80298ac <UART_SetConfig+0x2d0>)
 80297d0:	e7d6      	b.n	8029780 <UART_SetConfig+0x1a4>
 80297d2:	2b20      	cmp	r3, #32
 80297d4:	d03a      	beq.n	802984c <UART_SetConfig+0x270>
 80297d6:	2b40      	cmp	r3, #64	; 0x40
 80297d8:	d00b      	beq.n	80297f2 <UART_SetConfig+0x216>
 80297da:	2b10      	cmp	r3, #16
 80297dc:	d19d      	bne.n	802971a <UART_SetConfig+0x13e>
 80297de:	4b1f      	ldr	r3, [pc, #124]	; (802985c <UART_SetConfig+0x280>)
 80297e0:	482f      	ldr	r0, [pc, #188]	; (80298a0 <UART_SetConfig+0x2c4>)
 80297e2:	681a      	ldr	r2, [r3, #0]
 80297e4:	f012 0f20 	tst.w	r2, #32
 80297e8:	d003      	beq.n	80297f2 <UART_SetConfig+0x216>
 80297ea:	681b      	ldr	r3, [r3, #0]
 80297ec:	f3c3 03c1 	ubfx	r3, r3, #3, #2
 80297f0:	40d8      	lsrs	r0, r3
 80297f2:	6a61      	ldr	r1, [r4, #36]	; 0x24
 80297f4:	4b2b      	ldr	r3, [pc, #172]	; (80298a4 <UART_SetConfig+0x2c8>)
 80297f6:	6862      	ldr	r2, [r4, #4]
 80297f8:	f833 3011 	ldrh.w	r3, [r3, r1, lsl #1]
 80297fc:	fbb0 f3f3 	udiv	r3, r0, r3
 8029800:	0850      	lsrs	r0, r2, #1
 8029802:	eb00 0043 	add.w	r0, r0, r3, lsl #1
 8029806:	f64f 73ef 	movw	r3, #65519	; 0xffef
 802980a:	fbb0 f0f2 	udiv	r0, r0, r2
 802980e:	f1a0 0210 	sub.w	r2, r0, #16
 8029812:	429a      	cmp	r2, r3
 8029814:	d881      	bhi.n	802971a <UART_SetConfig+0x13e>
 8029816:	f020 030f 	bic.w	r3, r0, #15
 802981a:	f3c0 0042 	ubfx	r0, r0, #1, #3
 802981e:	6822      	ldr	r2, [r4, #0]
 8029820:	b29b      	uxth	r3, r3
 8029822:	4318      	orrs	r0, r3
 8029824:	60d0      	str	r0, [r2, #12]
 8029826:	e788      	b.n	802973a <UART_SetConfig+0x15e>
 8029828:	f7fd ff9a 	bl	8027760 <HAL_RCC_GetPCLK1Freq>
 802982c:	2800      	cmp	r0, #0
 802982e:	d084      	beq.n	802973a <UART_SetConfig+0x15e>
 8029830:	e7df      	b.n	80297f2 <UART_SetConfig+0x216>
 8029832:	f7fd ffa7 	bl	8027784 <HAL_RCC_GetPCLK2Freq>
 8029836:	e7f9      	b.n	802982c <UART_SetConfig+0x250>
 8029838:	4668      	mov	r0, sp
 802983a:	f7fe fdcb 	bl	80283d4 <HAL_RCCEx_GetPLL2ClockFreq>
 802983e:	9801      	ldr	r0, [sp, #4]
 8029840:	e7f4      	b.n	802982c <UART_SetConfig+0x250>
 8029842:	a803      	add	r0, sp, #12
 8029844:	f7fe fe6e 	bl	8028524 <HAL_RCCEx_GetPLL3ClockFreq>
 8029848:	9804      	ldr	r0, [sp, #16]
 802984a:	e7ef      	b.n	802982c <UART_SetConfig+0x250>
 802984c:	4817      	ldr	r0, [pc, #92]	; (80298ac <UART_SetConfig+0x2d0>)
 802984e:	e7d0      	b.n	80297f2 <UART_SetConfig+0x216>
 8029850:	cfff69f3 	.word	0xcfff69f3
 8029854:	58000c00 	.word	0x58000c00
 8029858:	40011000 	.word	0x40011000
 802985c:	58024400 	.word	0x58024400
 8029860:	0802be80 	.word	0x0802be80
 8029864:	40004400 	.word	0x40004400
 8029868:	0802bea9 	.word	0x0802bea9
 802986c:	40004800 	.word	0x40004800
 8029870:	0802bea9 	.word	0x0802bea9
 8029874:	40004c00 	.word	0x40004c00
 8029878:	0802bea9 	.word	0x0802bea9
 802987c:	40005000 	.word	0x40005000
 8029880:	0802bea9 	.word	0x0802bea9
 8029884:	40011400 	.word	0x40011400
 8029888:	0802be80 	.word	0x0802be80
 802988c:	40007800 	.word	0x40007800
 8029890:	0802bea9 	.word	0x0802bea9
 8029894:	40007c00 	.word	0x40007c00
 8029898:	0802bea9 	.word	0x0802bea9
 802989c:	0802beaf 	.word	0x0802beaf
 80298a0:	03d09000 	.word	0x03d09000
 80298a4:	0802beb6 	.word	0x0802beb6
 80298a8:	000ffcff 	.word	0x000ffcff
 80298ac:	003d0900 	.word	0x003d0900
 80298b0:	2b08      	cmp	r3, #8
 80298b2:	d817      	bhi.n	80298e4 <UART_SetConfig+0x308>
 80298b4:	2b08      	cmp	r3, #8
 80298b6:	f63f af30 	bhi.w	802971a <UART_SetConfig+0x13e>
 80298ba:	a201      	add	r2, pc, #4	; (adr r2, 80298c0 <UART_SetConfig+0x2e4>)
 80298bc:	f852 f023 	ldr.w	pc, [r2, r3, lsl #2]
 80298c0:	08029927 	.word	0x08029927
 80298c4:	08029933 	.word	0x08029933
 80298c8:	0802971b 	.word	0x0802971b
 80298cc:	0802971b 	.word	0x0802971b
 80298d0:	08029939 	.word	0x08029939
 80298d4:	0802971b 	.word	0x0802971b
 80298d8:	0802971b 	.word	0x0802971b
 80298dc:	0802971b 	.word	0x0802971b
 80298e0:	08029943 	.word	0x08029943
 80298e4:	2b20      	cmp	r3, #32
 80298e6:	d031      	beq.n	802994c <UART_SetConfig+0x370>
 80298e8:	2b40      	cmp	r3, #64	; 0x40
 80298ea:	d031      	beq.n	8029950 <UART_SetConfig+0x374>
 80298ec:	2b10      	cmp	r3, #16
 80298ee:	f47f af14 	bne.w	802971a <UART_SetConfig+0x13e>
 80298f2:	4b19      	ldr	r3, [pc, #100]	; (8029958 <UART_SetConfig+0x37c>)
 80298f4:	4819      	ldr	r0, [pc, #100]	; (802995c <UART_SetConfig+0x380>)
 80298f6:	681a      	ldr	r2, [r3, #0]
 80298f8:	f012 0f20 	tst.w	r2, #32
 80298fc:	d003      	beq.n	8029906 <UART_SetConfig+0x32a>
 80298fe:	681b      	ldr	r3, [r3, #0]
 8029900:	f3c3 03c1 	ubfx	r3, r3, #3, #2
 8029904:	40d8      	lsrs	r0, r3
 8029906:	6a61      	ldr	r1, [r4, #36]	; 0x24
 8029908:	4a15      	ldr	r2, [pc, #84]	; (8029960 <UART_SetConfig+0x384>)
 802990a:	6863      	ldr	r3, [r4, #4]
 802990c:	f832 2011 	ldrh.w	r2, [r2, r1, lsl #1]
 8029910:	fbb0 f0f2 	udiv	r0, r0, r2
 8029914:	eb00 0053 	add.w	r0, r0, r3, lsr #1
 8029918:	fbb0 f0f3 	udiv	r0, r0, r3
 802991c:	f64f 73ef 	movw	r3, #65519	; 0xffef
 8029920:	f1a0 0210 	sub.w	r2, r0, #16
 8029924:	e74e      	b.n	80297c4 <UART_SetConfig+0x1e8>
 8029926:	f7fd ff1b 	bl	8027760 <HAL_RCC_GetPCLK1Freq>
 802992a:	2800      	cmp	r0, #0
 802992c:	f43f af05 	beq.w	802973a <UART_SetConfig+0x15e>
 8029930:	e7e9      	b.n	8029906 <UART_SetConfig+0x32a>
 8029932:	f7fd ff27 	bl	8027784 <HAL_RCC_GetPCLK2Freq>
 8029936:	e7f8      	b.n	802992a <UART_SetConfig+0x34e>
 8029938:	4668      	mov	r0, sp
 802993a:	f7fe fd4b 	bl	80283d4 <HAL_RCCEx_GetPLL2ClockFreq>
 802993e:	9801      	ldr	r0, [sp, #4]
 8029940:	e7f3      	b.n	802992a <UART_SetConfig+0x34e>
 8029942:	a803      	add	r0, sp, #12
 8029944:	f7fe fdee 	bl	8028524 <HAL_RCCEx_GetPLL3ClockFreq>
 8029948:	9804      	ldr	r0, [sp, #16]
 802994a:	e7ee      	b.n	802992a <UART_SetConfig+0x34e>
 802994c:	4805      	ldr	r0, [pc, #20]	; (8029964 <UART_SetConfig+0x388>)
 802994e:	e7da      	b.n	8029906 <UART_SetConfig+0x32a>
 8029950:	f44f 4000 	mov.w	r0, #32768	; 0x8000
 8029954:	e7d7      	b.n	8029906 <UART_SetConfig+0x32a>
 8029956:	bf00      	nop
 8029958:	58024400 	.word	0x58024400
 802995c:	03d09000 	.word	0x03d09000
 8029960:	0802beb6 	.word	0x0802beb6
 8029964:	003d0900 	.word	0x003d0900

08029968 <UART_AdvFeatureConfig>:
 8029968:	6a83      	ldr	r3, [r0, #40]	; 0x28
 802996a:	07da      	lsls	r2, r3, #31
 802996c:	b510      	push	{r4, lr}
 802996e:	d506      	bpl.n	802997e <UART_AdvFeatureConfig+0x16>
 8029970:	6801      	ldr	r1, [r0, #0]
 8029972:	6ac4      	ldr	r4, [r0, #44]	; 0x2c
 8029974:	684a      	ldr	r2, [r1, #4]
 8029976:	f422 3200 	bic.w	r2, r2, #131072	; 0x20000
 802997a:	4322      	orrs	r2, r4
 802997c:	604a      	str	r2, [r1, #4]
 802997e:	079c      	lsls	r4, r3, #30
 8029980:	d506      	bpl.n	8029990 <UART_AdvFeatureConfig+0x28>
 8029982:	6801      	ldr	r1, [r0, #0]
 8029984:	6b04      	ldr	r4, [r0, #48]	; 0x30
 8029986:	684a      	ldr	r2, [r1, #4]
 8029988:	f422 3280 	bic.w	r2, r2, #65536	; 0x10000
 802998c:	4322      	orrs	r2, r4
 802998e:	604a      	str	r2, [r1, #4]
 8029990:	0759      	lsls	r1, r3, #29
 8029992:	d506      	bpl.n	80299a2 <UART_AdvFeatureConfig+0x3a>
 8029994:	6801      	ldr	r1, [r0, #0]
 8029996:	6b44      	ldr	r4, [r0, #52]	; 0x34
 8029998:	684a      	ldr	r2, [r1, #4]
 802999a:	f422 2280 	bic.w	r2, r2, #262144	; 0x40000
 802999e:	4322      	orrs	r2, r4
 80299a0:	604a      	str	r2, [r1, #4]
 80299a2:	071a      	lsls	r2, r3, #28
 80299a4:	d506      	bpl.n	80299b4 <UART_AdvFeatureConfig+0x4c>
 80299a6:	6801      	ldr	r1, [r0, #0]
 80299a8:	6b84      	ldr	r4, [r0, #56]	; 0x38
 80299aa:	684a      	ldr	r2, [r1, #4]
 80299ac:	f422 4200 	bic.w	r2, r2, #32768	; 0x8000
 80299b0:	4322      	orrs	r2, r4
 80299b2:	604a      	str	r2, [r1, #4]
 80299b4:	06dc      	lsls	r4, r3, #27
 80299b6:	d506      	bpl.n	80299c6 <UART_AdvFeatureConfig+0x5e>
 80299b8:	6801      	ldr	r1, [r0, #0]
 80299ba:	6bc4      	ldr	r4, [r0, #60]	; 0x3c
 80299bc:	688a      	ldr	r2, [r1, #8]
 80299be:	f422 5280 	bic.w	r2, r2, #4096	; 0x1000
 80299c2:	4322      	orrs	r2, r4
 80299c4:	608a      	str	r2, [r1, #8]
 80299c6:	0699      	lsls	r1, r3, #26
 80299c8:	d506      	bpl.n	80299d8 <UART_AdvFeatureConfig+0x70>
 80299ca:	6801      	ldr	r1, [r0, #0]
 80299cc:	6c04      	ldr	r4, [r0, #64]	; 0x40
 80299ce:	688a      	ldr	r2, [r1, #8]
 80299d0:	f422 5200 	bic.w	r2, r2, #8192	; 0x2000
 80299d4:	4322      	orrs	r2, r4
 80299d6:	608a      	str	r2, [r1, #8]
 80299d8:	065a      	lsls	r2, r3, #25
 80299da:	d510      	bpl.n	80299fe <UART_AdvFeatureConfig+0x96>
 80299dc:	6801      	ldr	r1, [r0, #0]
 80299de:	6c44      	ldr	r4, [r0, #68]	; 0x44
 80299e0:	684a      	ldr	r2, [r1, #4]
 80299e2:	f5b4 1f80 	cmp.w	r4, #1048576	; 0x100000
 80299e6:	f422 1280 	bic.w	r2, r2, #1048576	; 0x100000
 80299ea:	ea42 0204 	orr.w	r2, r2, r4
 80299ee:	604a      	str	r2, [r1, #4]
 80299f0:	d105      	bne.n	80299fe <UART_AdvFeatureConfig+0x96>
 80299f2:	684a      	ldr	r2, [r1, #4]
 80299f4:	6c84      	ldr	r4, [r0, #72]	; 0x48
 80299f6:	f422 02c0 	bic.w	r2, r2, #6291456	; 0x600000
 80299fa:	4322      	orrs	r2, r4
 80299fc:	604a      	str	r2, [r1, #4]
 80299fe:	061b      	lsls	r3, r3, #24
 8029a00:	d506      	bpl.n	8029a10 <UART_AdvFeatureConfig+0xa8>
 8029a02:	6802      	ldr	r2, [r0, #0]
 8029a04:	6cc1      	ldr	r1, [r0, #76]	; 0x4c
 8029a06:	6853      	ldr	r3, [r2, #4]
 8029a08:	f423 2300 	bic.w	r3, r3, #524288	; 0x80000
 8029a0c:	430b      	orrs	r3, r1
 8029a0e:	6053      	str	r3, [r2, #4]
 8029a10:	bd10      	pop	{r4, pc}

08029a12 <UART_WaitOnFlagUntilTimeout>:
 8029a12:	e92d 43f8 	stmdb	sp!, {r3, r4, r5, r6, r7, r8, r9, lr}
 8029a16:	f8dd 9020 	ldr.w	r9, [sp, #32]
 8029a1a:	4604      	mov	r4, r0
 8029a1c:	460f      	mov	r7, r1
 8029a1e:	4616      	mov	r6, r2
 8029a20:	4698      	mov	r8, r3
 8029a22:	6822      	ldr	r2, [r4, #0]
 8029a24:	69d3      	ldr	r3, [r2, #28]
 8029a26:	ea37 0303 	bics.w	r3, r7, r3
 8029a2a:	bf0c      	ite	eq
 8029a2c:	2301      	moveq	r3, #1
 8029a2e:	2300      	movne	r3, #0
 8029a30:	42b3      	cmp	r3, r6
 8029a32:	d001      	beq.n	8029a38 <UART_WaitOnFlagUntilTimeout+0x26>
 8029a34:	2000      	movs	r0, #0
 8029a36:	e01e      	b.n	8029a76 <UART_WaitOnFlagUntilTimeout+0x64>
 8029a38:	f1b9 3fff 	cmp.w	r9, #4294967295
 8029a3c:	d0f2      	beq.n	8029a24 <UART_WaitOnFlagUntilTimeout+0x12>
 8029a3e:	f7fc fea3 	bl	8026788 <HAL_GetTick>
 8029a42:	eba0 0008 	sub.w	r0, r0, r8
 8029a46:	4548      	cmp	r0, r9
 8029a48:	d825      	bhi.n	8029a96 <UART_WaitOnFlagUntilTimeout+0x84>
 8029a4a:	f1b9 0f00 	cmp.w	r9, #0
 8029a4e:	d022      	beq.n	8029a96 <UART_WaitOnFlagUntilTimeout+0x84>
 8029a50:	6820      	ldr	r0, [r4, #0]
 8029a52:	6803      	ldr	r3, [r0, #0]
 8029a54:	075a      	lsls	r2, r3, #29
 8029a56:	d5e4      	bpl.n	8029a22 <UART_WaitOnFlagUntilTimeout+0x10>
 8029a58:	69c5      	ldr	r5, [r0, #28]
 8029a5a:	f015 0508 	ands.w	r5, r5, #8
 8029a5e:	d00c      	beq.n	8029a7a <UART_WaitOnFlagUntilTimeout+0x68>
 8029a60:	2508      	movs	r5, #8
 8029a62:	6205      	str	r5, [r0, #32]
 8029a64:	4620      	mov	r0, r4
 8029a66:	f7ff fd6d 	bl	8029544 <UART_EndRxTransfer>
 8029a6a:	2300      	movs	r3, #0
 8029a6c:	2001      	movs	r0, #1
 8029a6e:	f8c4 5090 	str.w	r5, [r4, #144]	; 0x90
 8029a72:	f884 3084 	strb.w	r3, [r4, #132]	; 0x84
 8029a76:	e8bd 83f8 	ldmia.w	sp!, {r3, r4, r5, r6, r7, r8, r9, pc}
 8029a7a:	69c3      	ldr	r3, [r0, #28]
 8029a7c:	051b      	lsls	r3, r3, #20
 8029a7e:	d5d0      	bpl.n	8029a22 <UART_WaitOnFlagUntilTimeout+0x10>
 8029a80:	f44f 6300 	mov.w	r3, #2048	; 0x800
 8029a84:	6203      	str	r3, [r0, #32]
 8029a86:	4620      	mov	r0, r4
 8029a88:	f7ff fd5c 	bl	8029544 <UART_EndRxTransfer>
 8029a8c:	2320      	movs	r3, #32
 8029a8e:	f884 5084 	strb.w	r5, [r4, #132]	; 0x84
 8029a92:	f8c4 3090 	str.w	r3, [r4, #144]	; 0x90
 8029a96:	2003      	movs	r0, #3
 8029a98:	e7ed      	b.n	8029a76 <UART_WaitOnFlagUntilTimeout+0x64>

08029a9a <UART_CheckIdleState>:
 8029a9a:	b530      	push	{r4, r5, lr}
 8029a9c:	2500      	movs	r5, #0
 8029a9e:	4604      	mov	r4, r0
 8029aa0:	b085      	sub	sp, #20
 8029aa2:	f8c0 5090 	str.w	r5, [r0, #144]	; 0x90
 8029aa6:	f7fc fe6f 	bl	8026788 <HAL_GetTick>
 8029aaa:	6822      	ldr	r2, [r4, #0]
 8029aac:	4603      	mov	r3, r0
 8029aae:	6812      	ldr	r2, [r2, #0]
 8029ab0:	0711      	lsls	r1, r2, #28
 8029ab2:	d51c      	bpl.n	8029aee <UART_CheckIdleState+0x54>
 8029ab4:	f06f 427e 	mvn.w	r2, #4261412864	; 0xfe000000
 8029ab8:	9003      	str	r0, [sp, #12]
 8029aba:	f44f 1100 	mov.w	r1, #2097152	; 0x200000
 8029abe:	4620      	mov	r0, r4
 8029ac0:	9200      	str	r2, [sp, #0]
 8029ac2:	462a      	mov	r2, r5
 8029ac4:	f7ff ffa5 	bl	8029a12 <UART_WaitOnFlagUntilTimeout>
 8029ac8:	9b03      	ldr	r3, [sp, #12]
 8029aca:	b180      	cbz	r0, 8029aee <UART_CheckIdleState+0x54>
 8029acc:	6821      	ldr	r1, [r4, #0]
 8029ace:	e851 3f00 	ldrex	r3, [r1]
 8029ad2:	f023 0380 	bic.w	r3, r3, #128	; 0x80
 8029ad6:	e841 3200 	strex	r2, r3, [r1]
 8029ada:	2a00      	cmp	r2, #0
 8029adc:	d1f6      	bne.n	8029acc <UART_CheckIdleState+0x32>
 8029ade:	2320      	movs	r3, #32
 8029ae0:	f8c4 3088 	str.w	r3, [r4, #136]	; 0x88
 8029ae4:	2003      	movs	r0, #3
 8029ae6:	f884 2084 	strb.w	r2, [r4, #132]	; 0x84
 8029aea:	b005      	add	sp, #20
 8029aec:	bd30      	pop	{r4, r5, pc}
 8029aee:	6822      	ldr	r2, [r4, #0]
 8029af0:	6812      	ldr	r2, [r2, #0]
 8029af2:	0752      	lsls	r2, r2, #29
 8029af4:	d523      	bpl.n	8029b3e <UART_CheckIdleState+0xa4>
 8029af6:	f06f 427e 	mvn.w	r2, #4261412864	; 0xfe000000
 8029afa:	f44f 0180 	mov.w	r1, #4194304	; 0x400000
 8029afe:	4620      	mov	r0, r4
 8029b00:	9200      	str	r2, [sp, #0]
 8029b02:	2200      	movs	r2, #0
 8029b04:	f7ff ff85 	bl	8029a12 <UART_WaitOnFlagUntilTimeout>
 8029b08:	b1c8      	cbz	r0, 8029b3e <UART_CheckIdleState+0xa4>
 8029b0a:	6822      	ldr	r2, [r4, #0]
 8029b0c:	e852 3f00 	ldrex	r3, [r2]
 8029b10:	f423 7390 	bic.w	r3, r3, #288	; 0x120
 8029b14:	e842 3000 	strex	r0, r3, [r2]
 8029b18:	6821      	ldr	r1, [r4, #0]
 8029b1a:	2800      	cmp	r0, #0
 8029b1c:	d1f5      	bne.n	8029b0a <UART_CheckIdleState+0x70>
 8029b1e:	f101 0308 	add.w	r3, r1, #8
 8029b22:	e853 3f00 	ldrex	r3, [r3]
 8029b26:	f023 0301 	bic.w	r3, r3, #1
 8029b2a:	f101 0008 	add.w	r0, r1, #8
 8029b2e:	e840 3200 	strex	r2, r3, [r0]
 8029b32:	2a00      	cmp	r2, #0
 8029b34:	d1f3      	bne.n	8029b1e <UART_CheckIdleState+0x84>
 8029b36:	2320      	movs	r3, #32
 8029b38:	f8c4 308c 	str.w	r3, [r4, #140]	; 0x8c
 8029b3c:	e7d2      	b.n	8029ae4 <UART_CheckIdleState+0x4a>
 8029b3e:	2000      	movs	r0, #0
 8029b40:	2320      	movs	r3, #32
 8029b42:	f884 0084 	strb.w	r0, [r4, #132]	; 0x84
 8029b46:	f8c4 3088 	str.w	r3, [r4, #136]	; 0x88
 8029b4a:	f8c4 308c 	str.w	r3, [r4, #140]	; 0x8c
 8029b4e:	66e0      	str	r0, [r4, #108]	; 0x6c
 8029b50:	6720      	str	r0, [r4, #112]	; 0x70
 8029b52:	e7ca      	b.n	8029aea <UART_CheckIdleState+0x50>

08029b54 <HAL_UART_Init>:
 8029b54:	b510      	push	{r4, lr}
 8029b56:	4604      	mov	r4, r0
 8029b58:	b350      	cbz	r0, 8029bb0 <HAL_UART_Init+0x5c>
 8029b5a:	f8d0 3088 	ldr.w	r3, [r0, #136]	; 0x88
 8029b5e:	b91b      	cbnz	r3, 8029b68 <HAL_UART_Init+0x14>
 8029b60:	f880 3084 	strb.w	r3, [r0, #132]	; 0x84
 8029b64:	f7fc fa9c 	bl	80260a0 <HAL_UART_MspInit>
 8029b68:	6822      	ldr	r2, [r4, #0]
 8029b6a:	2324      	movs	r3, #36	; 0x24
 8029b6c:	4620      	mov	r0, r4
 8029b6e:	f8c4 3088 	str.w	r3, [r4, #136]	; 0x88
 8029b72:	6813      	ldr	r3, [r2, #0]
 8029b74:	f023 0301 	bic.w	r3, r3, #1
 8029b78:	6013      	str	r3, [r2, #0]
 8029b7a:	f7ff fd2f 	bl	80295dc <UART_SetConfig>
 8029b7e:	2801      	cmp	r0, #1
 8029b80:	d016      	beq.n	8029bb0 <HAL_UART_Init+0x5c>
 8029b82:	6aa3      	ldr	r3, [r4, #40]	; 0x28
 8029b84:	b113      	cbz	r3, 8029b8c <HAL_UART_Init+0x38>
 8029b86:	4620      	mov	r0, r4
 8029b88:	f7ff feee 	bl	8029968 <UART_AdvFeatureConfig>
 8029b8c:	6823      	ldr	r3, [r4, #0]
 8029b8e:	4620      	mov	r0, r4
 8029b90:	685a      	ldr	r2, [r3, #4]
 8029b92:	f422 4290 	bic.w	r2, r2, #18432	; 0x4800
 8029b96:	605a      	str	r2, [r3, #4]
 8029b98:	689a      	ldr	r2, [r3, #8]
 8029b9a:	f022 022a 	bic.w	r2, r2, #42	; 0x2a
 8029b9e:	609a      	str	r2, [r3, #8]
 8029ba0:	681a      	ldr	r2, [r3, #0]
 8029ba2:	f042 0201 	orr.w	r2, r2, #1
 8029ba6:	e8bd 4010 	ldmia.w	sp!, {r4, lr}
 8029baa:	601a      	str	r2, [r3, #0]
 8029bac:	f7ff bf75 	b.w	8029a9a <UART_CheckIdleState>
 8029bb0:	2001      	movs	r0, #1
 8029bb2:	bd10      	pop	{r4, pc}

08029bb4 <UARTEx_SetNbDataToProcess>:
 8029bb4:	6e43      	ldr	r3, [r0, #100]	; 0x64
 8029bb6:	b530      	push	{r4, r5, lr}
 8029bb8:	b91b      	cbnz	r3, 8029bc2 <UARTEx_SetNbDataToProcess+0xe>
 8029bba:	f04f 1301 	mov.w	r3, #65537	; 0x10001
 8029bbe:	6683      	str	r3, [r0, #104]	; 0x68
 8029bc0:	bd30      	pop	{r4, r5, pc}
 8029bc2:	6803      	ldr	r3, [r0, #0]
 8029bc4:	4d0a      	ldr	r5, [pc, #40]	; (8029bf0 <UARTEx_SetNbDataToProcess+0x3c>)
 8029bc6:	689a      	ldr	r2, [r3, #8]
 8029bc8:	6899      	ldr	r1, [r3, #8]
 8029bca:	4c0a      	ldr	r4, [pc, #40]	; (8029bf4 <UARTEx_SetNbDataToProcess+0x40>)
 8029bcc:	f3c2 6242 	ubfx	r2, r2, #25, #3
 8029bd0:	0f49      	lsrs	r1, r1, #29
 8029bd2:	5c6b      	ldrb	r3, [r5, r1]
 8029bd4:	5c61      	ldrb	r1, [r4, r1]
 8029bd6:	011b      	lsls	r3, r3, #4
 8029bd8:	fbb3 f3f1 	udiv	r3, r3, r1
 8029bdc:	f8a0 306a 	strh.w	r3, [r0, #106]	; 0x6a
 8029be0:	5cab      	ldrb	r3, [r5, r2]
 8029be2:	5ca2      	ldrb	r2, [r4, r2]
 8029be4:	011b      	lsls	r3, r3, #4
 8029be6:	fbb3 f3f2 	udiv	r3, r3, r2
 8029bea:	f8a0 3068 	strh.w	r3, [r0, #104]	; 0x68
 8029bee:	e7e7      	b.n	8029bc0 <UARTEx_SetNbDataToProcess+0xc>
 8029bf0:	0802bed6 	.word	0x0802bed6
 8029bf4:	0802bece 	.word	0x0802bece

08029bf8 <HAL_UARTEx_DisableFifoMode>:
 8029bf8:	f890 3084 	ldrb.w	r3, [r0, #132]	; 0x84
 8029bfc:	2b01      	cmp	r3, #1
 8029bfe:	d014      	beq.n	8029c2a <HAL_UARTEx_DisableFifoMode+0x32>
 8029c00:	6802      	ldr	r2, [r0, #0]
 8029c02:	2324      	movs	r3, #36	; 0x24
 8029c04:	f8c0 3088 	str.w	r3, [r0, #136]	; 0x88
 8029c08:	6811      	ldr	r1, [r2, #0]
 8029c0a:	6813      	ldr	r3, [r2, #0]
 8029c0c:	f021 5100 	bic.w	r1, r1, #536870912	; 0x20000000
 8029c10:	f023 0301 	bic.w	r3, r3, #1
 8029c14:	6013      	str	r3, [r2, #0]
 8029c16:	2300      	movs	r3, #0
 8029c18:	6643      	str	r3, [r0, #100]	; 0x64
 8029c1a:	6011      	str	r1, [r2, #0]
 8029c1c:	2220      	movs	r2, #32
 8029c1e:	f880 3084 	strb.w	r3, [r0, #132]	; 0x84
 8029c22:	f8c0 2088 	str.w	r2, [r0, #136]	; 0x88
 8029c26:	4618      	mov	r0, r3
 8029c28:	4770      	bx	lr
 8029c2a:	2002      	movs	r0, #2
 8029c2c:	4770      	bx	lr

08029c2e <HAL_UARTEx_SetTxFifoThreshold>:
 8029c2e:	b538      	push	{r3, r4, r5, lr}
 8029c30:	f890 3084 	ldrb.w	r3, [r0, #132]	; 0x84
 8029c34:	4604      	mov	r4, r0
 8029c36:	2b01      	cmp	r3, #1
 8029c38:	d01b      	beq.n	8029c72 <HAL_UARTEx_SetTxFifoThreshold+0x44>
 8029c3a:	2301      	movs	r3, #1
 8029c3c:	f880 3084 	strb.w	r3, [r0, #132]	; 0x84
 8029c40:	2324      	movs	r3, #36	; 0x24
 8029c42:	f8c0 3088 	str.w	r3, [r0, #136]	; 0x88
 8029c46:	6803      	ldr	r3, [r0, #0]
 8029c48:	681d      	ldr	r5, [r3, #0]
 8029c4a:	681a      	ldr	r2, [r3, #0]
 8029c4c:	f022 0201 	bic.w	r2, r2, #1
 8029c50:	601a      	str	r2, [r3, #0]
 8029c52:	689a      	ldr	r2, [r3, #8]
 8029c54:	f022 4260 	bic.w	r2, r2, #3758096384	; 0xe0000000
 8029c58:	4311      	orrs	r1, r2
 8029c5a:	6099      	str	r1, [r3, #8]
 8029c5c:	f7ff ffaa 	bl	8029bb4 <UARTEx_SetNbDataToProcess>
 8029c60:	6803      	ldr	r3, [r0, #0]
 8029c62:	601d      	str	r5, [r3, #0]
 8029c64:	2320      	movs	r3, #32
 8029c66:	f8c0 3088 	str.w	r3, [r0, #136]	; 0x88
 8029c6a:	2000      	movs	r0, #0
 8029c6c:	f884 0084 	strb.w	r0, [r4, #132]	; 0x84
 8029c70:	bd38      	pop	{r3, r4, r5, pc}
 8029c72:	2002      	movs	r0, #2
 8029c74:	e7fc      	b.n	8029c70 <HAL_UARTEx_SetTxFifoThreshold+0x42>

08029c76 <HAL_UARTEx_SetRxFifoThreshold>:
 8029c76:	b538      	push	{r3, r4, r5, lr}
 8029c78:	f890 3084 	ldrb.w	r3, [r0, #132]	; 0x84
 8029c7c:	4604      	mov	r4, r0
 8029c7e:	2b01      	cmp	r3, #1
 8029c80:	d01b      	beq.n	8029cba <HAL_UARTEx_SetRxFifoThreshold+0x44>
 8029c82:	2301      	movs	r3, #1
 8029c84:	f880 3084 	strb.w	r3, [r0, #132]	; 0x84
 8029c88:	2324      	movs	r3, #36	; 0x24
 8029c8a:	f8c0 3088 	str.w	r3, [r0, #136]	; 0x88
 8029c8e:	6803      	ldr	r3, [r0, #0]
 8029c90:	681d      	ldr	r5, [r3, #0]
 8029c92:	681a      	ldr	r2, [r3, #0]
 8029c94:	f022 0201 	bic.w	r2, r2, #1
 8029c98:	601a      	str	r2, [r3, #0]
 8029c9a:	689a      	ldr	r2, [r3, #8]
 8029c9c:	f022 6260 	bic.w	r2, r2, #234881024	; 0xe000000
 8029ca0:	4311      	orrs	r1, r2
 8029ca2:	6099      	str	r1, [r3, #8]
 8029ca4:	f7ff ff86 	bl	8029bb4 <UARTEx_SetNbDataToProcess>
 8029ca8:	6803      	ldr	r3, [r0, #0]
 8029caa:	601d      	str	r5, [r3, #0]
 8029cac:	2320      	movs	r3, #32
 8029cae:	f8c0 3088 	str.w	r3, [r0, #136]	; 0x88
 8029cb2:	2000      	movs	r0, #0
 8029cb4:	f884 0084 	strb.w	r0, [r4, #132]	; 0x84
 8029cb8:	bd38      	pop	{r3, r4, r5, pc}
 8029cba:	2002      	movs	r0, #2
 8029cbc:	e7fc      	b.n	8029cb8 <HAL_UARTEx_SetRxFifoThreshold+0x42>
	...

08029cc0 <FMC_NORSRAM_Init>:
 8029cc0:	680a      	ldr	r2, [r1, #0]
 8029cc2:	f850 3022 	ldr.w	r3, [r0, r2, lsl #2]
 8029cc6:	f023 0301 	bic.w	r3, r3, #1
 8029cca:	b5f0      	push	{r4, r5, r6, r7, lr}
 8029ccc:	684e      	ldr	r6, [r1, #4]
 8029cce:	f840 3022 	str.w	r3, [r0, r2, lsl #2]
 8029cd2:	688b      	ldr	r3, [r1, #8]
 8029cd4:	f850 7022 	ldr.w	r7, [r0, r2, lsl #2]
 8029cd8:	2b08      	cmp	r3, #8
 8029cda:	ea43 0306 	orr.w	r3, r3, r6
 8029cde:	68ce      	ldr	r6, [r1, #12]
 8029ce0:	bf0c      	ite	eq
 8029ce2:	f04f 0c40 	moveq.w	ip, #64	; 0x40
 8029ce6:	f04f 0c00 	movne.w	ip, #0
 8029cea:	4333      	orrs	r3, r6
 8029cec:	690e      	ldr	r6, [r1, #16]
 8029cee:	4333      	orrs	r3, r6
 8029cf0:	694e      	ldr	r6, [r1, #20]
 8029cf2:	4333      	orrs	r3, r6
 8029cf4:	698e      	ldr	r6, [r1, #24]
 8029cf6:	4333      	orrs	r3, r6
 8029cf8:	69ce      	ldr	r6, [r1, #28]
 8029cfa:	4333      	orrs	r3, r6
 8029cfc:	6a0e      	ldr	r6, [r1, #32]
 8029cfe:	4333      	orrs	r3, r6
 8029d00:	6a4e      	ldr	r6, [r1, #36]	; 0x24
 8029d02:	4333      	orrs	r3, r6
 8029d04:	6a8e      	ldr	r6, [r1, #40]	; 0x28
 8029d06:	4333      	orrs	r3, r6
 8029d08:	6ace      	ldr	r6, [r1, #44]	; 0x2c
 8029d0a:	e9d1 540c 	ldrd	r5, r4, [r1, #48]	; 0x30
 8029d0e:	4333      	orrs	r3, r6
 8029d10:	6b89      	ldr	r1, [r1, #56]	; 0x38
 8029d12:	f5b5 1f80 	cmp.w	r5, #1048576	; 0x100000
 8029d16:	ea43 0305 	orr.w	r3, r3, r5
 8029d1a:	ea43 0304 	orr.w	r3, r3, r4
 8029d1e:	ea43 0301 	orr.w	r3, r3, r1
 8029d22:	490b      	ldr	r1, [pc, #44]	; (8029d50 <FMC_NORSRAM_Init+0x90>)
 8029d24:	ea01 0107 	and.w	r1, r1, r7
 8029d28:	ea43 0301 	orr.w	r3, r3, r1
 8029d2c:	ea43 030c 	orr.w	r3, r3, ip
 8029d30:	f840 3022 	str.w	r3, [r0, r2, lsl #2]
 8029d34:	d108      	bne.n	8029d48 <FMC_NORSRAM_Init+0x88>
 8029d36:	b14a      	cbz	r2, 8029d4c <FMC_NORSRAM_Init+0x8c>
 8029d38:	6803      	ldr	r3, [r0, #0]
 8029d3a:	f443 1380 	orr.w	r3, r3, #1048576	; 0x100000
 8029d3e:	6003      	str	r3, [r0, #0]
 8029d40:	6803      	ldr	r3, [r0, #0]
 8029d42:	431c      	orrs	r4, r3
 8029d44:	6004      	str	r4, [r0, #0]
 8029d46:	e001      	b.n	8029d4c <FMC_NORSRAM_Init+0x8c>
 8029d48:	2a00      	cmp	r2, #0
 8029d4a:	d1f9      	bne.n	8029d40 <FMC_NORSRAM_Init+0x80>
 8029d4c:	2000      	movs	r0, #0
 8029d4e:	bdf0      	pop	{r4, r5, r6, r7, pc}
 8029d50:	ffc00480 	.word	0xffc00480

08029d54 <FMC_NORSRAM_Timing_Init>:
 8029d54:	690b      	ldr	r3, [r1, #16]
 8029d56:	eb00 0282 	add.w	r2, r0, r2, lsl #2
 8029d5a:	b5f0      	push	{r4, r5, r6, r7, lr}
 8029d5c:	698f      	ldr	r7, [r1, #24]
 8029d5e:	1e5d      	subs	r5, r3, #1
 8029d60:	680b      	ldr	r3, [r1, #0]
 8029d62:	6856      	ldr	r6, [r2, #4]
 8029d64:	052c      	lsls	r4, r5, #20
 8029d66:	433b      	orrs	r3, r7
 8029d68:	684f      	ldr	r7, [r1, #4]
 8029d6a:	ea43 1307 	orr.w	r3, r3, r7, lsl #4
 8029d6e:	688f      	ldr	r7, [r1, #8]
 8029d70:	ea43 2307 	orr.w	r3, r3, r7, lsl #8
 8029d74:	68cf      	ldr	r7, [r1, #12]
 8029d76:	6949      	ldr	r1, [r1, #20]
 8029d78:	ea43 4307 	orr.w	r3, r3, r7, lsl #16
 8029d7c:	3902      	subs	r1, #2
 8029d7e:	ea43 5305 	orr.w	r3, r3, r5, lsl #20
 8029d82:	ea43 6301 	orr.w	r3, r3, r1, lsl #24
 8029d86:	f006 4140 	and.w	r1, r6, #3221225472	; 0xc0000000
 8029d8a:	430b      	orrs	r3, r1
 8029d8c:	6053      	str	r3, [r2, #4]
 8029d8e:	6803      	ldr	r3, [r0, #0]
 8029d90:	02db      	lsls	r3, r3, #11
 8029d92:	d508      	bpl.n	8029da6 <FMC_NORSRAM_Timing_Init+0x52>
 8029d94:	6842      	ldr	r2, [r0, #4]
 8029d96:	6843      	ldr	r3, [r0, #4]
 8029d98:	f422 0270 	bic.w	r2, r2, #15728640	; 0xf00000
 8029d9c:	f423 0370 	bic.w	r3, r3, #15728640	; 0xf00000
 8029da0:	4314      	orrs	r4, r2
 8029da2:	4323      	orrs	r3, r4
 8029da4:	6043      	str	r3, [r0, #4]
 8029da6:	2000      	movs	r0, #0
 8029da8:	bdf0      	pop	{r4, r5, r6, r7, pc}
	...

08029dac <FMC_NORSRAM_Extended_Timing_Init>:
 8029dac:	f5b3 4f80 	cmp.w	r3, #16384	; 0x4000
 8029db0:	b530      	push	{r4, r5, lr}
 8029db2:	d114      	bne.n	8029dde <FMC_NORSRAM_Extended_Timing_Init+0x32>
 8029db4:	698d      	ldr	r5, [r1, #24]
 8029db6:	680b      	ldr	r3, [r1, #0]
 8029db8:	f850 4022 	ldr.w	r4, [r0, r2, lsl #2]
 8029dbc:	432b      	orrs	r3, r5
 8029dbe:	684d      	ldr	r5, [r1, #4]
 8029dc0:	ea43 1305 	orr.w	r3, r3, r5, lsl #4
 8029dc4:	688d      	ldr	r5, [r1, #8]
 8029dc6:	68c9      	ldr	r1, [r1, #12]
 8029dc8:	ea43 2305 	orr.w	r3, r3, r5, lsl #8
 8029dcc:	ea43 4301 	orr.w	r3, r3, r1, lsl #16
 8029dd0:	4904      	ldr	r1, [pc, #16]	; (8029de4 <FMC_NORSRAM_Extended_Timing_Init+0x38>)
 8029dd2:	4021      	ands	r1, r4
 8029dd4:	430b      	orrs	r3, r1
 8029dd6:	f840 3022 	str.w	r3, [r0, r2, lsl #2]
 8029dda:	2000      	movs	r0, #0
 8029ddc:	bd30      	pop	{r4, r5, pc}
 8029dde:	f06f 4370 	mvn.w	r3, #4026531840	; 0xf0000000
 8029de2:	e7f8      	b.n	8029dd6 <FMC_NORSRAM_Extended_Timing_Init+0x2a>
 8029de4:	cff00000 	.word	0xcff00000

08029de8 <Print2Hex>:
 8029de8:	e92d 41f0 	stmdb	sp!, {r4, r5, r6, r7, r8, lr}
 8029dec:	2400      	movs	r4, #0
 8029dee:	4f0d      	ldr	r7, [pc, #52]	; (8029e24 <Print2Hex+0x3c>)
 8029df0:	f8df 8038 	ldr.w	r8, [pc, #56]	; 8029e2c <Print2Hex+0x44>
 8029df4:	460e      	mov	r6, r1
 8029df6:	4601      	mov	r1, r0
 8029df8:	480b      	ldr	r0, [pc, #44]	; (8029e28 <Print2Hex+0x40>)
 8029dfa:	4615      	mov	r5, r2
 8029dfc:	f7fc f8b4 	bl	8025f68 <printf_>
 8029e00:	42ac      	cmp	r4, r5
 8029e02:	db04      	blt.n	8029e0e <Print2Hex+0x26>
 8029e04:	4807      	ldr	r0, [pc, #28]	; (8029e24 <Print2Hex+0x3c>)
 8029e06:	e8bd 41f0 	ldmia.w	sp!, {r4, r5, r6, r7, r8, lr}
 8029e0a:	f7fc b8ad 	b.w	8025f68 <printf_>
 8029e0e:	0723      	lsls	r3, r4, #28
 8029e10:	d102      	bne.n	8029e18 <Print2Hex+0x30>
 8029e12:	4638      	mov	r0, r7
 8029e14:	f7fc f8a8 	bl	8025f68 <printf_>
 8029e18:	5d31      	ldrb	r1, [r6, r4]
 8029e1a:	4640      	mov	r0, r8
 8029e1c:	3401      	adds	r4, #1
 8029e1e:	f7fc f8a3 	bl	8025f68 <printf_>
 8029e22:	e7ed      	b.n	8029e00 <Print2Hex+0x18>
 8029e24:	0802be03 	.word	0x0802be03
 8029e28:	0802bede 	.word	0x0802bede
 8029e2c:	0802bee7 	.word	0x0802bee7

08029e30 <SetTimer>:
 8029e30:	2301      	movs	r3, #1
 8029e32:	7003      	strb	r3, [r0, #0]
 8029e34:	4b01      	ldr	r3, [pc, #4]	; (8029e3c <SetTimer+0xc>)
 8029e36:	681b      	ldr	r3, [r3, #0]
 8029e38:	6043      	str	r3, [r0, #4]
 8029e3a:	4770      	bx	lr
 8029e3c:	24001f48 	.word	0x24001f48

08029e40 <ResetTimer>:
 8029e40:	2300      	movs	r3, #0
 8029e42:	7003      	strb	r3, [r0, #0]
 8029e44:	4770      	bx	lr
	...

08029e48 <IsTimeout>:
 8029e48:	4602      	mov	r2, r0
 8029e4a:	7800      	ldrb	r0, [r0, #0]
 8029e4c:	b158      	cbz	r0, 8029e66 <IsTimeout+0x1e>
 8029e4e:	4b06      	ldr	r3, [pc, #24]	; (8029e68 <IsTimeout+0x20>)
 8029e50:	6852      	ldr	r2, [r2, #4]
 8029e52:	6818      	ldr	r0, [r3, #0]
 8029e54:	4282      	cmp	r2, r0
 8029e56:	bf88      	it	hi
 8029e58:	f100 30ff 	addhi.w	r0, r0, #4294967295
 8029e5c:	1a80      	subs	r0, r0, r2
 8029e5e:	4288      	cmp	r0, r1
 8029e60:	bf34      	ite	cc
 8029e62:	2000      	movcc	r0, #0
 8029e64:	2001      	movcs	r0, #1
 8029e66:	4770      	bx	lr
 8029e68:	24001f48 	.word	0x24001f48

08029e6c <ReverseByte>:
 8029e6c:	0903      	lsrs	r3, r0, #4
 8029e6e:	ea43 1300 	orr.w	r3, r3, r0, lsl #4
 8029e72:	f020 0033 	bic.w	r0, r0, #51	; 0x33
 8029e76:	f003 0333 	and.w	r3, r3, #51	; 0x33
 8029e7a:	4318      	orrs	r0, r3
 8029e7c:	0943      	lsrs	r3, r0, #5
 8029e7e:	ea43 02c0 	orr.w	r2, r3, r0, lsl #3
 8029e82:	09c3      	lsrs	r3, r0, #7
 8029e84:	f002 02aa 	and.w	r2, r2, #170	; 0xaa
 8029e88:	ea43 0040 	orr.w	r0, r3, r0, lsl #1
 8029e8c:	f000 0055 	and.w	r0, r0, #85	; 0x55
 8029e90:	4310      	orrs	r0, r2
 8029e92:	4770      	bx	lr

08029e94 <__errno>:
 8029e94:	4b01      	ldr	r3, [pc, #4]	; (8029e9c <__errno+0x8>)
 8029e96:	6818      	ldr	r0, [r3, #0]
 8029e98:	4770      	bx	lr
 8029e9a:	bf00      	nop
 8029e9c:	24000040 	.word	0x24000040

08029ea0 <__libc_init_array>:
 8029ea0:	b570      	push	{r4, r5, r6, lr}
 8029ea2:	4d0d      	ldr	r5, [pc, #52]	; (8029ed8 <__libc_init_array+0x38>)
 8029ea4:	4c0d      	ldr	r4, [pc, #52]	; (8029edc <__libc_init_array+0x3c>)
 8029ea6:	1b64      	subs	r4, r4, r5
 8029ea8:	10a4      	asrs	r4, r4, #2
 8029eaa:	2600      	movs	r6, #0
 8029eac:	42a6      	cmp	r6, r4
 8029eae:	d109      	bne.n	8029ec4 <__libc_init_array+0x24>
 8029eb0:	4d0b      	ldr	r5, [pc, #44]	; (8029ee0 <__libc_init_array+0x40>)
 8029eb2:	4c0c      	ldr	r4, [pc, #48]	; (8029ee4 <__libc_init_array+0x44>)
 8029eb4:	f001 f84a 	bl	802af4c <_init>
 8029eb8:	1b64      	subs	r4, r4, r5
 8029eba:	10a4      	asrs	r4, r4, #2
 8029ebc:	2600      	movs	r6, #0
 8029ebe:	42a6      	cmp	r6, r4
 8029ec0:	d105      	bne.n	8029ece <__libc_init_array+0x2e>
 8029ec2:	bd70      	pop	{r4, r5, r6, pc}
 8029ec4:	f855 3b04 	ldr.w	r3, [r5], #4
 8029ec8:	4798      	blx	r3
 8029eca:	3601      	adds	r6, #1
 8029ecc:	e7ee      	b.n	8029eac <__libc_init_array+0xc>
 8029ece:	f855 3b04 	ldr.w	r3, [r5], #4
 8029ed2:	4798      	blx	r3
 8029ed4:	3601      	adds	r6, #1
 8029ed6:	e7f2      	b.n	8029ebe <__libc_init_array+0x1e>
 8029ed8:	0802bf8c 	.word	0x0802bf8c
 8029edc:	0802bf8c 	.word	0x0802bf8c
 8029ee0:	0802bf8c 	.word	0x0802bf8c
 8029ee4:	0802bf90 	.word	0x0802bf90

08029ee8 <memcmp>:
 8029ee8:	b510      	push	{r4, lr}
 8029eea:	3901      	subs	r1, #1
 8029eec:	4402      	add	r2, r0
 8029eee:	4290      	cmp	r0, r2
 8029ef0:	d101      	bne.n	8029ef6 <memcmp+0xe>
 8029ef2:	2000      	movs	r0, #0
 8029ef4:	e005      	b.n	8029f02 <memcmp+0x1a>
 8029ef6:	7803      	ldrb	r3, [r0, #0]
 8029ef8:	f811 4f01 	ldrb.w	r4, [r1, #1]!
 8029efc:	42a3      	cmp	r3, r4
 8029efe:	d001      	beq.n	8029f04 <memcmp+0x1c>
 8029f00:	1b18      	subs	r0, r3, r4
 8029f02:	bd10      	pop	{r4, pc}
 8029f04:	3001      	adds	r0, #1
 8029f06:	e7f2      	b.n	8029eee <memcmp+0x6>

08029f08 <memcpy>:
 8029f08:	440a      	add	r2, r1
 8029f0a:	4291      	cmp	r1, r2
 8029f0c:	f100 33ff 	add.w	r3, r0, #4294967295
 8029f10:	d100      	bne.n	8029f14 <memcpy+0xc>
 8029f12:	4770      	bx	lr
 8029f14:	b510      	push	{r4, lr}
 8029f16:	f811 4b01 	ldrb.w	r4, [r1], #1
 8029f1a:	f803 4f01 	strb.w	r4, [r3, #1]!
 8029f1e:	4291      	cmp	r1, r2
 8029f20:	d1f9      	bne.n	8029f16 <memcpy+0xe>
 8029f22:	bd10      	pop	{r4, pc}

08029f24 <memset>:
 8029f24:	4402      	add	r2, r0
 8029f26:	4603      	mov	r3, r0
 8029f28:	4293      	cmp	r3, r2
 8029f2a:	d100      	bne.n	8029f2e <memset+0xa>
 8029f2c:	4770      	bx	lr
 8029f2e:	f803 1b01 	strb.w	r1, [r3], #1
 8029f32:	e7f9      	b.n	8029f28 <memset+0x4>

08029f34 <_free_r>:
 8029f34:	b537      	push	{r0, r1, r2, r4, r5, lr}
 8029f36:	2900      	cmp	r1, #0
 8029f38:	d044      	beq.n	8029fc4 <_free_r+0x90>
 8029f3a:	f851 3c04 	ldr.w	r3, [r1, #-4]
 8029f3e:	9001      	str	r0, [sp, #4]
 8029f40:	2b00      	cmp	r3, #0
 8029f42:	f1a1 0404 	sub.w	r4, r1, #4
 8029f46:	bfb8      	it	lt
 8029f48:	18e4      	addlt	r4, r4, r3
 8029f4a:	f000 fc59 	bl	802a800 <__malloc_lock>
 8029f4e:	4a1e      	ldr	r2, [pc, #120]	; (8029fc8 <_free_r+0x94>)
 8029f50:	9801      	ldr	r0, [sp, #4]
 8029f52:	6813      	ldr	r3, [r2, #0]
 8029f54:	b933      	cbnz	r3, 8029f64 <_free_r+0x30>
 8029f56:	6063      	str	r3, [r4, #4]
 8029f58:	6014      	str	r4, [r2, #0]
 8029f5a:	b003      	add	sp, #12
 8029f5c:	e8bd 4030 	ldmia.w	sp!, {r4, r5, lr}
 8029f60:	f000 bc54 	b.w	802a80c <__malloc_unlock>
 8029f64:	42a3      	cmp	r3, r4
 8029f66:	d908      	bls.n	8029f7a <_free_r+0x46>
 8029f68:	6825      	ldr	r5, [r4, #0]
 8029f6a:	1961      	adds	r1, r4, r5
 8029f6c:	428b      	cmp	r3, r1
 8029f6e:	bf01      	itttt	eq
 8029f70:	6819      	ldreq	r1, [r3, #0]
 8029f72:	685b      	ldreq	r3, [r3, #4]
 8029f74:	1949      	addeq	r1, r1, r5
 8029f76:	6021      	streq	r1, [r4, #0]
 8029f78:	e7ed      	b.n	8029f56 <_free_r+0x22>
 8029f7a:	461a      	mov	r2, r3
 8029f7c:	685b      	ldr	r3, [r3, #4]
 8029f7e:	b10b      	cbz	r3, 8029f84 <_free_r+0x50>
 8029f80:	42a3      	cmp	r3, r4
 8029f82:	d9fa      	bls.n	8029f7a <_free_r+0x46>
 8029f84:	6811      	ldr	r1, [r2, #0]
 8029f86:	1855      	adds	r5, r2, r1
 8029f88:	42a5      	cmp	r5, r4
 8029f8a:	d10b      	bne.n	8029fa4 <_free_r+0x70>
 8029f8c:	6824      	ldr	r4, [r4, #0]
 8029f8e:	4421      	add	r1, r4
 8029f90:	1854      	adds	r4, r2, r1
 8029f92:	42a3      	cmp	r3, r4
 8029f94:	6011      	str	r1, [r2, #0]
 8029f96:	d1e0      	bne.n	8029f5a <_free_r+0x26>
 8029f98:	681c      	ldr	r4, [r3, #0]
 8029f9a:	685b      	ldr	r3, [r3, #4]
 8029f9c:	6053      	str	r3, [r2, #4]
 8029f9e:	4421      	add	r1, r4
 8029fa0:	6011      	str	r1, [r2, #0]
 8029fa2:	e7da      	b.n	8029f5a <_free_r+0x26>
 8029fa4:	d902      	bls.n	8029fac <_free_r+0x78>
 8029fa6:	230c      	movs	r3, #12
 8029fa8:	6003      	str	r3, [r0, #0]
 8029faa:	e7d6      	b.n	8029f5a <_free_r+0x26>
 8029fac:	6825      	ldr	r5, [r4, #0]
 8029fae:	1961      	adds	r1, r4, r5
 8029fb0:	428b      	cmp	r3, r1
 8029fb2:	bf04      	itt	eq
 8029fb4:	6819      	ldreq	r1, [r3, #0]
 8029fb6:	685b      	ldreq	r3, [r3, #4]
 8029fb8:	6063      	str	r3, [r4, #4]
 8029fba:	bf04      	itt	eq
 8029fbc:	1949      	addeq	r1, r1, r5
 8029fbe:	6021      	streq	r1, [r4, #0]
 8029fc0:	6054      	str	r4, [r2, #4]
 8029fc2:	e7ca      	b.n	8029f5a <_free_r+0x26>
 8029fc4:	b003      	add	sp, #12
 8029fc6:	bd30      	pop	{r4, r5, pc}
 8029fc8:	24001f4c 	.word	0x24001f4c

08029fcc <sbrk_aligned>:
 8029fcc:	b570      	push	{r4, r5, r6, lr}
 8029fce:	4e0e      	ldr	r6, [pc, #56]	; (802a008 <sbrk_aligned+0x3c>)
 8029fd0:	460c      	mov	r4, r1
 8029fd2:	6831      	ldr	r1, [r6, #0]
 8029fd4:	4605      	mov	r5, r0
 8029fd6:	b911      	cbnz	r1, 8029fde <sbrk_aligned+0x12>
 8029fd8:	f000 f91a 	bl	802a210 <_sbrk_r>
 8029fdc:	6030      	str	r0, [r6, #0]
 8029fde:	4621      	mov	r1, r4
 8029fe0:	4628      	mov	r0, r5
 8029fe2:	f000 f915 	bl	802a210 <_sbrk_r>
 8029fe6:	1c43      	adds	r3, r0, #1
 8029fe8:	d00a      	beq.n	802a000 <sbrk_aligned+0x34>
 8029fea:	1cc4      	adds	r4, r0, #3
 8029fec:	f024 0403 	bic.w	r4, r4, #3
 8029ff0:	42a0      	cmp	r0, r4
 8029ff2:	d007      	beq.n	802a004 <sbrk_aligned+0x38>
 8029ff4:	1a21      	subs	r1, r4, r0
 8029ff6:	4628      	mov	r0, r5
 8029ff8:	f000 f90a 	bl	802a210 <_sbrk_r>
 8029ffc:	3001      	adds	r0, #1
 8029ffe:	d101      	bne.n	802a004 <sbrk_aligned+0x38>
 802a000:	f04f 34ff 	mov.w	r4, #4294967295
 802a004:	4620      	mov	r0, r4
 802a006:	bd70      	pop	{r4, r5, r6, pc}
 802a008:	24001f50 	.word	0x24001f50

0802a00c <_malloc_r>:
 802a00c:	e92d 41f0 	stmdb	sp!, {r4, r5, r6, r7, r8, lr}
 802a010:	1ccd      	adds	r5, r1, #3
 802a012:	f025 0503 	bic.w	r5, r5, #3
 802a016:	3508      	adds	r5, #8
 802a018:	2d0c      	cmp	r5, #12
 802a01a:	bf38      	it	cc
 802a01c:	250c      	movcc	r5, #12
 802a01e:	2d00      	cmp	r5, #0
 802a020:	4607      	mov	r7, r0
 802a022:	db01      	blt.n	802a028 <_malloc_r+0x1c>
 802a024:	42a9      	cmp	r1, r5
 802a026:	d905      	bls.n	802a034 <_malloc_r+0x28>
 802a028:	230c      	movs	r3, #12
 802a02a:	603b      	str	r3, [r7, #0]
 802a02c:	2600      	movs	r6, #0
 802a02e:	4630      	mov	r0, r6
 802a030:	e8bd 81f0 	ldmia.w	sp!, {r4, r5, r6, r7, r8, pc}
 802a034:	4e2e      	ldr	r6, [pc, #184]	; (802a0f0 <_malloc_r+0xe4>)
 802a036:	f000 fbe3 	bl	802a800 <__malloc_lock>
 802a03a:	6833      	ldr	r3, [r6, #0]
 802a03c:	461c      	mov	r4, r3
 802a03e:	bb34      	cbnz	r4, 802a08e <_malloc_r+0x82>
 802a040:	4629      	mov	r1, r5
 802a042:	4638      	mov	r0, r7
 802a044:	f7ff ffc2 	bl	8029fcc <sbrk_aligned>
 802a048:	1c43      	adds	r3, r0, #1
 802a04a:	4604      	mov	r4, r0
 802a04c:	d14d      	bne.n	802a0ea <_malloc_r+0xde>
 802a04e:	6834      	ldr	r4, [r6, #0]
 802a050:	4626      	mov	r6, r4
 802a052:	2e00      	cmp	r6, #0
 802a054:	d140      	bne.n	802a0d8 <_malloc_r+0xcc>
 802a056:	6823      	ldr	r3, [r4, #0]
 802a058:	4631      	mov	r1, r6
 802a05a:	4638      	mov	r0, r7
 802a05c:	eb04 0803 	add.w	r8, r4, r3
 802a060:	f000 f8d6 	bl	802a210 <_sbrk_r>
 802a064:	4580      	cmp	r8, r0
 802a066:	d13a      	bne.n	802a0de <_malloc_r+0xd2>
 802a068:	6821      	ldr	r1, [r4, #0]
 802a06a:	3503      	adds	r5, #3
 802a06c:	1a6d      	subs	r5, r5, r1
 802a06e:	f025 0503 	bic.w	r5, r5, #3
 802a072:	3508      	adds	r5, #8
 802a074:	2d0c      	cmp	r5, #12
 802a076:	bf38      	it	cc
 802a078:	250c      	movcc	r5, #12
 802a07a:	4629      	mov	r1, r5
 802a07c:	4638      	mov	r0, r7
 802a07e:	f7ff ffa5 	bl	8029fcc <sbrk_aligned>
 802a082:	3001      	adds	r0, #1
 802a084:	d02b      	beq.n	802a0de <_malloc_r+0xd2>
 802a086:	6823      	ldr	r3, [r4, #0]
 802a088:	442b      	add	r3, r5
 802a08a:	6023      	str	r3, [r4, #0]
 802a08c:	e00e      	b.n	802a0ac <_malloc_r+0xa0>
 802a08e:	6822      	ldr	r2, [r4, #0]
 802a090:	1b52      	subs	r2, r2, r5
 802a092:	d41e      	bmi.n	802a0d2 <_malloc_r+0xc6>
 802a094:	2a0b      	cmp	r2, #11
 802a096:	d916      	bls.n	802a0c6 <_malloc_r+0xba>
 802a098:	1961      	adds	r1, r4, r5
 802a09a:	42a3      	cmp	r3, r4
 802a09c:	6025      	str	r5, [r4, #0]
 802a09e:	bf18      	it	ne
 802a0a0:	6059      	strne	r1, [r3, #4]
 802a0a2:	6863      	ldr	r3, [r4, #4]
 802a0a4:	bf08      	it	eq
 802a0a6:	6031      	streq	r1, [r6, #0]
 802a0a8:	5162      	str	r2, [r4, r5]
 802a0aa:	604b      	str	r3, [r1, #4]
 802a0ac:	4638      	mov	r0, r7
 802a0ae:	f104 060b 	add.w	r6, r4, #11
 802a0b2:	f000 fbab 	bl	802a80c <__malloc_unlock>
 802a0b6:	f026 0607 	bic.w	r6, r6, #7
 802a0ba:	1d23      	adds	r3, r4, #4
 802a0bc:	1af2      	subs	r2, r6, r3
 802a0be:	d0b6      	beq.n	802a02e <_malloc_r+0x22>
 802a0c0:	1b9b      	subs	r3, r3, r6
 802a0c2:	50a3      	str	r3, [r4, r2]
 802a0c4:	e7b3      	b.n	802a02e <_malloc_r+0x22>
 802a0c6:	6862      	ldr	r2, [r4, #4]
 802a0c8:	42a3      	cmp	r3, r4
 802a0ca:	bf0c      	ite	eq
 802a0cc:	6032      	streq	r2, [r6, #0]
 802a0ce:	605a      	strne	r2, [r3, #4]
 802a0d0:	e7ec      	b.n	802a0ac <_malloc_r+0xa0>
 802a0d2:	4623      	mov	r3, r4
 802a0d4:	6864      	ldr	r4, [r4, #4]
 802a0d6:	e7b2      	b.n	802a03e <_malloc_r+0x32>
 802a0d8:	4634      	mov	r4, r6
 802a0da:	6876      	ldr	r6, [r6, #4]
 802a0dc:	e7b9      	b.n	802a052 <_malloc_r+0x46>
 802a0de:	230c      	movs	r3, #12
 802a0e0:	603b      	str	r3, [r7, #0]
 802a0e2:	4638      	mov	r0, r7
 802a0e4:	f000 fb92 	bl	802a80c <__malloc_unlock>
 802a0e8:	e7a1      	b.n	802a02e <_malloc_r+0x22>
 802a0ea:	6025      	str	r5, [r4, #0]
 802a0ec:	e7de      	b.n	802a0ac <_malloc_r+0xa0>
 802a0ee:	bf00      	nop
 802a0f0:	24001f4c 	.word	0x24001f4c

0802a0f4 <iprintf>:
 802a0f4:	b40f      	push	{r0, r1, r2, r3}
 802a0f6:	4b0a      	ldr	r3, [pc, #40]	; (802a120 <iprintf+0x2c>)
 802a0f8:	b513      	push	{r0, r1, r4, lr}
 802a0fa:	681c      	ldr	r4, [r3, #0]
 802a0fc:	b124      	cbz	r4, 802a108 <iprintf+0x14>
 802a0fe:	69a3      	ldr	r3, [r4, #24]
 802a100:	b913      	cbnz	r3, 802a108 <iprintf+0x14>
 802a102:	4620      	mov	r0, r4
 802a104:	f000 fa76 	bl	802a5f4 <__sinit>
 802a108:	ab05      	add	r3, sp, #20
 802a10a:	9a04      	ldr	r2, [sp, #16]
 802a10c:	68a1      	ldr	r1, [r4, #8]
 802a10e:	9301      	str	r3, [sp, #4]
 802a110:	4620      	mov	r0, r4
 802a112:	f000 fbab 	bl	802a86c <_vfiprintf_r>
 802a116:	b002      	add	sp, #8
 802a118:	e8bd 4010 	ldmia.w	sp!, {r4, lr}
 802a11c:	b004      	add	sp, #16
 802a11e:	4770      	bx	lr
 802a120:	24000040 	.word	0x24000040

0802a124 <_puts_r>:
 802a124:	b570      	push	{r4, r5, r6, lr}
 802a126:	460e      	mov	r6, r1
 802a128:	4605      	mov	r5, r0
 802a12a:	b118      	cbz	r0, 802a134 <_puts_r+0x10>
 802a12c:	6983      	ldr	r3, [r0, #24]
 802a12e:	b90b      	cbnz	r3, 802a134 <_puts_r+0x10>
 802a130:	f000 fa60 	bl	802a5f4 <__sinit>
 802a134:	69ab      	ldr	r3, [r5, #24]
 802a136:	68ac      	ldr	r4, [r5, #8]
 802a138:	b913      	cbnz	r3, 802a140 <_puts_r+0x1c>
 802a13a:	4628      	mov	r0, r5
 802a13c:	f000 fa5a 	bl	802a5f4 <__sinit>
 802a140:	4b2c      	ldr	r3, [pc, #176]	; (802a1f4 <_puts_r+0xd0>)
 802a142:	429c      	cmp	r4, r3
 802a144:	d120      	bne.n	802a188 <_puts_r+0x64>
 802a146:	686c      	ldr	r4, [r5, #4]
 802a148:	6e63      	ldr	r3, [r4, #100]	; 0x64
 802a14a:	07db      	lsls	r3, r3, #31
 802a14c:	d405      	bmi.n	802a15a <_puts_r+0x36>
 802a14e:	89a3      	ldrh	r3, [r4, #12]
 802a150:	0598      	lsls	r0, r3, #22
 802a152:	d402      	bmi.n	802a15a <_puts_r+0x36>
 802a154:	6da0      	ldr	r0, [r4, #88]	; 0x58
 802a156:	f000 faeb 	bl	802a730 <__retarget_lock_acquire_recursive>
 802a15a:	89a3      	ldrh	r3, [r4, #12]
 802a15c:	0719      	lsls	r1, r3, #28
 802a15e:	d51d      	bpl.n	802a19c <_puts_r+0x78>
 802a160:	6923      	ldr	r3, [r4, #16]
 802a162:	b1db      	cbz	r3, 802a19c <_puts_r+0x78>
 802a164:	3e01      	subs	r6, #1
 802a166:	68a3      	ldr	r3, [r4, #8]
 802a168:	f816 1f01 	ldrb.w	r1, [r6, #1]!
 802a16c:	3b01      	subs	r3, #1
 802a16e:	60a3      	str	r3, [r4, #8]
 802a170:	bb39      	cbnz	r1, 802a1c2 <_puts_r+0x9e>
 802a172:	2b00      	cmp	r3, #0
 802a174:	da38      	bge.n	802a1e8 <_puts_r+0xc4>
 802a176:	4622      	mov	r2, r4
 802a178:	210a      	movs	r1, #10
 802a17a:	4628      	mov	r0, r5
 802a17c:	f000 f860 	bl	802a240 <__swbuf_r>
 802a180:	3001      	adds	r0, #1
 802a182:	d011      	beq.n	802a1a8 <_puts_r+0x84>
 802a184:	250a      	movs	r5, #10
 802a186:	e011      	b.n	802a1ac <_puts_r+0x88>
 802a188:	4b1b      	ldr	r3, [pc, #108]	; (802a1f8 <_puts_r+0xd4>)
 802a18a:	429c      	cmp	r4, r3
 802a18c:	d101      	bne.n	802a192 <_puts_r+0x6e>
 802a18e:	68ac      	ldr	r4, [r5, #8]
 802a190:	e7da      	b.n	802a148 <_puts_r+0x24>
 802a192:	4b1a      	ldr	r3, [pc, #104]	; (802a1fc <_puts_r+0xd8>)
 802a194:	429c      	cmp	r4, r3
 802a196:	bf08      	it	eq
 802a198:	68ec      	ldreq	r4, [r5, #12]
 802a19a:	e7d5      	b.n	802a148 <_puts_r+0x24>
 802a19c:	4621      	mov	r1, r4
 802a19e:	4628      	mov	r0, r5
 802a1a0:	f000 f8a0 	bl	802a2e4 <__swsetup_r>
 802a1a4:	2800      	cmp	r0, #0
 802a1a6:	d0dd      	beq.n	802a164 <_puts_r+0x40>
 802a1a8:	f04f 35ff 	mov.w	r5, #4294967295
 802a1ac:	6e63      	ldr	r3, [r4, #100]	; 0x64
 802a1ae:	07da      	lsls	r2, r3, #31
 802a1b0:	d405      	bmi.n	802a1be <_puts_r+0x9a>
 802a1b2:	89a3      	ldrh	r3, [r4, #12]
 802a1b4:	059b      	lsls	r3, r3, #22
 802a1b6:	d402      	bmi.n	802a1be <_puts_r+0x9a>
 802a1b8:	6da0      	ldr	r0, [r4, #88]	; 0x58
 802a1ba:	f000 faba 	bl	802a732 <__retarget_lock_release_recursive>
 802a1be:	4628      	mov	r0, r5
 802a1c0:	bd70      	pop	{r4, r5, r6, pc}
 802a1c2:	2b00      	cmp	r3, #0
 802a1c4:	da04      	bge.n	802a1d0 <_puts_r+0xac>
 802a1c6:	69a2      	ldr	r2, [r4, #24]
 802a1c8:	429a      	cmp	r2, r3
 802a1ca:	dc06      	bgt.n	802a1da <_puts_r+0xb6>
 802a1cc:	290a      	cmp	r1, #10
 802a1ce:	d004      	beq.n	802a1da <_puts_r+0xb6>
 802a1d0:	6823      	ldr	r3, [r4, #0]
 802a1d2:	1c5a      	adds	r2, r3, #1
 802a1d4:	6022      	str	r2, [r4, #0]
 802a1d6:	7019      	strb	r1, [r3, #0]
 802a1d8:	e7c5      	b.n	802a166 <_puts_r+0x42>
 802a1da:	4622      	mov	r2, r4
 802a1dc:	4628      	mov	r0, r5
 802a1de:	f000 f82f 	bl	802a240 <__swbuf_r>
 802a1e2:	3001      	adds	r0, #1
 802a1e4:	d1bf      	bne.n	802a166 <_puts_r+0x42>
 802a1e6:	e7df      	b.n	802a1a8 <_puts_r+0x84>
 802a1e8:	6823      	ldr	r3, [r4, #0]
 802a1ea:	250a      	movs	r5, #10
 802a1ec:	1c5a      	adds	r2, r3, #1
 802a1ee:	6022      	str	r2, [r4, #0]
 802a1f0:	701d      	strb	r5, [r3, #0]
 802a1f2:	e7db      	b.n	802a1ac <_puts_r+0x88>
 802a1f4:	0802bf10 	.word	0x0802bf10
 802a1f8:	0802bf30 	.word	0x0802bf30
 802a1fc:	0802bef0 	.word	0x0802bef0

0802a200 <puts>:
 802a200:	4b02      	ldr	r3, [pc, #8]	; (802a20c <puts+0xc>)
 802a202:	4601      	mov	r1, r0
 802a204:	6818      	ldr	r0, [r3, #0]
 802a206:	f7ff bf8d 	b.w	802a124 <_puts_r>
 802a20a:	bf00      	nop
 802a20c:	24000040 	.word	0x24000040

0802a210 <_sbrk_r>:
 802a210:	b538      	push	{r3, r4, r5, lr}
 802a212:	4d06      	ldr	r5, [pc, #24]	; (802a22c <_sbrk_r+0x1c>)
 802a214:	2300      	movs	r3, #0
 802a216:	4604      	mov	r4, r0
 802a218:	4608      	mov	r0, r1
 802a21a:	602b      	str	r3, [r5, #0]
 802a21c:	f7fc f994 	bl	8026548 <_sbrk>
 802a220:	1c43      	adds	r3, r0, #1
 802a222:	d102      	bne.n	802a22a <_sbrk_r+0x1a>
 802a224:	682b      	ldr	r3, [r5, #0]
 802a226:	b103      	cbz	r3, 802a22a <_sbrk_r+0x1a>
 802a228:	6023      	str	r3, [r4, #0]
 802a22a:	bd38      	pop	{r3, r4, r5, pc}
 802a22c:	24001f58 	.word	0x24001f58

0802a230 <strcpy>:
 802a230:	4603      	mov	r3, r0
 802a232:	f811 2b01 	ldrb.w	r2, [r1], #1
 802a236:	f803 2b01 	strb.w	r2, [r3], #1
 802a23a:	2a00      	cmp	r2, #0
 802a23c:	d1f9      	bne.n	802a232 <strcpy+0x2>
 802a23e:	4770      	bx	lr

0802a240 <__swbuf_r>:
 802a240:	b5f8      	push	{r3, r4, r5, r6, r7, lr}
 802a242:	460e      	mov	r6, r1
 802a244:	4614      	mov	r4, r2
 802a246:	4605      	mov	r5, r0
 802a248:	b118      	cbz	r0, 802a252 <__swbuf_r+0x12>
 802a24a:	6983      	ldr	r3, [r0, #24]
 802a24c:	b90b      	cbnz	r3, 802a252 <__swbuf_r+0x12>
 802a24e:	f000 f9d1 	bl	802a5f4 <__sinit>
 802a252:	4b21      	ldr	r3, [pc, #132]	; (802a2d8 <__swbuf_r+0x98>)
 802a254:	429c      	cmp	r4, r3
 802a256:	d12b      	bne.n	802a2b0 <__swbuf_r+0x70>
 802a258:	686c      	ldr	r4, [r5, #4]
 802a25a:	69a3      	ldr	r3, [r4, #24]
 802a25c:	60a3      	str	r3, [r4, #8]
 802a25e:	89a3      	ldrh	r3, [r4, #12]
 802a260:	071a      	lsls	r2, r3, #28
 802a262:	d52f      	bpl.n	802a2c4 <__swbuf_r+0x84>
 802a264:	6923      	ldr	r3, [r4, #16]
 802a266:	b36b      	cbz	r3, 802a2c4 <__swbuf_r+0x84>
 802a268:	6923      	ldr	r3, [r4, #16]
 802a26a:	6820      	ldr	r0, [r4, #0]
 802a26c:	1ac0      	subs	r0, r0, r3
 802a26e:	6963      	ldr	r3, [r4, #20]
 802a270:	b2f6      	uxtb	r6, r6
 802a272:	4283      	cmp	r3, r0
 802a274:	4637      	mov	r7, r6
 802a276:	dc04      	bgt.n	802a282 <__swbuf_r+0x42>
 802a278:	4621      	mov	r1, r4
 802a27a:	4628      	mov	r0, r5
 802a27c:	f000 f926 	bl	802a4cc <_fflush_r>
 802a280:	bb30      	cbnz	r0, 802a2d0 <__swbuf_r+0x90>
 802a282:	68a3      	ldr	r3, [r4, #8]
 802a284:	3b01      	subs	r3, #1
 802a286:	60a3      	str	r3, [r4, #8]
 802a288:	6823      	ldr	r3, [r4, #0]
 802a28a:	1c5a      	adds	r2, r3, #1
 802a28c:	6022      	str	r2, [r4, #0]
 802a28e:	701e      	strb	r6, [r3, #0]
 802a290:	6963      	ldr	r3, [r4, #20]
 802a292:	3001      	adds	r0, #1
 802a294:	4283      	cmp	r3, r0
 802a296:	d004      	beq.n	802a2a2 <__swbuf_r+0x62>
 802a298:	89a3      	ldrh	r3, [r4, #12]
 802a29a:	07db      	lsls	r3, r3, #31
 802a29c:	d506      	bpl.n	802a2ac <__swbuf_r+0x6c>
 802a29e:	2e0a      	cmp	r6, #10
 802a2a0:	d104      	bne.n	802a2ac <__swbuf_r+0x6c>
 802a2a2:	4621      	mov	r1, r4
 802a2a4:	4628      	mov	r0, r5
 802a2a6:	f000 f911 	bl	802a4cc <_fflush_r>
 802a2aa:	b988      	cbnz	r0, 802a2d0 <__swbuf_r+0x90>
 802a2ac:	4638      	mov	r0, r7
 802a2ae:	bdf8      	pop	{r3, r4, r5, r6, r7, pc}
 802a2b0:	4b0a      	ldr	r3, [pc, #40]	; (802a2dc <__swbuf_r+0x9c>)
 802a2b2:	429c      	cmp	r4, r3
 802a2b4:	d101      	bne.n	802a2ba <__swbuf_r+0x7a>
 802a2b6:	68ac      	ldr	r4, [r5, #8]
 802a2b8:	e7cf      	b.n	802a25a <__swbuf_r+0x1a>
 802a2ba:	4b09      	ldr	r3, [pc, #36]	; (802a2e0 <__swbuf_r+0xa0>)
 802a2bc:	429c      	cmp	r4, r3
 802a2be:	bf08      	it	eq
 802a2c0:	68ec      	ldreq	r4, [r5, #12]
 802a2c2:	e7ca      	b.n	802a25a <__swbuf_r+0x1a>
 802a2c4:	4621      	mov	r1, r4
 802a2c6:	4628      	mov	r0, r5
 802a2c8:	f000 f80c 	bl	802a2e4 <__swsetup_r>
 802a2cc:	2800      	cmp	r0, #0
 802a2ce:	d0cb      	beq.n	802a268 <__swbuf_r+0x28>
 802a2d0:	f04f 37ff 	mov.w	r7, #4294967295
 802a2d4:	e7ea      	b.n	802a2ac <__swbuf_r+0x6c>
 802a2d6:	bf00      	nop
 802a2d8:	0802bf10 	.word	0x0802bf10
 802a2dc:	0802bf30 	.word	0x0802bf30
 802a2e0:	0802bef0 	.word	0x0802bef0

0802a2e4 <__swsetup_r>:
 802a2e4:	4b32      	ldr	r3, [pc, #200]	; (802a3b0 <__swsetup_r+0xcc>)
 802a2e6:	b570      	push	{r4, r5, r6, lr}
 802a2e8:	681d      	ldr	r5, [r3, #0]
 802a2ea:	4606      	mov	r6, r0
 802a2ec:	460c      	mov	r4, r1
 802a2ee:	b125      	cbz	r5, 802a2fa <__swsetup_r+0x16>
 802a2f0:	69ab      	ldr	r3, [r5, #24]
 802a2f2:	b913      	cbnz	r3, 802a2fa <__swsetup_r+0x16>
 802a2f4:	4628      	mov	r0, r5
 802a2f6:	f000 f97d 	bl	802a5f4 <__sinit>
 802a2fa:	4b2e      	ldr	r3, [pc, #184]	; (802a3b4 <__swsetup_r+0xd0>)
 802a2fc:	429c      	cmp	r4, r3
 802a2fe:	d10f      	bne.n	802a320 <__swsetup_r+0x3c>
 802a300:	686c      	ldr	r4, [r5, #4]
 802a302:	89a3      	ldrh	r3, [r4, #12]
 802a304:	f9b4 200c 	ldrsh.w	r2, [r4, #12]
 802a308:	0719      	lsls	r1, r3, #28
 802a30a:	d42c      	bmi.n	802a366 <__swsetup_r+0x82>
 802a30c:	06dd      	lsls	r5, r3, #27
 802a30e:	d411      	bmi.n	802a334 <__swsetup_r+0x50>
 802a310:	2309      	movs	r3, #9
 802a312:	6033      	str	r3, [r6, #0]
 802a314:	f042 0340 	orr.w	r3, r2, #64	; 0x40
 802a318:	81a3      	strh	r3, [r4, #12]
 802a31a:	f04f 30ff 	mov.w	r0, #4294967295
 802a31e:	e03e      	b.n	802a39e <__swsetup_r+0xba>
 802a320:	4b25      	ldr	r3, [pc, #148]	; (802a3b8 <__swsetup_r+0xd4>)
 802a322:	429c      	cmp	r4, r3
 802a324:	d101      	bne.n	802a32a <__swsetup_r+0x46>
 802a326:	68ac      	ldr	r4, [r5, #8]
 802a328:	e7eb      	b.n	802a302 <__swsetup_r+0x1e>
 802a32a:	4b24      	ldr	r3, [pc, #144]	; (802a3bc <__swsetup_r+0xd8>)
 802a32c:	429c      	cmp	r4, r3
 802a32e:	bf08      	it	eq
 802a330:	68ec      	ldreq	r4, [r5, #12]
 802a332:	e7e6      	b.n	802a302 <__swsetup_r+0x1e>
 802a334:	0758      	lsls	r0, r3, #29
 802a336:	d512      	bpl.n	802a35e <__swsetup_r+0x7a>
 802a338:	6b61      	ldr	r1, [r4, #52]	; 0x34
 802a33a:	b141      	cbz	r1, 802a34e <__swsetup_r+0x6a>
 802a33c:	f104 0344 	add.w	r3, r4, #68	; 0x44
 802a340:	4299      	cmp	r1, r3
 802a342:	d002      	beq.n	802a34a <__swsetup_r+0x66>
 802a344:	4630      	mov	r0, r6
 802a346:	f7ff fdf5 	bl	8029f34 <_free_r>
 802a34a:	2300      	movs	r3, #0
 802a34c:	6363      	str	r3, [r4, #52]	; 0x34
 802a34e:	89a3      	ldrh	r3, [r4, #12]
 802a350:	f023 0324 	bic.w	r3, r3, #36	; 0x24
 802a354:	81a3      	strh	r3, [r4, #12]
 802a356:	2300      	movs	r3, #0
 802a358:	6063      	str	r3, [r4, #4]
 802a35a:	6923      	ldr	r3, [r4, #16]
 802a35c:	6023      	str	r3, [r4, #0]
 802a35e:	89a3      	ldrh	r3, [r4, #12]
 802a360:	f043 0308 	orr.w	r3, r3, #8
 802a364:	81a3      	strh	r3, [r4, #12]
 802a366:	6923      	ldr	r3, [r4, #16]
 802a368:	b94b      	cbnz	r3, 802a37e <__swsetup_r+0x9a>
 802a36a:	89a3      	ldrh	r3, [r4, #12]
 802a36c:	f403 7320 	and.w	r3, r3, #640	; 0x280
 802a370:	f5b3 7f00 	cmp.w	r3, #512	; 0x200
 802a374:	d003      	beq.n	802a37e <__swsetup_r+0x9a>
 802a376:	4621      	mov	r1, r4
 802a378:	4630      	mov	r0, r6
 802a37a:	f000 fa01 	bl	802a780 <__smakebuf_r>
 802a37e:	89a0      	ldrh	r0, [r4, #12]
 802a380:	f9b4 200c 	ldrsh.w	r2, [r4, #12]
 802a384:	f010 0301 	ands.w	r3, r0, #1
 802a388:	d00a      	beq.n	802a3a0 <__swsetup_r+0xbc>
 802a38a:	2300      	movs	r3, #0
 802a38c:	60a3      	str	r3, [r4, #8]
 802a38e:	6963      	ldr	r3, [r4, #20]
 802a390:	425b      	negs	r3, r3
 802a392:	61a3      	str	r3, [r4, #24]
 802a394:	6923      	ldr	r3, [r4, #16]
 802a396:	b943      	cbnz	r3, 802a3aa <__swsetup_r+0xc6>
 802a398:	f010 0080 	ands.w	r0, r0, #128	; 0x80
 802a39c:	d1ba      	bne.n	802a314 <__swsetup_r+0x30>
 802a39e:	bd70      	pop	{r4, r5, r6, pc}
 802a3a0:	0781      	lsls	r1, r0, #30
 802a3a2:	bf58      	it	pl
 802a3a4:	6963      	ldrpl	r3, [r4, #20]
 802a3a6:	60a3      	str	r3, [r4, #8]
 802a3a8:	e7f4      	b.n	802a394 <__swsetup_r+0xb0>
 802a3aa:	2000      	movs	r0, #0
 802a3ac:	e7f7      	b.n	802a39e <__swsetup_r+0xba>
 802a3ae:	bf00      	nop
 802a3b0:	24000040 	.word	0x24000040
 802a3b4:	0802bf10 	.word	0x0802bf10
 802a3b8:	0802bf30 	.word	0x0802bf30
 802a3bc:	0802bef0 	.word	0x0802bef0

0802a3c0 <__sflush_r>:
 802a3c0:	898a      	ldrh	r2, [r1, #12]
 802a3c2:	e92d 41f0 	stmdb	sp!, {r4, r5, r6, r7, r8, lr}
 802a3c6:	4605      	mov	r5, r0
 802a3c8:	0710      	lsls	r0, r2, #28
 802a3ca:	460c      	mov	r4, r1
 802a3cc:	d458      	bmi.n	802a480 <__sflush_r+0xc0>
 802a3ce:	684b      	ldr	r3, [r1, #4]
 802a3d0:	2b00      	cmp	r3, #0
 802a3d2:	dc05      	bgt.n	802a3e0 <__sflush_r+0x20>
 802a3d4:	6c0b      	ldr	r3, [r1, #64]	; 0x40
 802a3d6:	2b00      	cmp	r3, #0
 802a3d8:	dc02      	bgt.n	802a3e0 <__sflush_r+0x20>
 802a3da:	2000      	movs	r0, #0
 802a3dc:	e8bd 81f0 	ldmia.w	sp!, {r4, r5, r6, r7, r8, pc}
 802a3e0:	6ae6      	ldr	r6, [r4, #44]	; 0x2c
 802a3e2:	2e00      	cmp	r6, #0
 802a3e4:	d0f9      	beq.n	802a3da <__sflush_r+0x1a>
 802a3e6:	2300      	movs	r3, #0
 802a3e8:	f412 5280 	ands.w	r2, r2, #4096	; 0x1000
 802a3ec:	682f      	ldr	r7, [r5, #0]
 802a3ee:	602b      	str	r3, [r5, #0]
 802a3f0:	d032      	beq.n	802a458 <__sflush_r+0x98>
 802a3f2:	6d60      	ldr	r0, [r4, #84]	; 0x54
 802a3f4:	89a3      	ldrh	r3, [r4, #12]
 802a3f6:	075a      	lsls	r2, r3, #29
 802a3f8:	d505      	bpl.n	802a406 <__sflush_r+0x46>
 802a3fa:	6863      	ldr	r3, [r4, #4]
 802a3fc:	1ac0      	subs	r0, r0, r3
 802a3fe:	6b63      	ldr	r3, [r4, #52]	; 0x34
 802a400:	b10b      	cbz	r3, 802a406 <__sflush_r+0x46>
 802a402:	6c23      	ldr	r3, [r4, #64]	; 0x40
 802a404:	1ac0      	subs	r0, r0, r3
 802a406:	2300      	movs	r3, #0
 802a408:	4602      	mov	r2, r0
 802a40a:	6ae6      	ldr	r6, [r4, #44]	; 0x2c
 802a40c:	6a21      	ldr	r1, [r4, #32]
 802a40e:	4628      	mov	r0, r5
 802a410:	47b0      	blx	r6
 802a412:	1c43      	adds	r3, r0, #1
 802a414:	89a3      	ldrh	r3, [r4, #12]
 802a416:	d106      	bne.n	802a426 <__sflush_r+0x66>
 802a418:	6829      	ldr	r1, [r5, #0]
 802a41a:	291d      	cmp	r1, #29
 802a41c:	d82c      	bhi.n	802a478 <__sflush_r+0xb8>
 802a41e:	4a2a      	ldr	r2, [pc, #168]	; (802a4c8 <__sflush_r+0x108>)
 802a420:	40ca      	lsrs	r2, r1
 802a422:	07d6      	lsls	r6, r2, #31
 802a424:	d528      	bpl.n	802a478 <__sflush_r+0xb8>
 802a426:	2200      	movs	r2, #0
 802a428:	6062      	str	r2, [r4, #4]
 802a42a:	04d9      	lsls	r1, r3, #19
 802a42c:	6922      	ldr	r2, [r4, #16]
 802a42e:	6022      	str	r2, [r4, #0]
 802a430:	d504      	bpl.n	802a43c <__sflush_r+0x7c>
 802a432:	1c42      	adds	r2, r0, #1
 802a434:	d101      	bne.n	802a43a <__sflush_r+0x7a>
 802a436:	682b      	ldr	r3, [r5, #0]
 802a438:	b903      	cbnz	r3, 802a43c <__sflush_r+0x7c>
 802a43a:	6560      	str	r0, [r4, #84]	; 0x54
 802a43c:	6b61      	ldr	r1, [r4, #52]	; 0x34
 802a43e:	602f      	str	r7, [r5, #0]
 802a440:	2900      	cmp	r1, #0
 802a442:	d0ca      	beq.n	802a3da <__sflush_r+0x1a>
 802a444:	f104 0344 	add.w	r3, r4, #68	; 0x44
 802a448:	4299      	cmp	r1, r3
 802a44a:	d002      	beq.n	802a452 <__sflush_r+0x92>
 802a44c:	4628      	mov	r0, r5
 802a44e:	f7ff fd71 	bl	8029f34 <_free_r>
 802a452:	2000      	movs	r0, #0
 802a454:	6360      	str	r0, [r4, #52]	; 0x34
 802a456:	e7c1      	b.n	802a3dc <__sflush_r+0x1c>
 802a458:	6a21      	ldr	r1, [r4, #32]
 802a45a:	2301      	movs	r3, #1
 802a45c:	4628      	mov	r0, r5
 802a45e:	47b0      	blx	r6
 802a460:	1c41      	adds	r1, r0, #1
 802a462:	d1c7      	bne.n	802a3f4 <__sflush_r+0x34>
 802a464:	682b      	ldr	r3, [r5, #0]
 802a466:	2b00      	cmp	r3, #0
 802a468:	d0c4      	beq.n	802a3f4 <__sflush_r+0x34>
 802a46a:	2b1d      	cmp	r3, #29
 802a46c:	d001      	beq.n	802a472 <__sflush_r+0xb2>
 802a46e:	2b16      	cmp	r3, #22
 802a470:	d101      	bne.n	802a476 <__sflush_r+0xb6>
 802a472:	602f      	str	r7, [r5, #0]
 802a474:	e7b1      	b.n	802a3da <__sflush_r+0x1a>
 802a476:	89a3      	ldrh	r3, [r4, #12]
 802a478:	f043 0340 	orr.w	r3, r3, #64	; 0x40
 802a47c:	81a3      	strh	r3, [r4, #12]
 802a47e:	e7ad      	b.n	802a3dc <__sflush_r+0x1c>
 802a480:	690f      	ldr	r7, [r1, #16]
 802a482:	2f00      	cmp	r7, #0
 802a484:	d0a9      	beq.n	802a3da <__sflush_r+0x1a>
 802a486:	0793      	lsls	r3, r2, #30
 802a488:	680e      	ldr	r6, [r1, #0]
 802a48a:	bf08      	it	eq
 802a48c:	694b      	ldreq	r3, [r1, #20]
 802a48e:	600f      	str	r7, [r1, #0]
 802a490:	bf18      	it	ne
 802a492:	2300      	movne	r3, #0
 802a494:	eba6 0807 	sub.w	r8, r6, r7
 802a498:	608b      	str	r3, [r1, #8]
 802a49a:	f1b8 0f00 	cmp.w	r8, #0
 802a49e:	dd9c      	ble.n	802a3da <__sflush_r+0x1a>
 802a4a0:	6a21      	ldr	r1, [r4, #32]
 802a4a2:	6aa6      	ldr	r6, [r4, #40]	; 0x28
 802a4a4:	4643      	mov	r3, r8
 802a4a6:	463a      	mov	r2, r7
 802a4a8:	4628      	mov	r0, r5
 802a4aa:	47b0      	blx	r6
 802a4ac:	2800      	cmp	r0, #0
 802a4ae:	dc06      	bgt.n	802a4be <__sflush_r+0xfe>
 802a4b0:	89a3      	ldrh	r3, [r4, #12]
 802a4b2:	f043 0340 	orr.w	r3, r3, #64	; 0x40
 802a4b6:	81a3      	strh	r3, [r4, #12]
 802a4b8:	f04f 30ff 	mov.w	r0, #4294967295
 802a4bc:	e78e      	b.n	802a3dc <__sflush_r+0x1c>
 802a4be:	4407      	add	r7, r0
 802a4c0:	eba8 0800 	sub.w	r8, r8, r0
 802a4c4:	e7e9      	b.n	802a49a <__sflush_r+0xda>
 802a4c6:	bf00      	nop
 802a4c8:	20400001 	.word	0x20400001

0802a4cc <_fflush_r>:
 802a4cc:	b538      	push	{r3, r4, r5, lr}
 802a4ce:	690b      	ldr	r3, [r1, #16]
 802a4d0:	4605      	mov	r5, r0
 802a4d2:	460c      	mov	r4, r1
 802a4d4:	b913      	cbnz	r3, 802a4dc <_fflush_r+0x10>
 802a4d6:	2500      	movs	r5, #0
 802a4d8:	4628      	mov	r0, r5
 802a4da:	bd38      	pop	{r3, r4, r5, pc}
 802a4dc:	b118      	cbz	r0, 802a4e6 <_fflush_r+0x1a>
 802a4de:	6983      	ldr	r3, [r0, #24]
 802a4e0:	b90b      	cbnz	r3, 802a4e6 <_fflush_r+0x1a>
 802a4e2:	f000 f887 	bl	802a5f4 <__sinit>
 802a4e6:	4b14      	ldr	r3, [pc, #80]	; (802a538 <_fflush_r+0x6c>)
 802a4e8:	429c      	cmp	r4, r3
 802a4ea:	d11b      	bne.n	802a524 <_fflush_r+0x58>
 802a4ec:	686c      	ldr	r4, [r5, #4]
 802a4ee:	f9b4 300c 	ldrsh.w	r3, [r4, #12]
 802a4f2:	2b00      	cmp	r3, #0
 802a4f4:	d0ef      	beq.n	802a4d6 <_fflush_r+0xa>
 802a4f6:	6e62      	ldr	r2, [r4, #100]	; 0x64
 802a4f8:	07d0      	lsls	r0, r2, #31
 802a4fa:	d404      	bmi.n	802a506 <_fflush_r+0x3a>
 802a4fc:	0599      	lsls	r1, r3, #22
 802a4fe:	d402      	bmi.n	802a506 <_fflush_r+0x3a>
 802a500:	6da0      	ldr	r0, [r4, #88]	; 0x58
 802a502:	f000 f915 	bl	802a730 <__retarget_lock_acquire_recursive>
 802a506:	4628      	mov	r0, r5
 802a508:	4621      	mov	r1, r4
 802a50a:	f7ff ff59 	bl	802a3c0 <__sflush_r>
 802a50e:	6e63      	ldr	r3, [r4, #100]	; 0x64
 802a510:	07da      	lsls	r2, r3, #31
 802a512:	4605      	mov	r5, r0
 802a514:	d4e0      	bmi.n	802a4d8 <_fflush_r+0xc>
 802a516:	89a3      	ldrh	r3, [r4, #12]
 802a518:	059b      	lsls	r3, r3, #22
 802a51a:	d4dd      	bmi.n	802a4d8 <_fflush_r+0xc>
 802a51c:	6da0      	ldr	r0, [r4, #88]	; 0x58
 802a51e:	f000 f908 	bl	802a732 <__retarget_lock_release_recursive>
 802a522:	e7d9      	b.n	802a4d8 <_fflush_r+0xc>
 802a524:	4b05      	ldr	r3, [pc, #20]	; (802a53c <_fflush_r+0x70>)
 802a526:	429c      	cmp	r4, r3
 802a528:	d101      	bne.n	802a52e <_fflush_r+0x62>
 802a52a:	68ac      	ldr	r4, [r5, #8]
 802a52c:	e7df      	b.n	802a4ee <_fflush_r+0x22>
 802a52e:	4b04      	ldr	r3, [pc, #16]	; (802a540 <_fflush_r+0x74>)
 802a530:	429c      	cmp	r4, r3
 802a532:	bf08      	it	eq
 802a534:	68ec      	ldreq	r4, [r5, #12]
 802a536:	e7da      	b.n	802a4ee <_fflush_r+0x22>
 802a538:	0802bf10 	.word	0x0802bf10
 802a53c:	0802bf30 	.word	0x0802bf30
 802a540:	0802bef0 	.word	0x0802bef0

0802a544 <std>:
 802a544:	2300      	movs	r3, #0
 802a546:	b510      	push	{r4, lr}
 802a548:	4604      	mov	r4, r0
 802a54a:	e9c0 3300 	strd	r3, r3, [r0]
 802a54e:	e9c0 3304 	strd	r3, r3, [r0, #16]
 802a552:	6083      	str	r3, [r0, #8]
 802a554:	8181      	strh	r1, [r0, #12]
 802a556:	6643      	str	r3, [r0, #100]	; 0x64
 802a558:	81c2      	strh	r2, [r0, #14]
 802a55a:	6183      	str	r3, [r0, #24]
 802a55c:	4619      	mov	r1, r3
 802a55e:	2208      	movs	r2, #8
 802a560:	305c      	adds	r0, #92	; 0x5c
 802a562:	f7ff fcdf 	bl	8029f24 <memset>
 802a566:	4b05      	ldr	r3, [pc, #20]	; (802a57c <std+0x38>)
 802a568:	6263      	str	r3, [r4, #36]	; 0x24
 802a56a:	4b05      	ldr	r3, [pc, #20]	; (802a580 <std+0x3c>)
 802a56c:	62a3      	str	r3, [r4, #40]	; 0x28
 802a56e:	4b05      	ldr	r3, [pc, #20]	; (802a584 <std+0x40>)
 802a570:	62e3      	str	r3, [r4, #44]	; 0x2c
 802a572:	4b05      	ldr	r3, [pc, #20]	; (802a588 <std+0x44>)
 802a574:	6224      	str	r4, [r4, #32]
 802a576:	6323      	str	r3, [r4, #48]	; 0x30
 802a578:	bd10      	pop	{r4, pc}
 802a57a:	bf00      	nop
 802a57c:	0802adf5 	.word	0x0802adf5
 802a580:	0802ae17 	.word	0x0802ae17
 802a584:	0802ae4f 	.word	0x0802ae4f
 802a588:	0802ae73 	.word	0x0802ae73

0802a58c <_cleanup_r>:
 802a58c:	4901      	ldr	r1, [pc, #4]	; (802a594 <_cleanup_r+0x8>)
 802a58e:	f000 b8af 	b.w	802a6f0 <_fwalk_reent>
 802a592:	bf00      	nop
 802a594:	0802a4cd 	.word	0x0802a4cd

0802a598 <__sfmoreglue>:
 802a598:	b570      	push	{r4, r5, r6, lr}
 802a59a:	2268      	movs	r2, #104	; 0x68
 802a59c:	1e4d      	subs	r5, r1, #1
 802a59e:	4355      	muls	r5, r2
 802a5a0:	460e      	mov	r6, r1
 802a5a2:	f105 0174 	add.w	r1, r5, #116	; 0x74
 802a5a6:	f7ff fd31 	bl	802a00c <_malloc_r>
 802a5aa:	4604      	mov	r4, r0
 802a5ac:	b140      	cbz	r0, 802a5c0 <__sfmoreglue+0x28>
 802a5ae:	2100      	movs	r1, #0
 802a5b0:	e9c0 1600 	strd	r1, r6, [r0]
 802a5b4:	300c      	adds	r0, #12
 802a5b6:	60a0      	str	r0, [r4, #8]
 802a5b8:	f105 0268 	add.w	r2, r5, #104	; 0x68
 802a5bc:	f7ff fcb2 	bl	8029f24 <memset>
 802a5c0:	4620      	mov	r0, r4
 802a5c2:	bd70      	pop	{r4, r5, r6, pc}

0802a5c4 <__sfp_lock_acquire>:
 802a5c4:	4801      	ldr	r0, [pc, #4]	; (802a5cc <__sfp_lock_acquire+0x8>)
 802a5c6:	f000 b8b3 	b.w	802a730 <__retarget_lock_acquire_recursive>
 802a5ca:	bf00      	nop
 802a5cc:	24001f55 	.word	0x24001f55

0802a5d0 <__sfp_lock_release>:
 802a5d0:	4801      	ldr	r0, [pc, #4]	; (802a5d8 <__sfp_lock_release+0x8>)
 802a5d2:	f000 b8ae 	b.w	802a732 <__retarget_lock_release_recursive>
 802a5d6:	bf00      	nop
 802a5d8:	24001f55 	.word	0x24001f55

0802a5dc <__sinit_lock_acquire>:
 802a5dc:	4801      	ldr	r0, [pc, #4]	; (802a5e4 <__sinit_lock_acquire+0x8>)
 802a5de:	f000 b8a7 	b.w	802a730 <__retarget_lock_acquire_recursive>
 802a5e2:	bf00      	nop
 802a5e4:	24001f56 	.word	0x24001f56

0802a5e8 <__sinit_lock_release>:
 802a5e8:	4801      	ldr	r0, [pc, #4]	; (802a5f0 <__sinit_lock_release+0x8>)
 802a5ea:	f000 b8a2 	b.w	802a732 <__retarget_lock_release_recursive>
 802a5ee:	bf00      	nop
 802a5f0:	24001f56 	.word	0x24001f56

0802a5f4 <__sinit>:
 802a5f4:	b510      	push	{r4, lr}
 802a5f6:	4604      	mov	r4, r0
 802a5f8:	f7ff fff0 	bl	802a5dc <__sinit_lock_acquire>
 802a5fc:	69a3      	ldr	r3, [r4, #24]
 802a5fe:	b11b      	cbz	r3, 802a608 <__sinit+0x14>
 802a600:	e8bd 4010 	ldmia.w	sp!, {r4, lr}
 802a604:	f7ff bff0 	b.w	802a5e8 <__sinit_lock_release>
 802a608:	e9c4 3312 	strd	r3, r3, [r4, #72]	; 0x48
 802a60c:	6523      	str	r3, [r4, #80]	; 0x50
 802a60e:	4b13      	ldr	r3, [pc, #76]	; (802a65c <__sinit+0x68>)
 802a610:	4a13      	ldr	r2, [pc, #76]	; (802a660 <__sinit+0x6c>)
 802a612:	681b      	ldr	r3, [r3, #0]
 802a614:	62a2      	str	r2, [r4, #40]	; 0x28
 802a616:	42a3      	cmp	r3, r4
 802a618:	bf04      	itt	eq
 802a61a:	2301      	moveq	r3, #1
 802a61c:	61a3      	streq	r3, [r4, #24]
 802a61e:	4620      	mov	r0, r4
 802a620:	f000 f820 	bl	802a664 <__sfp>
 802a624:	6060      	str	r0, [r4, #4]
 802a626:	4620      	mov	r0, r4
 802a628:	f000 f81c 	bl	802a664 <__sfp>
 802a62c:	60a0      	str	r0, [r4, #8]
 802a62e:	4620      	mov	r0, r4
 802a630:	f000 f818 	bl	802a664 <__sfp>
 802a634:	2200      	movs	r2, #0
 802a636:	60e0      	str	r0, [r4, #12]
 802a638:	2104      	movs	r1, #4
 802a63a:	6860      	ldr	r0, [r4, #4]
 802a63c:	f7ff ff82 	bl	802a544 <std>
 802a640:	68a0      	ldr	r0, [r4, #8]
 802a642:	2201      	movs	r2, #1
 802a644:	2109      	movs	r1, #9
 802a646:	f7ff ff7d 	bl	802a544 <std>
 802a64a:	68e0      	ldr	r0, [r4, #12]
 802a64c:	2202      	movs	r2, #2
 802a64e:	2112      	movs	r1, #18
 802a650:	f7ff ff78 	bl	802a544 <std>
 802a654:	2301      	movs	r3, #1
 802a656:	61a3      	str	r3, [r4, #24]
 802a658:	e7d2      	b.n	802a600 <__sinit+0xc>
 802a65a:	bf00      	nop
 802a65c:	0802beec 	.word	0x0802beec
 802a660:	0802a58d 	.word	0x0802a58d

0802a664 <__sfp>:
 802a664:	b5f8      	push	{r3, r4, r5, r6, r7, lr}
 802a666:	4607      	mov	r7, r0
 802a668:	f7ff ffac 	bl	802a5c4 <__sfp_lock_acquire>
 802a66c:	4b1e      	ldr	r3, [pc, #120]	; (802a6e8 <__sfp+0x84>)
 802a66e:	681e      	ldr	r6, [r3, #0]
 802a670:	69b3      	ldr	r3, [r6, #24]
 802a672:	b913      	cbnz	r3, 802a67a <__sfp+0x16>
 802a674:	4630      	mov	r0, r6
 802a676:	f7ff ffbd 	bl	802a5f4 <__sinit>
 802a67a:	3648      	adds	r6, #72	; 0x48
 802a67c:	e9d6 3401 	ldrd	r3, r4, [r6, #4]
 802a680:	3b01      	subs	r3, #1
 802a682:	d503      	bpl.n	802a68c <__sfp+0x28>
 802a684:	6833      	ldr	r3, [r6, #0]
 802a686:	b30b      	cbz	r3, 802a6cc <__sfp+0x68>
 802a688:	6836      	ldr	r6, [r6, #0]
 802a68a:	e7f7      	b.n	802a67c <__sfp+0x18>
 802a68c:	f9b4 500c 	ldrsh.w	r5, [r4, #12]
 802a690:	b9d5      	cbnz	r5, 802a6c8 <__sfp+0x64>
 802a692:	4b16      	ldr	r3, [pc, #88]	; (802a6ec <__sfp+0x88>)
 802a694:	60e3      	str	r3, [r4, #12]
 802a696:	f104 0058 	add.w	r0, r4, #88	; 0x58
 802a69a:	6665      	str	r5, [r4, #100]	; 0x64
 802a69c:	f000 f847 	bl	802a72e <__retarget_lock_init_recursive>
 802a6a0:	f7ff ff96 	bl	802a5d0 <__sfp_lock_release>
 802a6a4:	e9c4 5501 	strd	r5, r5, [r4, #4]
 802a6a8:	e9c4 5504 	strd	r5, r5, [r4, #16]
 802a6ac:	6025      	str	r5, [r4, #0]
 802a6ae:	61a5      	str	r5, [r4, #24]
 802a6b0:	2208      	movs	r2, #8
 802a6b2:	4629      	mov	r1, r5
 802a6b4:	f104 005c 	add.w	r0, r4, #92	; 0x5c
 802a6b8:	f7ff fc34 	bl	8029f24 <memset>
 802a6bc:	e9c4 550d 	strd	r5, r5, [r4, #52]	; 0x34
 802a6c0:	e9c4 5512 	strd	r5, r5, [r4, #72]	; 0x48
 802a6c4:	4620      	mov	r0, r4
 802a6c6:	bdf8      	pop	{r3, r4, r5, r6, r7, pc}
 802a6c8:	3468      	adds	r4, #104	; 0x68
 802a6ca:	e7d9      	b.n	802a680 <__sfp+0x1c>
 802a6cc:	2104      	movs	r1, #4
 802a6ce:	4638      	mov	r0, r7
 802a6d0:	f7ff ff62 	bl	802a598 <__sfmoreglue>
 802a6d4:	4604      	mov	r4, r0
 802a6d6:	6030      	str	r0, [r6, #0]
 802a6d8:	2800      	cmp	r0, #0
 802a6da:	d1d5      	bne.n	802a688 <__sfp+0x24>
 802a6dc:	f7ff ff78 	bl	802a5d0 <__sfp_lock_release>
 802a6e0:	230c      	movs	r3, #12
 802a6e2:	603b      	str	r3, [r7, #0]
 802a6e4:	e7ee      	b.n	802a6c4 <__sfp+0x60>
 802a6e6:	bf00      	nop
 802a6e8:	0802beec 	.word	0x0802beec
 802a6ec:	ffff0001 	.word	0xffff0001

0802a6f0 <_fwalk_reent>:
 802a6f0:	e92d 43f8 	stmdb	sp!, {r3, r4, r5, r6, r7, r8, r9, lr}
 802a6f4:	4606      	mov	r6, r0
 802a6f6:	4688      	mov	r8, r1
 802a6f8:	f100 0448 	add.w	r4, r0, #72	; 0x48
 802a6fc:	2700      	movs	r7, #0
 802a6fe:	e9d4 9501 	ldrd	r9, r5, [r4, #4]
 802a702:	f1b9 0901 	subs.w	r9, r9, #1
 802a706:	d505      	bpl.n	802a714 <_fwalk_reent+0x24>
 802a708:	6824      	ldr	r4, [r4, #0]
 802a70a:	2c00      	cmp	r4, #0
 802a70c:	d1f7      	bne.n	802a6fe <_fwalk_reent+0xe>
 802a70e:	4638      	mov	r0, r7
 802a710:	e8bd 83f8 	ldmia.w	sp!, {r3, r4, r5, r6, r7, r8, r9, pc}
 802a714:	89ab      	ldrh	r3, [r5, #12]
 802a716:	2b01      	cmp	r3, #1
 802a718:	d907      	bls.n	802a72a <_fwalk_reent+0x3a>
 802a71a:	f9b5 300e 	ldrsh.w	r3, [r5, #14]
 802a71e:	3301      	adds	r3, #1
 802a720:	d003      	beq.n	802a72a <_fwalk_reent+0x3a>
 802a722:	4629      	mov	r1, r5
 802a724:	4630      	mov	r0, r6
 802a726:	47c0      	blx	r8
 802a728:	4307      	orrs	r7, r0
 802a72a:	3568      	adds	r5, #104	; 0x68
 802a72c:	e7e9      	b.n	802a702 <_fwalk_reent+0x12>

0802a72e <__retarget_lock_init_recursive>:
 802a72e:	4770      	bx	lr

0802a730 <__retarget_lock_acquire_recursive>:
 802a730:	4770      	bx	lr

0802a732 <__retarget_lock_release_recursive>:
 802a732:	4770      	bx	lr

0802a734 <__swhatbuf_r>:
 802a734:	b570      	push	{r4, r5, r6, lr}
 802a736:	460e      	mov	r6, r1
 802a738:	f9b1 100e 	ldrsh.w	r1, [r1, #14]
 802a73c:	2900      	cmp	r1, #0
 802a73e:	b096      	sub	sp, #88	; 0x58
 802a740:	4614      	mov	r4, r2
 802a742:	461d      	mov	r5, r3
 802a744:	da08      	bge.n	802a758 <__swhatbuf_r+0x24>
 802a746:	f9b6 300c 	ldrsh.w	r3, [r6, #12]
 802a74a:	2200      	movs	r2, #0
 802a74c:	602a      	str	r2, [r5, #0]
 802a74e:	061a      	lsls	r2, r3, #24
 802a750:	d410      	bmi.n	802a774 <__swhatbuf_r+0x40>
 802a752:	f44f 6380 	mov.w	r3, #1024	; 0x400
 802a756:	e00e      	b.n	802a776 <__swhatbuf_r+0x42>
 802a758:	466a      	mov	r2, sp
 802a75a:	f000 fbb1 	bl	802aec0 <_fstat_r>
 802a75e:	2800      	cmp	r0, #0
 802a760:	dbf1      	blt.n	802a746 <__swhatbuf_r+0x12>
 802a762:	9a01      	ldr	r2, [sp, #4]
 802a764:	f402 4270 	and.w	r2, r2, #61440	; 0xf000
 802a768:	f5a2 5300 	sub.w	r3, r2, #8192	; 0x2000
 802a76c:	425a      	negs	r2, r3
 802a76e:	415a      	adcs	r2, r3
 802a770:	602a      	str	r2, [r5, #0]
 802a772:	e7ee      	b.n	802a752 <__swhatbuf_r+0x1e>
 802a774:	2340      	movs	r3, #64	; 0x40
 802a776:	2000      	movs	r0, #0
 802a778:	6023      	str	r3, [r4, #0]
 802a77a:	b016      	add	sp, #88	; 0x58
 802a77c:	bd70      	pop	{r4, r5, r6, pc}
	...

0802a780 <__smakebuf_r>:
 802a780:	898b      	ldrh	r3, [r1, #12]
 802a782:	b573      	push	{r0, r1, r4, r5, r6, lr}
 802a784:	079d      	lsls	r5, r3, #30
 802a786:	4606      	mov	r6, r0
 802a788:	460c      	mov	r4, r1
 802a78a:	d507      	bpl.n	802a79c <__smakebuf_r+0x1c>
 802a78c:	f104 0347 	add.w	r3, r4, #71	; 0x47
 802a790:	6023      	str	r3, [r4, #0]
 802a792:	6123      	str	r3, [r4, #16]
 802a794:	2301      	movs	r3, #1
 802a796:	6163      	str	r3, [r4, #20]
 802a798:	b002      	add	sp, #8
 802a79a:	bd70      	pop	{r4, r5, r6, pc}
 802a79c:	ab01      	add	r3, sp, #4
 802a79e:	466a      	mov	r2, sp
 802a7a0:	f7ff ffc8 	bl	802a734 <__swhatbuf_r>
 802a7a4:	9900      	ldr	r1, [sp, #0]
 802a7a6:	4605      	mov	r5, r0
 802a7a8:	4630      	mov	r0, r6
 802a7aa:	f7ff fc2f 	bl	802a00c <_malloc_r>
 802a7ae:	b948      	cbnz	r0, 802a7c4 <__smakebuf_r+0x44>
 802a7b0:	f9b4 300c 	ldrsh.w	r3, [r4, #12]
 802a7b4:	059a      	lsls	r2, r3, #22
 802a7b6:	d4ef      	bmi.n	802a798 <__smakebuf_r+0x18>
 802a7b8:	f023 0303 	bic.w	r3, r3, #3
 802a7bc:	f043 0302 	orr.w	r3, r3, #2
 802a7c0:	81a3      	strh	r3, [r4, #12]
 802a7c2:	e7e3      	b.n	802a78c <__smakebuf_r+0xc>
 802a7c4:	4b0d      	ldr	r3, [pc, #52]	; (802a7fc <__smakebuf_r+0x7c>)
 802a7c6:	62b3      	str	r3, [r6, #40]	; 0x28
 802a7c8:	89a3      	ldrh	r3, [r4, #12]
 802a7ca:	6020      	str	r0, [r4, #0]
 802a7cc:	f043 0380 	orr.w	r3, r3, #128	; 0x80
 802a7d0:	81a3      	strh	r3, [r4, #12]
 802a7d2:	9b00      	ldr	r3, [sp, #0]
 802a7d4:	6163      	str	r3, [r4, #20]
 802a7d6:	9b01      	ldr	r3, [sp, #4]
 802a7d8:	6120      	str	r0, [r4, #16]
 802a7da:	b15b      	cbz	r3, 802a7f4 <__smakebuf_r+0x74>
 802a7dc:	f9b4 100e 	ldrsh.w	r1, [r4, #14]
 802a7e0:	4630      	mov	r0, r6
 802a7e2:	f000 fb7f 	bl	802aee4 <_isatty_r>
 802a7e6:	b128      	cbz	r0, 802a7f4 <__smakebuf_r+0x74>
 802a7e8:	89a3      	ldrh	r3, [r4, #12]
 802a7ea:	f023 0303 	bic.w	r3, r3, #3
 802a7ee:	f043 0301 	orr.w	r3, r3, #1
 802a7f2:	81a3      	strh	r3, [r4, #12]
 802a7f4:	89a0      	ldrh	r0, [r4, #12]
 802a7f6:	4305      	orrs	r5, r0
 802a7f8:	81a5      	strh	r5, [r4, #12]
 802a7fa:	e7cd      	b.n	802a798 <__smakebuf_r+0x18>
 802a7fc:	0802a58d 	.word	0x0802a58d

0802a800 <__malloc_lock>:
 802a800:	4801      	ldr	r0, [pc, #4]	; (802a808 <__malloc_lock+0x8>)
 802a802:	f7ff bf95 	b.w	802a730 <__retarget_lock_acquire_recursive>
 802a806:	bf00      	nop
 802a808:	24001f54 	.word	0x24001f54

0802a80c <__malloc_unlock>:
 802a80c:	4801      	ldr	r0, [pc, #4]	; (802a814 <__malloc_unlock+0x8>)
 802a80e:	f7ff bf90 	b.w	802a732 <__retarget_lock_release_recursive>
 802a812:	bf00      	nop
 802a814:	24001f54 	.word	0x24001f54

0802a818 <__sfputc_r>:
 802a818:	6893      	ldr	r3, [r2, #8]
 802a81a:	3b01      	subs	r3, #1
 802a81c:	2b00      	cmp	r3, #0
 802a81e:	b410      	push	{r4}
 802a820:	6093      	str	r3, [r2, #8]
 802a822:	da08      	bge.n	802a836 <__sfputc_r+0x1e>
 802a824:	6994      	ldr	r4, [r2, #24]
 802a826:	42a3      	cmp	r3, r4
 802a828:	db01      	blt.n	802a82e <__sfputc_r+0x16>
 802a82a:	290a      	cmp	r1, #10
 802a82c:	d103      	bne.n	802a836 <__sfputc_r+0x1e>
 802a82e:	f85d 4b04 	ldr.w	r4, [sp], #4
 802a832:	f7ff bd05 	b.w	802a240 <__swbuf_r>
 802a836:	6813      	ldr	r3, [r2, #0]
 802a838:	1c58      	adds	r0, r3, #1
 802a83a:	6010      	str	r0, [r2, #0]
 802a83c:	7019      	strb	r1, [r3, #0]
 802a83e:	4608      	mov	r0, r1
 802a840:	f85d 4b04 	ldr.w	r4, [sp], #4
 802a844:	4770      	bx	lr

0802a846 <__sfputs_r>:
 802a846:	b5f8      	push	{r3, r4, r5, r6, r7, lr}
 802a848:	4606      	mov	r6, r0
 802a84a:	460f      	mov	r7, r1
 802a84c:	4614      	mov	r4, r2
 802a84e:	18d5      	adds	r5, r2, r3
 802a850:	42ac      	cmp	r4, r5
 802a852:	d101      	bne.n	802a858 <__sfputs_r+0x12>
 802a854:	2000      	movs	r0, #0
 802a856:	e007      	b.n	802a868 <__sfputs_r+0x22>
 802a858:	f814 1b01 	ldrb.w	r1, [r4], #1
 802a85c:	463a      	mov	r2, r7
 802a85e:	4630      	mov	r0, r6
 802a860:	f7ff ffda 	bl	802a818 <__sfputc_r>
 802a864:	1c43      	adds	r3, r0, #1
 802a866:	d1f3      	bne.n	802a850 <__sfputs_r+0xa>
 802a868:	bdf8      	pop	{r3, r4, r5, r6, r7, pc}
	...

0802a86c <_vfiprintf_r>:
 802a86c:	e92d 4ff0 	stmdb	sp!, {r4, r5, r6, r7, r8, r9, sl, fp, lr}
 802a870:	460d      	mov	r5, r1
 802a872:	b09d      	sub	sp, #116	; 0x74
 802a874:	4614      	mov	r4, r2
 802a876:	4698      	mov	r8, r3
 802a878:	4606      	mov	r6, r0
 802a87a:	b118      	cbz	r0, 802a884 <_vfiprintf_r+0x18>
 802a87c:	6983      	ldr	r3, [r0, #24]
 802a87e:	b90b      	cbnz	r3, 802a884 <_vfiprintf_r+0x18>
 802a880:	f7ff feb8 	bl	802a5f4 <__sinit>
 802a884:	4b89      	ldr	r3, [pc, #548]	; (802aaac <_vfiprintf_r+0x240>)
 802a886:	429d      	cmp	r5, r3
 802a888:	d11b      	bne.n	802a8c2 <_vfiprintf_r+0x56>
 802a88a:	6875      	ldr	r5, [r6, #4]
 802a88c:	6e6b      	ldr	r3, [r5, #100]	; 0x64
 802a88e:	07d9      	lsls	r1, r3, #31
 802a890:	d405      	bmi.n	802a89e <_vfiprintf_r+0x32>
 802a892:	89ab      	ldrh	r3, [r5, #12]
 802a894:	059a      	lsls	r2, r3, #22
 802a896:	d402      	bmi.n	802a89e <_vfiprintf_r+0x32>
 802a898:	6da8      	ldr	r0, [r5, #88]	; 0x58
 802a89a:	f7ff ff49 	bl	802a730 <__retarget_lock_acquire_recursive>
 802a89e:	89ab      	ldrh	r3, [r5, #12]
 802a8a0:	071b      	lsls	r3, r3, #28
 802a8a2:	d501      	bpl.n	802a8a8 <_vfiprintf_r+0x3c>
 802a8a4:	692b      	ldr	r3, [r5, #16]
 802a8a6:	b9eb      	cbnz	r3, 802a8e4 <_vfiprintf_r+0x78>
 802a8a8:	4629      	mov	r1, r5
 802a8aa:	4630      	mov	r0, r6
 802a8ac:	f7ff fd1a 	bl	802a2e4 <__swsetup_r>
 802a8b0:	b1c0      	cbz	r0, 802a8e4 <_vfiprintf_r+0x78>
 802a8b2:	6e6b      	ldr	r3, [r5, #100]	; 0x64
 802a8b4:	07dc      	lsls	r4, r3, #31
 802a8b6:	d50e      	bpl.n	802a8d6 <_vfiprintf_r+0x6a>
 802a8b8:	f04f 30ff 	mov.w	r0, #4294967295
 802a8bc:	b01d      	add	sp, #116	; 0x74
 802a8be:	e8bd 8ff0 	ldmia.w	sp!, {r4, r5, r6, r7, r8, r9, sl, fp, pc}
 802a8c2:	4b7b      	ldr	r3, [pc, #492]	; (802aab0 <_vfiprintf_r+0x244>)
 802a8c4:	429d      	cmp	r5, r3
 802a8c6:	d101      	bne.n	802a8cc <_vfiprintf_r+0x60>
 802a8c8:	68b5      	ldr	r5, [r6, #8]
 802a8ca:	e7df      	b.n	802a88c <_vfiprintf_r+0x20>
 802a8cc:	4b79      	ldr	r3, [pc, #484]	; (802aab4 <_vfiprintf_r+0x248>)
 802a8ce:	429d      	cmp	r5, r3
 802a8d0:	bf08      	it	eq
 802a8d2:	68f5      	ldreq	r5, [r6, #12]
 802a8d4:	e7da      	b.n	802a88c <_vfiprintf_r+0x20>
 802a8d6:	89ab      	ldrh	r3, [r5, #12]
 802a8d8:	0598      	lsls	r0, r3, #22
 802a8da:	d4ed      	bmi.n	802a8b8 <_vfiprintf_r+0x4c>
 802a8dc:	6da8      	ldr	r0, [r5, #88]	; 0x58
 802a8de:	f7ff ff28 	bl	802a732 <__retarget_lock_release_recursive>
 802a8e2:	e7e9      	b.n	802a8b8 <_vfiprintf_r+0x4c>
 802a8e4:	2300      	movs	r3, #0
 802a8e6:	9309      	str	r3, [sp, #36]	; 0x24
 802a8e8:	2320      	movs	r3, #32
 802a8ea:	f88d 3029 	strb.w	r3, [sp, #41]	; 0x29
 802a8ee:	f8cd 800c 	str.w	r8, [sp, #12]
 802a8f2:	2330      	movs	r3, #48	; 0x30
 802a8f4:	f8df 81c0 	ldr.w	r8, [pc, #448]	; 802aab8 <_vfiprintf_r+0x24c>
 802a8f8:	f88d 302a 	strb.w	r3, [sp, #42]	; 0x2a
 802a8fc:	f04f 0901 	mov.w	r9, #1
 802a900:	4623      	mov	r3, r4
 802a902:	469a      	mov	sl, r3
 802a904:	f813 2b01 	ldrb.w	r2, [r3], #1
 802a908:	b10a      	cbz	r2, 802a90e <_vfiprintf_r+0xa2>
 802a90a:	2a25      	cmp	r2, #37	; 0x25
 802a90c:	d1f9      	bne.n	802a902 <_vfiprintf_r+0x96>
 802a90e:	ebba 0b04 	subs.w	fp, sl, r4
 802a912:	d00b      	beq.n	802a92c <_vfiprintf_r+0xc0>
 802a914:	465b      	mov	r3, fp
 802a916:	4622      	mov	r2, r4
 802a918:	4629      	mov	r1, r5
 802a91a:	4630      	mov	r0, r6
 802a91c:	f7ff ff93 	bl	802a846 <__sfputs_r>
 802a920:	3001      	adds	r0, #1
 802a922:	f000 80aa 	beq.w	802aa7a <_vfiprintf_r+0x20e>
 802a926:	9a09      	ldr	r2, [sp, #36]	; 0x24
 802a928:	445a      	add	r2, fp
 802a92a:	9209      	str	r2, [sp, #36]	; 0x24
 802a92c:	f89a 3000 	ldrb.w	r3, [sl]
 802a930:	2b00      	cmp	r3, #0
 802a932:	f000 80a2 	beq.w	802aa7a <_vfiprintf_r+0x20e>
 802a936:	2300      	movs	r3, #0
 802a938:	f04f 32ff 	mov.w	r2, #4294967295
 802a93c:	e9cd 2305 	strd	r2, r3, [sp, #20]
 802a940:	f10a 0a01 	add.w	sl, sl, #1
 802a944:	9304      	str	r3, [sp, #16]
 802a946:	9307      	str	r3, [sp, #28]
 802a948:	f88d 3053 	strb.w	r3, [sp, #83]	; 0x53
 802a94c:	931a      	str	r3, [sp, #104]	; 0x68
 802a94e:	4654      	mov	r4, sl
 802a950:	2205      	movs	r2, #5
 802a952:	f814 1b01 	ldrb.w	r1, [r4], #1
 802a956:	4858      	ldr	r0, [pc, #352]	; (802aab8 <_vfiprintf_r+0x24c>)
 802a958:	f7f5 fcc2 	bl	80202e0 <memchr>
 802a95c:	9a04      	ldr	r2, [sp, #16]
 802a95e:	b9d8      	cbnz	r0, 802a998 <_vfiprintf_r+0x12c>
 802a960:	06d1      	lsls	r1, r2, #27
 802a962:	bf44      	itt	mi
 802a964:	2320      	movmi	r3, #32
 802a966:	f88d 3053 	strbmi.w	r3, [sp, #83]	; 0x53
 802a96a:	0713      	lsls	r3, r2, #28
 802a96c:	bf44      	itt	mi
 802a96e:	232b      	movmi	r3, #43	; 0x2b
 802a970:	f88d 3053 	strbmi.w	r3, [sp, #83]	; 0x53
 802a974:	f89a 3000 	ldrb.w	r3, [sl]
 802a978:	2b2a      	cmp	r3, #42	; 0x2a
 802a97a:	d015      	beq.n	802a9a8 <_vfiprintf_r+0x13c>
 802a97c:	9a07      	ldr	r2, [sp, #28]
 802a97e:	4654      	mov	r4, sl
 802a980:	2000      	movs	r0, #0
 802a982:	f04f 0c0a 	mov.w	ip, #10
 802a986:	4621      	mov	r1, r4
 802a988:	f811 3b01 	ldrb.w	r3, [r1], #1
 802a98c:	3b30      	subs	r3, #48	; 0x30
 802a98e:	2b09      	cmp	r3, #9
 802a990:	d94e      	bls.n	802aa30 <_vfiprintf_r+0x1c4>
 802a992:	b1b0      	cbz	r0, 802a9c2 <_vfiprintf_r+0x156>
 802a994:	9207      	str	r2, [sp, #28]
 802a996:	e014      	b.n	802a9c2 <_vfiprintf_r+0x156>
 802a998:	eba0 0308 	sub.w	r3, r0, r8
 802a99c:	fa09 f303 	lsl.w	r3, r9, r3
 802a9a0:	4313      	orrs	r3, r2
 802a9a2:	9304      	str	r3, [sp, #16]
 802a9a4:	46a2      	mov	sl, r4
 802a9a6:	e7d2      	b.n	802a94e <_vfiprintf_r+0xe2>
 802a9a8:	9b03      	ldr	r3, [sp, #12]
 802a9aa:	1d19      	adds	r1, r3, #4
 802a9ac:	681b      	ldr	r3, [r3, #0]
 802a9ae:	9103      	str	r1, [sp, #12]
 802a9b0:	2b00      	cmp	r3, #0
 802a9b2:	bfbb      	ittet	lt
 802a9b4:	425b      	neglt	r3, r3
 802a9b6:	f042 0202 	orrlt.w	r2, r2, #2
 802a9ba:	9307      	strge	r3, [sp, #28]
 802a9bc:	9307      	strlt	r3, [sp, #28]
 802a9be:	bfb8      	it	lt
 802a9c0:	9204      	strlt	r2, [sp, #16]
 802a9c2:	7823      	ldrb	r3, [r4, #0]
 802a9c4:	2b2e      	cmp	r3, #46	; 0x2e
 802a9c6:	d10c      	bne.n	802a9e2 <_vfiprintf_r+0x176>
 802a9c8:	7863      	ldrb	r3, [r4, #1]
 802a9ca:	2b2a      	cmp	r3, #42	; 0x2a
 802a9cc:	d135      	bne.n	802aa3a <_vfiprintf_r+0x1ce>
 802a9ce:	9b03      	ldr	r3, [sp, #12]
 802a9d0:	1d1a      	adds	r2, r3, #4
 802a9d2:	681b      	ldr	r3, [r3, #0]
 802a9d4:	9203      	str	r2, [sp, #12]
 802a9d6:	2b00      	cmp	r3, #0
 802a9d8:	bfb8      	it	lt
 802a9da:	f04f 33ff 	movlt.w	r3, #4294967295
 802a9de:	3402      	adds	r4, #2
 802a9e0:	9305      	str	r3, [sp, #20]
 802a9e2:	f8df a0e4 	ldr.w	sl, [pc, #228]	; 802aac8 <_vfiprintf_r+0x25c>
 802a9e6:	7821      	ldrb	r1, [r4, #0]
 802a9e8:	2203      	movs	r2, #3
 802a9ea:	4650      	mov	r0, sl
 802a9ec:	f7f5 fc78 	bl	80202e0 <memchr>
 802a9f0:	b140      	cbz	r0, 802aa04 <_vfiprintf_r+0x198>
 802a9f2:	2340      	movs	r3, #64	; 0x40
 802a9f4:	eba0 000a 	sub.w	r0, r0, sl
 802a9f8:	fa03 f000 	lsl.w	r0, r3, r0
 802a9fc:	9b04      	ldr	r3, [sp, #16]
 802a9fe:	4303      	orrs	r3, r0
 802aa00:	3401      	adds	r4, #1
 802aa02:	9304      	str	r3, [sp, #16]
 802aa04:	f814 1b01 	ldrb.w	r1, [r4], #1
 802aa08:	482c      	ldr	r0, [pc, #176]	; (802aabc <_vfiprintf_r+0x250>)
 802aa0a:	f88d 1028 	strb.w	r1, [sp, #40]	; 0x28
 802aa0e:	2206      	movs	r2, #6
 802aa10:	f7f5 fc66 	bl	80202e0 <memchr>
 802aa14:	2800      	cmp	r0, #0
 802aa16:	d03f      	beq.n	802aa98 <_vfiprintf_r+0x22c>
 802aa18:	4b29      	ldr	r3, [pc, #164]	; (802aac0 <_vfiprintf_r+0x254>)
 802aa1a:	bb1b      	cbnz	r3, 802aa64 <_vfiprintf_r+0x1f8>
 802aa1c:	9b03      	ldr	r3, [sp, #12]
 802aa1e:	3307      	adds	r3, #7
 802aa20:	f023 0307 	bic.w	r3, r3, #7
 802aa24:	3308      	adds	r3, #8
 802aa26:	9303      	str	r3, [sp, #12]
 802aa28:	9b09      	ldr	r3, [sp, #36]	; 0x24
 802aa2a:	443b      	add	r3, r7
 802aa2c:	9309      	str	r3, [sp, #36]	; 0x24
 802aa2e:	e767      	b.n	802a900 <_vfiprintf_r+0x94>
 802aa30:	fb0c 3202 	mla	r2, ip, r2, r3
 802aa34:	460c      	mov	r4, r1
 802aa36:	2001      	movs	r0, #1
 802aa38:	e7a5      	b.n	802a986 <_vfiprintf_r+0x11a>
 802aa3a:	2300      	movs	r3, #0
 802aa3c:	3401      	adds	r4, #1
 802aa3e:	9305      	str	r3, [sp, #20]
 802aa40:	4619      	mov	r1, r3
 802aa42:	f04f 0c0a 	mov.w	ip, #10
 802aa46:	4620      	mov	r0, r4
 802aa48:	f810 2b01 	ldrb.w	r2, [r0], #1
 802aa4c:	3a30      	subs	r2, #48	; 0x30
 802aa4e:	2a09      	cmp	r2, #9
 802aa50:	d903      	bls.n	802aa5a <_vfiprintf_r+0x1ee>
 802aa52:	2b00      	cmp	r3, #0
 802aa54:	d0c5      	beq.n	802a9e2 <_vfiprintf_r+0x176>
 802aa56:	9105      	str	r1, [sp, #20]
 802aa58:	e7c3      	b.n	802a9e2 <_vfiprintf_r+0x176>
 802aa5a:	fb0c 2101 	mla	r1, ip, r1, r2
 802aa5e:	4604      	mov	r4, r0
 802aa60:	2301      	movs	r3, #1
 802aa62:	e7f0      	b.n	802aa46 <_vfiprintf_r+0x1da>
 802aa64:	ab03      	add	r3, sp, #12
 802aa66:	9300      	str	r3, [sp, #0]
 802aa68:	462a      	mov	r2, r5
 802aa6a:	4b16      	ldr	r3, [pc, #88]	; (802aac4 <_vfiprintf_r+0x258>)
 802aa6c:	a904      	add	r1, sp, #16
 802aa6e:	4630      	mov	r0, r6
 802aa70:	f3af 8000 	nop.w
 802aa74:	4607      	mov	r7, r0
 802aa76:	1c78      	adds	r0, r7, #1
 802aa78:	d1d6      	bne.n	802aa28 <_vfiprintf_r+0x1bc>
 802aa7a:	6e6b      	ldr	r3, [r5, #100]	; 0x64
 802aa7c:	07d9      	lsls	r1, r3, #31
 802aa7e:	d405      	bmi.n	802aa8c <_vfiprintf_r+0x220>
 802aa80:	89ab      	ldrh	r3, [r5, #12]
 802aa82:	059a      	lsls	r2, r3, #22
 802aa84:	d402      	bmi.n	802aa8c <_vfiprintf_r+0x220>
 802aa86:	6da8      	ldr	r0, [r5, #88]	; 0x58
 802aa88:	f7ff fe53 	bl	802a732 <__retarget_lock_release_recursive>
 802aa8c:	89ab      	ldrh	r3, [r5, #12]
 802aa8e:	065b      	lsls	r3, r3, #25
 802aa90:	f53f af12 	bmi.w	802a8b8 <_vfiprintf_r+0x4c>
 802aa94:	9809      	ldr	r0, [sp, #36]	; 0x24
 802aa96:	e711      	b.n	802a8bc <_vfiprintf_r+0x50>
 802aa98:	ab03      	add	r3, sp, #12
 802aa9a:	9300      	str	r3, [sp, #0]
 802aa9c:	462a      	mov	r2, r5
 802aa9e:	4b09      	ldr	r3, [pc, #36]	; (802aac4 <_vfiprintf_r+0x258>)
 802aaa0:	a904      	add	r1, sp, #16
 802aaa2:	4630      	mov	r0, r6
 802aaa4:	f000 f880 	bl	802aba8 <_printf_i>
 802aaa8:	e7e4      	b.n	802aa74 <_vfiprintf_r+0x208>
 802aaaa:	bf00      	nop
 802aaac:	0802bf10 	.word	0x0802bf10
 802aab0:	0802bf30 	.word	0x0802bf30
 802aab4:	0802bef0 	.word	0x0802bef0
 802aab8:	0802bf50 	.word	0x0802bf50
 802aabc:	0802bf5a 	.word	0x0802bf5a
 802aac0:	00000000 	.word	0x00000000
 802aac4:	0802a847 	.word	0x0802a847
 802aac8:	0802bf56 	.word	0x0802bf56

0802aacc <_printf_common>:
 802aacc:	e92d 47f0 	stmdb	sp!, {r4, r5, r6, r7, r8, r9, sl, lr}
 802aad0:	4616      	mov	r6, r2
 802aad2:	4699      	mov	r9, r3
 802aad4:	688a      	ldr	r2, [r1, #8]
 802aad6:	690b      	ldr	r3, [r1, #16]
 802aad8:	f8dd 8020 	ldr.w	r8, [sp, #32]
 802aadc:	4293      	cmp	r3, r2
 802aade:	bfb8      	it	lt
 802aae0:	4613      	movlt	r3, r2
 802aae2:	6033      	str	r3, [r6, #0]
 802aae4:	f891 2043 	ldrb.w	r2, [r1, #67]	; 0x43
 802aae8:	4607      	mov	r7, r0
 802aaea:	460c      	mov	r4, r1
 802aaec:	b10a      	cbz	r2, 802aaf2 <_printf_common+0x26>
 802aaee:	3301      	adds	r3, #1
 802aaf0:	6033      	str	r3, [r6, #0]
 802aaf2:	6823      	ldr	r3, [r4, #0]
 802aaf4:	0699      	lsls	r1, r3, #26
 802aaf6:	bf42      	ittt	mi
 802aaf8:	6833      	ldrmi	r3, [r6, #0]
 802aafa:	3302      	addmi	r3, #2
 802aafc:	6033      	strmi	r3, [r6, #0]
 802aafe:	6825      	ldr	r5, [r4, #0]
 802ab00:	f015 0506 	ands.w	r5, r5, #6
 802ab04:	d106      	bne.n	802ab14 <_printf_common+0x48>
 802ab06:	f104 0a19 	add.w	sl, r4, #25
 802ab0a:	68e3      	ldr	r3, [r4, #12]
 802ab0c:	6832      	ldr	r2, [r6, #0]
 802ab0e:	1a9b      	subs	r3, r3, r2
 802ab10:	42ab      	cmp	r3, r5
 802ab12:	dc26      	bgt.n	802ab62 <_printf_common+0x96>
 802ab14:	f894 2043 	ldrb.w	r2, [r4, #67]	; 0x43
 802ab18:	1e13      	subs	r3, r2, #0
 802ab1a:	6822      	ldr	r2, [r4, #0]
 802ab1c:	bf18      	it	ne
 802ab1e:	2301      	movne	r3, #1
 802ab20:	0692      	lsls	r2, r2, #26
 802ab22:	d42b      	bmi.n	802ab7c <_printf_common+0xb0>
 802ab24:	f104 0243 	add.w	r2, r4, #67	; 0x43
 802ab28:	4649      	mov	r1, r9
 802ab2a:	4638      	mov	r0, r7
 802ab2c:	47c0      	blx	r8
 802ab2e:	3001      	adds	r0, #1
 802ab30:	d01e      	beq.n	802ab70 <_printf_common+0xa4>
 802ab32:	6823      	ldr	r3, [r4, #0]
 802ab34:	68e5      	ldr	r5, [r4, #12]
 802ab36:	6832      	ldr	r2, [r6, #0]
 802ab38:	f003 0306 	and.w	r3, r3, #6
 802ab3c:	2b04      	cmp	r3, #4
 802ab3e:	bf08      	it	eq
 802ab40:	1aad      	subeq	r5, r5, r2
 802ab42:	68a3      	ldr	r3, [r4, #8]
 802ab44:	6922      	ldr	r2, [r4, #16]
 802ab46:	bf0c      	ite	eq
 802ab48:	ea25 75e5 	biceq.w	r5, r5, r5, asr #31
 802ab4c:	2500      	movne	r5, #0
 802ab4e:	4293      	cmp	r3, r2
 802ab50:	bfc4      	itt	gt
 802ab52:	1a9b      	subgt	r3, r3, r2
 802ab54:	18ed      	addgt	r5, r5, r3
 802ab56:	2600      	movs	r6, #0
 802ab58:	341a      	adds	r4, #26
 802ab5a:	42b5      	cmp	r5, r6
 802ab5c:	d11a      	bne.n	802ab94 <_printf_common+0xc8>
 802ab5e:	2000      	movs	r0, #0
 802ab60:	e008      	b.n	802ab74 <_printf_common+0xa8>
 802ab62:	2301      	movs	r3, #1
 802ab64:	4652      	mov	r2, sl
 802ab66:	4649      	mov	r1, r9
 802ab68:	4638      	mov	r0, r7
 802ab6a:	47c0      	blx	r8
 802ab6c:	3001      	adds	r0, #1
 802ab6e:	d103      	bne.n	802ab78 <_printf_common+0xac>
 802ab70:	f04f 30ff 	mov.w	r0, #4294967295
 802ab74:	e8bd 87f0 	ldmia.w	sp!, {r4, r5, r6, r7, r8, r9, sl, pc}
 802ab78:	3501      	adds	r5, #1
 802ab7a:	e7c6      	b.n	802ab0a <_printf_common+0x3e>
 802ab7c:	18e1      	adds	r1, r4, r3
 802ab7e:	1c5a      	adds	r2, r3, #1
 802ab80:	2030      	movs	r0, #48	; 0x30
 802ab82:	f881 0043 	strb.w	r0, [r1, #67]	; 0x43
 802ab86:	4422      	add	r2, r4
 802ab88:	f894 1045 	ldrb.w	r1, [r4, #69]	; 0x45
 802ab8c:	f882 1043 	strb.w	r1, [r2, #67]	; 0x43
 802ab90:	3302      	adds	r3, #2
 802ab92:	e7c7      	b.n	802ab24 <_printf_common+0x58>
 802ab94:	2301      	movs	r3, #1
 802ab96:	4622      	mov	r2, r4
 802ab98:	4649      	mov	r1, r9
 802ab9a:	4638      	mov	r0, r7
 802ab9c:	47c0      	blx	r8
 802ab9e:	3001      	adds	r0, #1
 802aba0:	d0e6      	beq.n	802ab70 <_printf_common+0xa4>
 802aba2:	3601      	adds	r6, #1
 802aba4:	e7d9      	b.n	802ab5a <_printf_common+0x8e>
	...

0802aba8 <_printf_i>:
 802aba8:	e92d 47ff 	stmdb	sp!, {r0, r1, r2, r3, r4, r5, r6, r7, r8, r9, sl, lr}
 802abac:	7e0f      	ldrb	r7, [r1, #24]
 802abae:	9d0c      	ldr	r5, [sp, #48]	; 0x30
 802abb0:	2f78      	cmp	r7, #120	; 0x78
 802abb2:	4691      	mov	r9, r2
 802abb4:	4680      	mov	r8, r0
 802abb6:	460c      	mov	r4, r1
 802abb8:	469a      	mov	sl, r3
 802abba:	f101 0243 	add.w	r2, r1, #67	; 0x43
 802abbe:	d807      	bhi.n	802abd0 <_printf_i+0x28>
 802abc0:	2f62      	cmp	r7, #98	; 0x62
 802abc2:	d80a      	bhi.n	802abda <_printf_i+0x32>
 802abc4:	2f00      	cmp	r7, #0
 802abc6:	f000 80d8 	beq.w	802ad7a <_printf_i+0x1d2>
 802abca:	2f58      	cmp	r7, #88	; 0x58
 802abcc:	f000 80a3 	beq.w	802ad16 <_printf_i+0x16e>
 802abd0:	f104 0542 	add.w	r5, r4, #66	; 0x42
 802abd4:	f884 7042 	strb.w	r7, [r4, #66]	; 0x42
 802abd8:	e03a      	b.n	802ac50 <_printf_i+0xa8>
 802abda:	f1a7 0363 	sub.w	r3, r7, #99	; 0x63
 802abde:	2b15      	cmp	r3, #21
 802abe0:	d8f6      	bhi.n	802abd0 <_printf_i+0x28>
 802abe2:	a101      	add	r1, pc, #4	; (adr r1, 802abe8 <_printf_i+0x40>)
 802abe4:	f851 f023 	ldr.w	pc, [r1, r3, lsl #2]
 802abe8:	0802ac41 	.word	0x0802ac41
 802abec:	0802ac55 	.word	0x0802ac55
 802abf0:	0802abd1 	.word	0x0802abd1
 802abf4:	0802abd1 	.word	0x0802abd1
 802abf8:	0802abd1 	.word	0x0802abd1
 802abfc:	0802abd1 	.word	0x0802abd1
 802ac00:	0802ac55 	.word	0x0802ac55
 802ac04:	0802abd1 	.word	0x0802abd1
 802ac08:	0802abd1 	.word	0x0802abd1
 802ac0c:	0802abd1 	.word	0x0802abd1
 802ac10:	0802abd1 	.word	0x0802abd1
 802ac14:	0802ad61 	.word	0x0802ad61
 802ac18:	0802ac85 	.word	0x0802ac85
 802ac1c:	0802ad43 	.word	0x0802ad43
 802ac20:	0802abd1 	.word	0x0802abd1
 802ac24:	0802abd1 	.word	0x0802abd1
 802ac28:	0802ad83 	.word	0x0802ad83
 802ac2c:	0802abd1 	.word	0x0802abd1
 802ac30:	0802ac85 	.word	0x0802ac85
 802ac34:	0802abd1 	.word	0x0802abd1
 802ac38:	0802abd1 	.word	0x0802abd1
 802ac3c:	0802ad4b 	.word	0x0802ad4b
 802ac40:	682b      	ldr	r3, [r5, #0]
 802ac42:	1d1a      	adds	r2, r3, #4
 802ac44:	681b      	ldr	r3, [r3, #0]
 802ac46:	602a      	str	r2, [r5, #0]
 802ac48:	f104 0542 	add.w	r5, r4, #66	; 0x42
 802ac4c:	f884 3042 	strb.w	r3, [r4, #66]	; 0x42
 802ac50:	2301      	movs	r3, #1
 802ac52:	e0a3      	b.n	802ad9c <_printf_i+0x1f4>
 802ac54:	6820      	ldr	r0, [r4, #0]
 802ac56:	6829      	ldr	r1, [r5, #0]
 802ac58:	0606      	lsls	r6, r0, #24
 802ac5a:	f101 0304 	add.w	r3, r1, #4
 802ac5e:	d50a      	bpl.n	802ac76 <_printf_i+0xce>
 802ac60:	680e      	ldr	r6, [r1, #0]
 802ac62:	602b      	str	r3, [r5, #0]
 802ac64:	2e00      	cmp	r6, #0
 802ac66:	da03      	bge.n	802ac70 <_printf_i+0xc8>
 802ac68:	232d      	movs	r3, #45	; 0x2d
 802ac6a:	4276      	negs	r6, r6
 802ac6c:	f884 3043 	strb.w	r3, [r4, #67]	; 0x43
 802ac70:	485e      	ldr	r0, [pc, #376]	; (802adec <_printf_i+0x244>)
 802ac72:	230a      	movs	r3, #10
 802ac74:	e019      	b.n	802acaa <_printf_i+0x102>
 802ac76:	680e      	ldr	r6, [r1, #0]
 802ac78:	602b      	str	r3, [r5, #0]
 802ac7a:	f010 0f40 	tst.w	r0, #64	; 0x40
 802ac7e:	bf18      	it	ne
 802ac80:	b236      	sxthne	r6, r6
 802ac82:	e7ef      	b.n	802ac64 <_printf_i+0xbc>
 802ac84:	682b      	ldr	r3, [r5, #0]
 802ac86:	6820      	ldr	r0, [r4, #0]
 802ac88:	1d19      	adds	r1, r3, #4
 802ac8a:	6029      	str	r1, [r5, #0]
 802ac8c:	0601      	lsls	r1, r0, #24
 802ac8e:	d501      	bpl.n	802ac94 <_printf_i+0xec>
 802ac90:	681e      	ldr	r6, [r3, #0]
 802ac92:	e002      	b.n	802ac9a <_printf_i+0xf2>
 802ac94:	0646      	lsls	r6, r0, #25
 802ac96:	d5fb      	bpl.n	802ac90 <_printf_i+0xe8>
 802ac98:	881e      	ldrh	r6, [r3, #0]
 802ac9a:	4854      	ldr	r0, [pc, #336]	; (802adec <_printf_i+0x244>)
 802ac9c:	2f6f      	cmp	r7, #111	; 0x6f
 802ac9e:	bf0c      	ite	eq
 802aca0:	2308      	moveq	r3, #8
 802aca2:	230a      	movne	r3, #10
 802aca4:	2100      	movs	r1, #0
 802aca6:	f884 1043 	strb.w	r1, [r4, #67]	; 0x43
 802acaa:	6865      	ldr	r5, [r4, #4]
 802acac:	60a5      	str	r5, [r4, #8]
 802acae:	2d00      	cmp	r5, #0
 802acb0:	bfa2      	ittt	ge
 802acb2:	6821      	ldrge	r1, [r4, #0]
 802acb4:	f021 0104 	bicge.w	r1, r1, #4
 802acb8:	6021      	strge	r1, [r4, #0]
 802acba:	b90e      	cbnz	r6, 802acc0 <_printf_i+0x118>
 802acbc:	2d00      	cmp	r5, #0
 802acbe:	d04d      	beq.n	802ad5c <_printf_i+0x1b4>
 802acc0:	4615      	mov	r5, r2
 802acc2:	fbb6 f1f3 	udiv	r1, r6, r3
 802acc6:	fb03 6711 	mls	r7, r3, r1, r6
 802acca:	5dc7      	ldrb	r7, [r0, r7]
 802accc:	f805 7d01 	strb.w	r7, [r5, #-1]!
 802acd0:	4637      	mov	r7, r6
 802acd2:	42bb      	cmp	r3, r7
 802acd4:	460e      	mov	r6, r1
 802acd6:	d9f4      	bls.n	802acc2 <_printf_i+0x11a>
 802acd8:	2b08      	cmp	r3, #8
 802acda:	d10b      	bne.n	802acf4 <_printf_i+0x14c>
 802acdc:	6823      	ldr	r3, [r4, #0]
 802acde:	07de      	lsls	r6, r3, #31
 802ace0:	d508      	bpl.n	802acf4 <_printf_i+0x14c>
 802ace2:	6923      	ldr	r3, [r4, #16]
 802ace4:	6861      	ldr	r1, [r4, #4]
 802ace6:	4299      	cmp	r1, r3
 802ace8:	bfde      	ittt	le
 802acea:	2330      	movle	r3, #48	; 0x30
 802acec:	f805 3c01 	strble.w	r3, [r5, #-1]
 802acf0:	f105 35ff 	addle.w	r5, r5, #4294967295
 802acf4:	1b52      	subs	r2, r2, r5
 802acf6:	6122      	str	r2, [r4, #16]
 802acf8:	f8cd a000 	str.w	sl, [sp]
 802acfc:	464b      	mov	r3, r9
 802acfe:	aa03      	add	r2, sp, #12
 802ad00:	4621      	mov	r1, r4
 802ad02:	4640      	mov	r0, r8
 802ad04:	f7ff fee2 	bl	802aacc <_printf_common>
 802ad08:	3001      	adds	r0, #1
 802ad0a:	d14c      	bne.n	802ada6 <_printf_i+0x1fe>
 802ad0c:	f04f 30ff 	mov.w	r0, #4294967295
 802ad10:	b004      	add	sp, #16
 802ad12:	e8bd 87f0 	ldmia.w	sp!, {r4, r5, r6, r7, r8, r9, sl, pc}
 802ad16:	4835      	ldr	r0, [pc, #212]	; (802adec <_printf_i+0x244>)
 802ad18:	f881 7045 	strb.w	r7, [r1, #69]	; 0x45
 802ad1c:	6829      	ldr	r1, [r5, #0]
 802ad1e:	6823      	ldr	r3, [r4, #0]
 802ad20:	f851 6b04 	ldr.w	r6, [r1], #4
 802ad24:	6029      	str	r1, [r5, #0]
 802ad26:	061d      	lsls	r5, r3, #24
 802ad28:	d514      	bpl.n	802ad54 <_printf_i+0x1ac>
 802ad2a:	07df      	lsls	r7, r3, #31
 802ad2c:	bf44      	itt	mi
 802ad2e:	f043 0320 	orrmi.w	r3, r3, #32
 802ad32:	6023      	strmi	r3, [r4, #0]
 802ad34:	b91e      	cbnz	r6, 802ad3e <_printf_i+0x196>
 802ad36:	6823      	ldr	r3, [r4, #0]
 802ad38:	f023 0320 	bic.w	r3, r3, #32
 802ad3c:	6023      	str	r3, [r4, #0]
 802ad3e:	2310      	movs	r3, #16
 802ad40:	e7b0      	b.n	802aca4 <_printf_i+0xfc>
 802ad42:	6823      	ldr	r3, [r4, #0]
 802ad44:	f043 0320 	orr.w	r3, r3, #32
 802ad48:	6023      	str	r3, [r4, #0]
 802ad4a:	2378      	movs	r3, #120	; 0x78
 802ad4c:	4828      	ldr	r0, [pc, #160]	; (802adf0 <_printf_i+0x248>)
 802ad4e:	f884 3045 	strb.w	r3, [r4, #69]	; 0x45
 802ad52:	e7e3      	b.n	802ad1c <_printf_i+0x174>
 802ad54:	0659      	lsls	r1, r3, #25
 802ad56:	bf48      	it	mi
 802ad58:	b2b6      	uxthmi	r6, r6
 802ad5a:	e7e6      	b.n	802ad2a <_printf_i+0x182>
 802ad5c:	4615      	mov	r5, r2
 802ad5e:	e7bb      	b.n	802acd8 <_printf_i+0x130>
 802ad60:	682b      	ldr	r3, [r5, #0]
 802ad62:	6826      	ldr	r6, [r4, #0]
 802ad64:	6961      	ldr	r1, [r4, #20]
 802ad66:	1d18      	adds	r0, r3, #4
 802ad68:	6028      	str	r0, [r5, #0]
 802ad6a:	0635      	lsls	r5, r6, #24
 802ad6c:	681b      	ldr	r3, [r3, #0]
 802ad6e:	d501      	bpl.n	802ad74 <_printf_i+0x1cc>
 802ad70:	6019      	str	r1, [r3, #0]
 802ad72:	e002      	b.n	802ad7a <_printf_i+0x1d2>
 802ad74:	0670      	lsls	r0, r6, #25
 802ad76:	d5fb      	bpl.n	802ad70 <_printf_i+0x1c8>
 802ad78:	8019      	strh	r1, [r3, #0]
 802ad7a:	2300      	movs	r3, #0
 802ad7c:	6123      	str	r3, [r4, #16]
 802ad7e:	4615      	mov	r5, r2
 802ad80:	e7ba      	b.n	802acf8 <_printf_i+0x150>
 802ad82:	682b      	ldr	r3, [r5, #0]
 802ad84:	1d1a      	adds	r2, r3, #4
 802ad86:	602a      	str	r2, [r5, #0]
 802ad88:	681d      	ldr	r5, [r3, #0]
 802ad8a:	6862      	ldr	r2, [r4, #4]
 802ad8c:	2100      	movs	r1, #0
 802ad8e:	4628      	mov	r0, r5
 802ad90:	f7f5 faa6 	bl	80202e0 <memchr>
 802ad94:	b108      	cbz	r0, 802ad9a <_printf_i+0x1f2>
 802ad96:	1b40      	subs	r0, r0, r5
 802ad98:	6060      	str	r0, [r4, #4]
 802ad9a:	6863      	ldr	r3, [r4, #4]
 802ad9c:	6123      	str	r3, [r4, #16]
 802ad9e:	2300      	movs	r3, #0
 802ada0:	f884 3043 	strb.w	r3, [r4, #67]	; 0x43
 802ada4:	e7a8      	b.n	802acf8 <_printf_i+0x150>
 802ada6:	6923      	ldr	r3, [r4, #16]
 802ada8:	462a      	mov	r2, r5
 802adaa:	4649      	mov	r1, r9
 802adac:	4640      	mov	r0, r8
 802adae:	47d0      	blx	sl
 802adb0:	3001      	adds	r0, #1
 802adb2:	d0ab      	beq.n	802ad0c <_printf_i+0x164>
 802adb4:	6823      	ldr	r3, [r4, #0]
 802adb6:	079b      	lsls	r3, r3, #30
 802adb8:	d413      	bmi.n	802ade2 <_printf_i+0x23a>
 802adba:	68e0      	ldr	r0, [r4, #12]
 802adbc:	9b03      	ldr	r3, [sp, #12]
 802adbe:	4298      	cmp	r0, r3
 802adc0:	bfb8      	it	lt
 802adc2:	4618      	movlt	r0, r3
 802adc4:	e7a4      	b.n	802ad10 <_printf_i+0x168>
 802adc6:	2301      	movs	r3, #1
 802adc8:	4632      	mov	r2, r6
 802adca:	4649      	mov	r1, r9
 802adcc:	4640      	mov	r0, r8
 802adce:	47d0      	blx	sl
 802add0:	3001      	adds	r0, #1
 802add2:	d09b      	beq.n	802ad0c <_printf_i+0x164>
 802add4:	3501      	adds	r5, #1
 802add6:	68e3      	ldr	r3, [r4, #12]
 802add8:	9903      	ldr	r1, [sp, #12]
 802adda:	1a5b      	subs	r3, r3, r1
 802addc:	42ab      	cmp	r3, r5
 802adde:	dcf2      	bgt.n	802adc6 <_printf_i+0x21e>
 802ade0:	e7eb      	b.n	802adba <_printf_i+0x212>
 802ade2:	2500      	movs	r5, #0
 802ade4:	f104 0619 	add.w	r6, r4, #25
 802ade8:	e7f5      	b.n	802add6 <_printf_i+0x22e>
 802adea:	bf00      	nop
 802adec:	0802bf61 	.word	0x0802bf61
 802adf0:	0802bf72 	.word	0x0802bf72

0802adf4 <__sread>:
 802adf4:	b510      	push	{r4, lr}
 802adf6:	460c      	mov	r4, r1
 802adf8:	f9b1 100e 	ldrsh.w	r1, [r1, #14]
 802adfc:	f000 f894 	bl	802af28 <_read_r>
 802ae00:	2800      	cmp	r0, #0
 802ae02:	bfab      	itete	ge
 802ae04:	6d63      	ldrge	r3, [r4, #84]	; 0x54
 802ae06:	89a3      	ldrhlt	r3, [r4, #12]
 802ae08:	181b      	addge	r3, r3, r0
 802ae0a:	f423 5380 	biclt.w	r3, r3, #4096	; 0x1000
 802ae0e:	bfac      	ite	ge
 802ae10:	6563      	strge	r3, [r4, #84]	; 0x54
 802ae12:	81a3      	strhlt	r3, [r4, #12]
 802ae14:	bd10      	pop	{r4, pc}

0802ae16 <__swrite>:
 802ae16:	e92d 41f0 	stmdb	sp!, {r4, r5, r6, r7, r8, lr}
 802ae1a:	461f      	mov	r7, r3
 802ae1c:	898b      	ldrh	r3, [r1, #12]
 802ae1e:	05db      	lsls	r3, r3, #23
 802ae20:	4605      	mov	r5, r0
 802ae22:	460c      	mov	r4, r1
 802ae24:	4616      	mov	r6, r2
 802ae26:	d505      	bpl.n	802ae34 <__swrite+0x1e>
 802ae28:	f9b1 100e 	ldrsh.w	r1, [r1, #14]
 802ae2c:	2302      	movs	r3, #2
 802ae2e:	2200      	movs	r2, #0
 802ae30:	f000 f868 	bl	802af04 <_lseek_r>
 802ae34:	89a3      	ldrh	r3, [r4, #12]
 802ae36:	f9b4 100e 	ldrsh.w	r1, [r4, #14]
 802ae3a:	f423 5380 	bic.w	r3, r3, #4096	; 0x1000
 802ae3e:	81a3      	strh	r3, [r4, #12]
 802ae40:	4632      	mov	r2, r6
 802ae42:	463b      	mov	r3, r7
 802ae44:	4628      	mov	r0, r5
 802ae46:	e8bd 41f0 	ldmia.w	sp!, {r4, r5, r6, r7, r8, lr}
 802ae4a:	f000 b817 	b.w	802ae7c <_write_r>

0802ae4e <__sseek>:
 802ae4e:	b510      	push	{r4, lr}
 802ae50:	460c      	mov	r4, r1
 802ae52:	f9b1 100e 	ldrsh.w	r1, [r1, #14]
 802ae56:	f000 f855 	bl	802af04 <_lseek_r>
 802ae5a:	1c43      	adds	r3, r0, #1
 802ae5c:	89a3      	ldrh	r3, [r4, #12]
 802ae5e:	bf15      	itete	ne
 802ae60:	6560      	strne	r0, [r4, #84]	; 0x54
 802ae62:	f423 5380 	biceq.w	r3, r3, #4096	; 0x1000
 802ae66:	f443 5380 	orrne.w	r3, r3, #4096	; 0x1000
 802ae6a:	81a3      	strheq	r3, [r4, #12]
 802ae6c:	bf18      	it	ne
 802ae6e:	81a3      	strhne	r3, [r4, #12]
 802ae70:	bd10      	pop	{r4, pc}

0802ae72 <__sclose>:
 802ae72:	f9b1 100e 	ldrsh.w	r1, [r1, #14]
 802ae76:	f000 b813 	b.w	802aea0 <_close_r>
	...

0802ae7c <_write_r>:
 802ae7c:	b538      	push	{r3, r4, r5, lr}
 802ae7e:	4d07      	ldr	r5, [pc, #28]	; (802ae9c <_write_r+0x20>)
 802ae80:	4604      	mov	r4, r0
 802ae82:	4608      	mov	r0, r1
 802ae84:	4611      	mov	r1, r2
 802ae86:	2200      	movs	r2, #0
 802ae88:	602a      	str	r2, [r5, #0]
 802ae8a:	461a      	mov	r2, r3
 802ae8c:	f7fb fb42 	bl	8026514 <_write>
 802ae90:	1c43      	adds	r3, r0, #1
 802ae92:	d102      	bne.n	802ae9a <_write_r+0x1e>
 802ae94:	682b      	ldr	r3, [r5, #0]
 802ae96:	b103      	cbz	r3, 802ae9a <_write_r+0x1e>
 802ae98:	6023      	str	r3, [r4, #0]
 802ae9a:	bd38      	pop	{r3, r4, r5, pc}
 802ae9c:	24001f58 	.word	0x24001f58

0802aea0 <_close_r>:
 802aea0:	b538      	push	{r3, r4, r5, lr}
 802aea2:	4d06      	ldr	r5, [pc, #24]	; (802aebc <_close_r+0x1c>)
 802aea4:	2300      	movs	r3, #0
 802aea6:	4604      	mov	r4, r0
 802aea8:	4608      	mov	r0, r1
 802aeaa:	602b      	str	r3, [r5, #0]
 802aeac:	f7fb fb40 	bl	8026530 <_close>
 802aeb0:	1c43      	adds	r3, r0, #1
 802aeb2:	d102      	bne.n	802aeba <_close_r+0x1a>
 802aeb4:	682b      	ldr	r3, [r5, #0]
 802aeb6:	b103      	cbz	r3, 802aeba <_close_r+0x1a>
 802aeb8:	6023      	str	r3, [r4, #0]
 802aeba:	bd38      	pop	{r3, r4, r5, pc}
 802aebc:	24001f58 	.word	0x24001f58

0802aec0 <_fstat_r>:
 802aec0:	b538      	push	{r3, r4, r5, lr}
 802aec2:	4d07      	ldr	r5, [pc, #28]	; (802aee0 <_fstat_r+0x20>)
 802aec4:	2300      	movs	r3, #0
 802aec6:	4604      	mov	r4, r0
 802aec8:	4608      	mov	r0, r1
 802aeca:	4611      	mov	r1, r2
 802aecc:	602b      	str	r3, [r5, #0]
 802aece:	f7fb fb32 	bl	8026536 <_fstat>
 802aed2:	1c43      	adds	r3, r0, #1
 802aed4:	d102      	bne.n	802aedc <_fstat_r+0x1c>
 802aed6:	682b      	ldr	r3, [r5, #0]
 802aed8:	b103      	cbz	r3, 802aedc <_fstat_r+0x1c>
 802aeda:	6023      	str	r3, [r4, #0]
 802aedc:	bd38      	pop	{r3, r4, r5, pc}
 802aede:	bf00      	nop
 802aee0:	24001f58 	.word	0x24001f58

0802aee4 <_isatty_r>:
 802aee4:	b538      	push	{r3, r4, r5, lr}
 802aee6:	4d06      	ldr	r5, [pc, #24]	; (802af00 <_isatty_r+0x1c>)
 802aee8:	2300      	movs	r3, #0
 802aeea:	4604      	mov	r4, r0
 802aeec:	4608      	mov	r0, r1
 802aeee:	602b      	str	r3, [r5, #0]
 802aef0:	f7fb fb26 	bl	8026540 <_isatty>
 802aef4:	1c43      	adds	r3, r0, #1
 802aef6:	d102      	bne.n	802aefe <_isatty_r+0x1a>
 802aef8:	682b      	ldr	r3, [r5, #0]
 802aefa:	b103      	cbz	r3, 802aefe <_isatty_r+0x1a>
 802aefc:	6023      	str	r3, [r4, #0]
 802aefe:	bd38      	pop	{r3, r4, r5, pc}
 802af00:	24001f58 	.word	0x24001f58

0802af04 <_lseek_r>:
 802af04:	b538      	push	{r3, r4, r5, lr}
 802af06:	4d07      	ldr	r5, [pc, #28]	; (802af24 <_lseek_r+0x20>)
 802af08:	4604      	mov	r4, r0
 802af0a:	4608      	mov	r0, r1
 802af0c:	4611      	mov	r1, r2
 802af0e:	2200      	movs	r2, #0
 802af10:	602a      	str	r2, [r5, #0]
 802af12:	461a      	mov	r2, r3
 802af14:	f7fb fb16 	bl	8026544 <_lseek>
 802af18:	1c43      	adds	r3, r0, #1
 802af1a:	d102      	bne.n	802af22 <_lseek_r+0x1e>
 802af1c:	682b      	ldr	r3, [r5, #0]
 802af1e:	b103      	cbz	r3, 802af22 <_lseek_r+0x1e>
 802af20:	6023      	str	r3, [r4, #0]
 802af22:	bd38      	pop	{r3, r4, r5, pc}
 802af24:	24001f58 	.word	0x24001f58

0802af28 <_read_r>:
 802af28:	b538      	push	{r3, r4, r5, lr}
 802af2a:	4d07      	ldr	r5, [pc, #28]	; (802af48 <_read_r+0x20>)
 802af2c:	4604      	mov	r4, r0
 802af2e:	4608      	mov	r0, r1
 802af30:	4611      	mov	r1, r2
 802af32:	2200      	movs	r2, #0
 802af34:	602a      	str	r2, [r5, #0]
 802af36:	461a      	mov	r2, r3
 802af38:	f7fb fade 	bl	80264f8 <_read>
 802af3c:	1c43      	adds	r3, r0, #1
 802af3e:	d102      	bne.n	802af46 <_read_r+0x1e>
 802af40:	682b      	ldr	r3, [r5, #0]
 802af42:	b103      	cbz	r3, 802af46 <_read_r+0x1e>
 802af44:	6023      	str	r3, [r4, #0]
 802af46:	bd38      	pop	{r3, r4, r5, pc}
 802af48:	24001f58 	.word	0x24001f58

0802af4c <_init>:
 802af4c:	b5f8      	push	{r3, r4, r5, r6, r7, lr}
 802af4e:	bf00      	nop
 802af50:	bcf8      	pop	{r3, r4, r5, r6, r7}
 802af52:	bc08      	pop	{r3}
 802af54:	469e      	mov	lr, r3
 802af56:	4770      	bx	lr

0802af58 <_fini>:
 802af58:	b5f8      	push	{r3, r4, r5, r6, r7, lr}
 802af5a:	bf00      	nop
 802af5c:	bcf8      	pop	{r3, r4, r5, r6, r7}
 802af5e:	bc08      	pop	{r3}
 802af60:	469e      	mov	lr, r3
 802af62:	4770      	bx	lr
